(dp1
S'nodes_list'
p2
(lp3
S'W98-0203'
p4
aS'P03-1017'
p5
aS'P03-1010'
p6
aS'P03-1013'
p7
aS'J08-3004'
p8
aS'E09-1066'
p9
aS'W03-1005'
p10
aS'E09-1060'
p11
aS'C04-1037'
p12
aS'W07-1704'
p13
aS'I05-2009'
p14
aS'W02-0801'
p15
aS'C04-1038'
p16
aS'J02-1002'
p17
aS'D08-1007'
p18
aS'J02-1001'
p19
aS'W09-1116'
p20
aS'J02-1004'
p21
aS'D08-1001'
p22
aS'H05-1062'
p23
aS'W09-1118'
p24
aS'P84-1047'
p25
aS'W10-1612'
p26
aS'W98-0706'
p27
aS'W98-0702'
p28
aS'W11-0408'
p29
aS'D09-1085'
p30
aS'D09-1087'
p31
aS'P93-1042'
p32
aS'W10-1410'
p33
aS'A92-1044'
p34
aS'A92-1045'
p35
aS'P09-1109'
p36
aS'E93-1015'
p37
aS'W03-1314'
p38
aS'A97-1043'
p39
aS'P06-2056'
p40
aS'P06-2055'
p41
aS'C04-1107'
p42
aS'C04-1104'
p43
aS'W01-1017'
p44
aS'W01-1015'
p45
aS'P11-1164'
p46
aS'D11-1080'
p47
aS'W01-1011'
p48
aS'D09-1120'
p49
aS'C92-2100'
p50
aS'P12-2062'
p51
aS'P98-1039'
p52
aS'N13-1030'
p53
aS'N13-1036'
p54
aS'C00-2156'
p55
aS'C00-2157'
p56
aS'W08-0315'
p57
aS'C92-2078'
p58
aS'C92-2072'
p59
aS'S10-1009'
p60
aS'N04-1013'
p61
aS'W02-1040'
p62
aS'N04-1011'
p63
aS'N04-1016'
p64
aS'N04-1015'
p65
aS'N04-1014'
p66
aS'W05-0706'
p67
aS'W05-0701'
p68
aS'W97-0811'
p69
aS'W97-0810'
p70
aS'P13-1121'
p71
aS'C96-2137'
p72
aS'C96-2136'
p73
aS'W05-0708'
p74
aS'W05-0709'
p75
aS'P04-3009'
p76
aS'P11-5003'
p77
aS'D09-1060'
p78
aS'N12-1090'
p79
aS'P10-1144'
p80
aS'P05-1029'
p81
aS'P05-1027'
p82
aS'W12-3201'
p83
aS'P05-1025'
p84
aS'P05-1024'
p85
aS'P05-1023'
p86
aS'P05-1022'
p87
aS'W12-3206'
p88
aS'W12-3207'
p89
aS'W06-1206'
p90
aS'J05-4004'
p91
aS'P07-1103'
p92
aS'P11-2111'
p93
aS'J98-4002'
p94
aS'J05-4002'
p95
aS'P11-2119'
p96
aS'C10-2040'
p97
aS'W98-1419'
p98
aS'W10-2924'
p99
aS'J03-1004'
p100
aS'W07-0308'
p101
aS'W00-0707'
p102
aS'W00-0706'
p103
aS'W00-0702'
p104
aS'A94-1001'
p105
aS'J93-4001'
p106
aS'W04-0864'
p107
aS'P06-3001'
p108
aS'P95-1053'
p109
aS'W02-0312'
p110
aS'H01-1031'
p111
aS'Q13-1011'
p112
aS'P97-1026'
p113
aS'H01-1036'
p114
aS'I08-5013'
p115
aS'H01-1039'
p116
aS'P88-1012'
p117
aS'W04-3103'
p118
aS'J96-2003'
p119
aS'I05-1020'
p120
aS'I05-1021'
p121
aS'I05-1026'
p122
aS'E12-1047'
p123
aS'P07-1078'
p124
aS'P07-1071'
p125
aS'W07-1308'
p126
aS'X98-1026'
p127
aS'X98-1021'
p128
aS'D12-1086'
p129
aS'W13-4044'
p130
aS'D12-1083'
p131
aS'N03-2010'
p132
aS'P98-1010'
p133
aS'J07-2002'
p134
aS'E91-1025'
p135
aS'E91-1027'
p136
aS'W06-3909'
p137
aS'L08-1383'
p138
aS'J02-4001'
p139
aS'W01-0514'
p140
aS'J02-4002'
p141
aS'J02-4005'
p142
aS'J02-4004'
p143
aS'C08-1012'
p144
aS'W01-0512'
p145
aS'J92-4004'
p146
aS'C90-3085'
p147
aS'C90-3086'
p148
aS'W01-0510'
p149
aS'W01-0519'
p150
aS'W01-0518'
p151
aS'W97-0713'
p152
aS'D10-1043'
p153
aS'C96-1009'
p154
aS'W95-0109'
p155
aS'W95-0107'
p156
aS'W95-0106'
p157
aS'J03-2003'
p158
aS'J03-2004'
p159
aS'I08-7002'
p160
aS'W95-0101'
p161
aS'W09-0604'
p162
aS'P06-1084'
p163
aS'W03-1121'
p164
aS'E03-1002'
p165
aS'W06-1671'
p166
aS'J84-2001'
p167
aS'A97-1001'
p168
aS'W11-2011'
p169
aS'I05-6010'
p170
aS'P03-1007'
p171
aS'P03-1003'
p172
aS'J12-2006'
p173
aS'P09-1065'
p174
aS'J12-2005'
p175
aS'P11-1157'
p176
aS'W03-1017'
p177
aS'W03-1016'
p178
aS'A97-1039'
p179
aS'C04-1021'
p180
aS'C04-1020'
p181
aS'E09-1079'
p182
aS'D08-1019'
p183
aS'W11-2701'
p184
aS'I05-2033'
p185
aS'C92-1013'
p186
aS'W12-2036'
p187
aS'W11-2708'
p188
aS'I05-2038'
p189
aS'W02-0812'
p190
aS'W09-1106'
p191
aS'H05-1059'
p192
aS'H05-1056'
p193
aS'H05-1054'
p194
aS'H05-1052'
p195
aS'W98-0711'
p196
aS'W98-0718'
p197
aS'W03-1309'
p198
aS'W03-1308'
p199
aS'W03-1306'
p200
aS'P06-2041'
p201
aS'E95-1020'
p202
aS'P06-2043'
p203
aS'E95-1022'
p204
aS'P06-2045'
p205
aS'W03-0314'
p206
aS'W03-0312'
p207
aS'D11-1096'
p208
aS'E03-1088'
p209
aS'P98-1045'
p210
aS'W06-3119'
p211
aS'E03-1086'
p212
aS'E03-1087'
p213
aS'E03-1080'
p214
aS'E03-1082'
p215
aS'W11-0709'
p216
aS'P06-1034'
p217
aS'P00-1044'
p218
aS'P00-1042'
p219
aS'W06-0901'
p220
aS'W04-1506'
p221
aS'P12-2072'
p222
aS'W09-0706'
p223
aS'N13-1044'
p224
aS'W94-0312'
p225
aS'N13-1040'
p226
aS'E99-1024'
p227
aS'W94-0319'
p228
aS'C00-2141'
p229
aS'C00-2140'
p230
aS'C04-1204'
p231
aS'P09-2026'
p232
aS'W11-0415'
p233
aS'P09-2023'
p234
aS'P09-2020'
p235
aS'C02-1005'
p236
aS'S10-1019'
p237
aS'E91-1019'
p238
aS'W02-1034'
p239
aS'W02-1035'
p240
aS'W02-1036'
p241
aS'W02-1031'
p242
aS'N04-1020'
p243
aS'W02-1033'
p244
aS'W02-1039'
p245
aS'W10-1603'
p246
aS'P13-1152'
p247
aS'E99-1028'
p248
aS'P10-1158'
p249
aS'P05-1012'
p250
aS'P05-1013'
p251
aS'P05-1011'
p252
aS'N01-1023'
p253
aS'W03-1602'
p254
aS'S12-1024'
p255
aS'P07-1115'
p256
aS'P11-2123'
p257
aS'N07-2014'
p258
aS'W00-0738'
p259
aS'W00-0733'
p260
aS'W00-0737'
p261
aS'W00-0734'
p262
aS'C92-3159'
p263
aS'C92-3152'
p264
aS'H93-1038'
p265
aS'C92-3154'
p266
aS'A00-2041'
p267
aS'W04-0308'
p268
aS'H01-1020'
p269
aS'H01-1027'
p270
aS'H01-1024'
p271
aS'H01-1028'
p272
aS'C88-1028'
p273
aS'H94-1084'
p274
aS'W00-0605'
p275
aS'W04-3112'
p276
aS'W04-3110'
p277
aS'W04-2411'
p278
aS'E12-1050'
p279
aS'I05-1034'
p280
aS'L08-1012'
p281
aS'P07-1061'
p282
aS'W12-3156'
p283
aS'P07-1063'
p284
aS'P07-1062'
p285
aS'L08-1571'
p286
aS'N03-2027'
p287
aS'N03-2024'
p288
aS'N03-2025'
p289
aS'D12-1079'
p290
aS'N03-3006'
p291
aS'P98-1004'
p292
aS'W08-1701'
p293
aS'P98-1001'
p294
aS'W08-1708'
p295
aS'N03-3009'
p296
aS'C08-1006'
p297
aS'C08-1005'
p298
aS'C90-3095'
p299
aS'D10-1071'
p300
aS'W97-0702'
p301
aS'W97-0704'
p302
aS'J92-1001'
p303
aS'P12-1026'
p304
aS'C96-1011'
p305
aS'W13-2302'
p306
aS'J96-2002'
p307
aS'L08-1115'
p308
aS'J96-2001'
p309
aS'W11-2024'
p310
aS'W07-1209'
p311
aS'P08-2054'
p312
aS'P08-2056'
p313
aS'W93-0210'
p314
aS'P10-2014'
p315
aS'W01-1605'
p316
aS'L08-1399'
p317
aS'C08-1134'
p318
aS'C02-1033'
p319
aS'A92-1040'
p320
aS'I05-6008'
p321
aS'N09-1073'
p322
aS'P04-2008'
p323
aS'W01-0814'
p324
aS'W01-0815'
p325
aS'E09-1048'
p326
aS'J04-3001'
p327
aS'W01-0810'
p328
aS'C94-2122'
p329
aS'W01-0813'
p330
aS'W07-2085'
p331
aS'W07-0813'
p332
aS'C04-1058'
p333
aS'C04-1054'
p334
aS'C04-1055'
p335
aS'C04-1056'
p336
aS'I05-2022'
p337
aS'C04-1052'
p338
aS'E03-1071'
p339
aS'W12-2027'
p340
aS'J86-3002'
p341
aS'L08-1596'
p342
aS'W01-0701'
p343
aS'W01-0704'
p344
aS'W01-0706'
p345
aS'W01-0707'
p346
aS'W01-0708'
p347
aS'P06-1044'
p348
aS'P93-1024'
p349
aS'P93-1021'
p350
aS'W11-1422'
p351
aS'J07-3004'
p352
aS'W10-3602'
p353
aS'W03-1402'
p354
aS'E85-1030'
p355
aS'W11-2602'
p356
aS'C10-1081'
p357
aS'P06-2038'
p358
aS'W06-2402'
p359
aS'W06-2403'
p360
aS'P03-1038'
p361
aS'W09-1008'
p362
aS'P03-1033'
p363
aS'P03-1031'
p364
aS'C92-2122'
p365
aS'P00-1054'
p366
aS'P00-1058'
p367
aS'W09-0715'
p368
aS'W03-1205'
p369
aS'W03-1206'
p370
aS'W03-1207'
p371
aS'I08-2096'
p372
aS'W03-1203'
p373
aS'P10-1095'
p374
aS'P10-1096'
p375
aS'C94-2208'
p376
aS'W03-2008'
p377
aS'A88-1030'
p378
aS'A88-1031'
p379
aS'A88-1032'
p380
aS'E93-1046'
p381
aS'A88-1034'
p382
aS'N04-1030'
p383
aS'N04-1036'
p384
aS'W02-1027'
p385
aS'W10-2902'
p386
aS'W02-1024'
p387
aS'W02-1023'
p388
aS'W02-1022'
p389
aS'C94-2167'
p390
aS'W02-1029'
p391
aS'W97-0812'
p392
aS'W03-1020'
p393
aS'W10-1617'
p394
aS'W04-0705'
p395
aS'W04-0704'
p396
aS'W03-0108'
p397
aS'P11-2067'
p398
aS'P04-3022'
p399
aS'W99-0621'
p400
aS'W03-0106'
p401
aS'W03-0107'
p402
aS'P05-1004'
p403
aS'P05-1007'
p404
aS'P05-1006'
p405
aS'W12-4509'
p406
aS'P97-1020'
p407
aS'P04-1087'
p408
aS'P97-1023'
p409
aS'P04-1082'
p410
aS'P06-3004'
p411
aS'W00-1017'
p412
aS'S12-1031'
p413
aS'P97-1029'
p414
aS'P06-3009'
p415
aS'S12-1035'
p416
aS'W08-0625'
p417
aS'W05-1525'
p418
aS'W05-1529'
p419
aS'A97-1030'
p420
aS'A97-1031'
p421
aS'A97-1032'
p422
aS'A97-1033'
p423
aS'A97-1034'
p424
aS'A97-1035'
p425
aS'A97-1036'
p426
aS'A97-1037'
p427
aS'A97-1038'
p428
aS'N07-2027'
p429
aS'N07-2025'
p430
aS'C04-1010'
p431
aS'W00-0726'
p432
aS'W00-0721'
p433
aS'C92-3143'
p434
aS'W06-1320'
p435
aS'C92-3145'
p436
aS'H93-1034'
p437
aS'W04-0808'
p438
aS'W04-0809'
p439
aS'W04-0805'
p440
aS'H90-1052'
p441
aS'H90-1055'
p442
aS'H90-1057'
p443
aS'W10-1831'
p444
aS'L08-1323'
p445
aS'H86-1009'
p446
aS'J00-4004'
p447
aS'J00-4003'
p448
aS'J00-4002'
p449
aS'J00-4001'
p450
aS'W07-2108'
p451
aS'I05-1009'
p452
aS'I05-1006'
p453
aS'W97-1007'
p454
aS'C00-1085'
p455
aS'C00-1081'
p456
aS'J99-2002'
p457
aS'J11-4005'
p458
aS'J11-4007'
p459
aS'J11-4006'
p460
aS'W01-1513'
p461
aS'L08-1567'
p462
aS'L08-1566'
p463
aS'N03-2030'
p464
aS'P98-1031'
p465
aS'P98-1034'
p466
aS'C08-1038'
p467
aS'W04-2007'
p468
aS'D10-1069'
p469
aS'D10-1068'
p470
aS'D10-1067'
p471
aS'W05-0807'
p472
aS'W05-0805'
p473
aS'P03-2041'
p474
aS'W07-1211'
p475
aS'W07-1217'
p476
aS'P98-1108'
p477
aS'W07-1214'
p478
aS'W07-1219'
p479
aS'W08-1007'
p480
aS'W08-1005'
p481
aS'L08-1292'
p482
aS'C08-1109'
p483
aS'C08-1106'
p484
aS'W99-0707'
p485
aS'P10-3001'
p486
aS'C08-1103'
p487
aS'W99-0703'
p488
aS'C02-1021'
p489
aS'C02-1026'
p490
aS'C02-1025'
p491
aS'W97-0602'
p492
aS'W97-0606'
p493
aS'N09-1062'
p494
aS'W01-0807'
p495
aS'E09-1058'
p496
aS'W04-3215'
p497
aS'E09-1057'
p498
aS'P89-1015'
p499
aS'P89-1012'
p500
aS'P89-1013'
p501
aS'P83-1001'
p502
aS'W01-0808'
p503
aS'D11-1149'
p504
aS'W07-0804'
p505
aS'W04-3217'
p506
aS'C04-1040'
p507
aS'C92-1033'
p508
aS'C92-1038'
p509
aS'W01-1626'
p510
aS'W11-1502'
p511
aS'H05-1035'
p512
aS'W01-0717'
p513
aS'W01-0714'
p514
aS'C94-1024'
p515
aS'C94-1025'
p516
aS'C94-1027'
p517
aS'J11-2001'
p518
aS'W09-1701'
p519
aS'W09-1707'
p520
aS'P93-1035'
p521
aS'P93-1033'
p522
aS'P11-1045'
p523
aS'W11-1412'
p524
aS'P11-1041'
p525
aS'W11-1411'
p526
aS'N06-2050'
p527
aS'P07-1102'
p528
aS'J83-1003'
p529
aS'P06-2022'
p530
aS'W98-1414'
p531
aS'P03-1029'
p532
aS'P03-1020'
p533
aS'P13-4018'
p534
aS'P03-1022'
p535
aS'P00-1024'
p536
aS'N07-1053'
p537
aS'N07-1051'
p538
aS'P07-1104'
p539
aS'P00-1023'
p540
aS'W06-3327'
p541
aS'W06-3325'
p542
aS'P00-1029'
p543
aS'W06-1632'
p544
aS'E03-1040'
p545
aS'W10-3504'
p546
aS'N07-2002'
p547
aS'P91-1023'
p548
aS'P07-1109'
p549
aS'P10-1089'
p550
aS'W03-1210'
p551
aS'A94-1008'
p552
aS'W07-2053'
p553
aS'P10-1080'
p554
aS'W06-2303'
p555
aS'W06-2305'
p556
aS'D07-1030'
p557
aS'A88-1023'
p558
aS'A88-1022'
p559
aS'A88-1021'
p560
aS'A88-1020'
p561
aS'A88-1027'
p562
aS'A88-1026'
p563
aS'W02-1010'
p564
aS'A88-1028'
p565
aS'W02-1016'
p566
aS'W02-1017'
p567
aS'W02-1015'
p568
aS'W05-1604'
p569
aS'W05-1602'
p570
aS'W05-1603'
p571
aS'W11-0610'
p572
aS'A97-2003'
p573
aS'W03-1509'
p574
aS'W03-1502'
p575
aS'W03-1505'
p576
aS'I08-2130'
p577
aS'I08-2133'
p578
aS'W02-0308'
p579
aS'W02-0305'
p580
aS'W02-0304'
p581
aS'W02-0306'
p582
aS'P05-2004'
p583
aS'P06-3014'
p584
aS'W05-1518'
p585
aS'P97-1030'
p586
aS'P05-2001'
p587
aS'E87-1038'
p588
aS'W11-0103'
p589
aS'W05-1513'
p590
aS'W05-1510'
p591
aS'W05-1511'
p592
aS'W05-1516'
p593
aS'W05-1517'
p594
aS'W05-1514'
p595
aS'W05-1515'
p596
aS'W96-0101'
p597
aS'W98-1118'
p598
aS'W98-1114'
p599
aS'W98-1117'
p600
aS'W98-1110'
p601
aS'W98-1111'
p602
aS'W98-1112'
p603
aS'C10-2014'
p604
aS'D09-1149'
p605
aS'C10-2016'
p606
aS'A97-1020'
p607
aS'A97-1027'
p608
aS'A97-1026'
p609
aS'A97-1025'
p610
aS'C10-2013'
p611
aS'D09-1141'
p612
aS'A97-1029'
p613
aS'A97-1028'
p614
aS'C10-2018'
p615
aS'W03-0808'
p616
aS'N01-1013'
p617
aS'N01-1014'
p618
aS'N01-1016'
p619
aS'W03-0801'
p620
aS'W03-0807'
p621
aS'W03-0806'
p622
aS'H93-1008'
p623
aS'A97-2007'
p624
aS'C02-1143'
p625
aS'W91-0216'
p626
aS'W04-0816'
p627
aS'W04-0815'
p628
aS'W04-3253'
p629
aS'W97-0608'
p630
aS'W04-0810'
p631
aS'P95-1006'
p632
aS'E03-3004'
p633
aS'P95-1008'
p634
aS'P98-2136'
p635
aS'P98-2134'
p636
aS'P98-2131'
p637
aS'I05-5004'
p638
aS'I05-5005'
p639
aS'I05-1011'
p640
aS'I05-1010'
p641
aS'I05-1013'
p642
aS'E99-1040'
p643
aS'I05-1014'
p644
aS'I05-1017'
p645
aS'I05-1018'
p646
aS'E12-1030'
p647
aS'P07-1080'
p648
aS'N10-1003'
p649
aS'N10-1002'
p650
aS'N10-1005'
p651
aS'N10-1004'
p652
aS'N10-1006'
p653
aS'P98-1023'
p654
aS'L08-1357'
p655
aS'C08-1025'
p656
aS'C08-1027'
p657
aS'C08-1026'
p658
aS'N07-1029'
p659
aS'P96-1050'
p660
aS'W01-0802'
p661
aS'W11-1607'
p662
aS'H01-1009'
p663
aS'C96-1034'
p664
aS'P13-2084'
p665
aS'P13-2083'
p666
aS'W11-1605'
p667
aS'E06-3003'
p668
aS'W07-1516'
p669
aS'W06-1402'
p670
aS'H01-1006'
p671
aS'W06-1803'
p672
aS'A00-2025'
p673
aS'W97-0505'
p674
aS'W06-1807'
p675
aS'L08-1133'
p676
aS'L08-1136'
p677
aS'P98-1112'
p678
aS'P89-1010'
p679
aS'W07-1220'
p680
aS'P98-1116'
p681
aS'P98-1118'
p682
aS'W07-0605'
p683
aS'W07-0604'
p684
aS'C02-1016'
p685
aS'C02-1013'
p686
aS'C02-1011'
p687
aS'W08-0325'
p688
aS'W05-0905'
p689
aS'W12-3407'
p690
aS'P96-1018'
p691
aS'C04-1074'
p692
aS'C04-1075'
p693
aS'C04-1079'
p694
aS'D11-1132'
p695
aS'W99-0602'
p696
aS'W99-0603'
p697
aS'J10-1005'
p698
aS'C94-1032'
p699
aS'W99-0608'
p700
aS'J10-1003'
p701
aS'H05-1028'
p702
aS'P93-1003'
p703
aS'P05-2005'
p704
aS'P93-1005'
p705
aS'W01-0907'
p706
aS'W13-2501'
p707
aS'P06-2019'
p708
aS'P06-2012'
p709
aS'D07-1095'
p710
aS'P06-2010'
p711
aS'C10-1061'
p712
aS'C10-1062'
p713
aS'W06-2937'
p714
aS'J99-4005'
p715
aS'P13-4003'
p716
aS'J99-4003'
p717
aS'C94-2108'
p718
aS'W06-3402'
p719
aS'W93-0111'
p720
aS'C94-2106'
p721
aS'W06-3408'
p722
aS'P00-1037'
p723
aS'P00-1036'
p724
aS'P00-1035'
p725
aS'W09-1607'
p726
aS'E03-1058'
p727
aS'E03-1052'
p728
aS'E03-1051'
p729
aS'X96-1024'
p730
aS'N13-1072'
p731
aS'W08-1801'
p732
aS'W01-0712'
p733
aS'P97-1010'
p734
aS'C04-1092'
p735
aS'C04-1094'
p736
aS'C04-1095'
p737
aS'C04-1097'
p738
aS'P10-1058'
p739
aS'A88-1014'
p740
aS'A88-1015'
p741
aS'W02-1009'
p742
aS'A88-1013'
p743
aS'A88-1010'
p744
aS'A88-1011'
p745
aS'P10-1050'
p746
aS'W02-1004'
p747
aS'W02-1007'
p748
aS'W02-1006'
p749
aS'A88-1018'
p750
aS'W02-1002'
p751
aS'C92-2099'
p752
aS'A00-1030'
p753
aS'A00-1031'
p754
aS'A00-1032'
p755
aS'A00-1033'
p756
aS'A00-1034'
p757
aS'A00-1035'
p758
aS'A00-1036'
p759
aS'A00-1038'
p760
aS'A00-1039'
p761
aS'J90-3003'
p762
aS'W11-2408'
p763
aS'W04-2407'
p764
aS'W06-2201'
p765
aS'W94-0109'
p766
aS'P05-2016'
p767
aS'P05-2015'
p768
aS'W05-1509'
p769
aS'P05-2012'
p770
aS'P05-2011'
p771
aS'W05-1506'
p772
aS'P97-1008'
p773
aS'W04-1712'
p774
aS'W98-1105'
p775
aS'W02-1109'
p776
aS'A97-1016'
p777
aS'A97-1017'
p778
aS'A97-1014'
p779
aS'A97-1015'
p780
aS'E06-1047'
p781
aS'N07-2041'
p782
aS'A97-1010'
p783
aS'N07-2043'
p784
aS'D09-1152'
p785
aS'A97-1018'
p786
aS'A97-1019'
p787
aS'N01-1003'
p788
aS'N01-1001'
p789
aS'M91-1026'
p790
aS'M91-1021'
p791
aS'N01-1006'
p792
aS'P03-1054'
p793
aS'P08-1087'
p794
aS'W06-1602'
p795
aS'C92-3160'
p796
aS'W06-1306'
p797
aS'P03-1056'
p798
aS'W06-1304'
p799
aS'W02-0208'
p800
aS'W02-0209'
p801
aS'W00-1107'
p802
aS'W00-1104'
p803
aS'W02-2022'
p804
aS'W04-0824'
p805
aS'W04-0829'
p806
aS'N09-2061'
p807
aS'H90-1070'
p808
aS'W04-3244'
p809
aS'P95-1017'
p810
aS'J98-1005'
p811
aS'A94-1002'
p812
aS'W10-1812'
p813
aS'A94-1004'
p814
aS'A94-1005'
p815
aS'A94-1006'
p816
aS'A94-1007'
p817
aS'C10-2133'
p818
aS'A94-1009'
p819
aS'W13-2102'
p820
aS'W13-4913'
p821
aS'P98-2123'
p822
aS'W13-4917'
p823
aS'A97-1007'
p824
aS'I05-1066'
p825
aS'W00-1211'
p826
aS'H91-1026'
p827
aS'H91-1021'
p828
aS'P96-1041'
p829
aS'W04-2707'
p830
aS'P96-1042'
p831
aS'P96-1045'
p832
aS'P96-1048'
p833
aS'W04-2709'
p834
aS'W05-0828'
p835
aS'W03-0613'
p836
aS'P03-2021'
p837
aS'P12-1071'
p838
aS'H01-1074'
p839
aS'A88-1006'
p840
aS'J05-1003'
p841
aS'J05-1002'
p842
aS'P08-3008'
p843
aS'J05-1005'
p844
aS'J05-1004'
p845
aS'C90-3064'
p846
aS'C90-3063'
p847
aS'P08-2068'
p848
aS'P09-3007'
p849
aS'P06-1135'
p850
aS'W02-0907'
p851
aS'P06-1130'
p852
aS'P06-1132'
p853
aS'D13-1146'
p854
aS'P12-1108'
p855
aS'W12-1911'
p856
aS'P12-1101'
p857
aS'W97-0409'
p858
aS'W13-2221'
p859
aS'C08-1015'
p860
aS'C04-1067'
p861
aS'C04-1066'
p862
aS'W01-0511'
p863
aS'P02-1002'
p864
aS'P02-1005'
p865
aS'P02-1006'
p866
aS'P11-4013'
p867
aS'P04-2011'
p868
aS'C92-1055'
p869
aS'D08-1050'
p870
aS'D08-1052'
p871
aS'P06-1040'
p872
aS'P06-1041'
p873
aS'W99-0615'
p874
aS'P06-1043'
p875
aS'W99-0613'
p876
aS'W99-0612'
p877
aS'P06-1048'
p878
aS'W05-0104'
p879
aS'C08-1018'
p880
aS'P11-1061'
p881
aS'W09-0103'
p882
aS'P11-1065'
p883
aS'P00-1027'
p884
aS'D07-1088'
p885
aS'P06-2004'
p886
aS'D07-1084'
p887
aS'D07-1082'
p888
aS'W93-0109'
p889
aS'W93-0108'
p890
aS'W06-2920'
p891
aS'D11-1054'
p892
aS'W93-0104'
p893
aS'W93-0107'
p894
aS'E93-1062'
p895
aS'C94-2118'
p896
aS'W99-0107'
p897
aS'W99-0104'
p898
aS'E03-2012'
p899
aS'E03-2010'
p900
aS'J95-2004'
p901
aS'J95-2001'
p902
aS'W11-1501'
p903
aS'W13-2408'
p904
aS'W11-1503'
p905
aS'W06-1654'
p906
aS'E03-1068'
p907
aS'E03-1064'
p908
aS'P91-1027'
p909
aS'J04-1001'
p910
aS'J04-1003'
p911
aS'I08-7003'
p912
aS'N06-2019'
p913
aS'P09-2064'
p914
aS'W96-0109'
p915
aS'W96-0102'
p916
aS'C04-1082'
p917
aS'W06-3504'
p918
aS'C04-1080'
p919
aS'W06-3502'
p920
aS'W06-3503'
p921
aS'C92-2085'
p922
aS'E03-1041'
p923
aS'C92-2089'
p924
aS'N09-3017'
p925
aS'J97-2002'
p926
aS'A00-1023'
p927
aS'A00-1022'
p928
aS'A00-1021'
p929
aS'A00-1020'
p930
aS'A00-1026'
p931
aS'A00-1025'
p932
aS'A00-1024'
p933
aS'D09-1012'
p934
aS'A00-1028'
p935
aS'J87-1007'
p936
aS'I08-2118'
p937
aS'P00-1007'
p938
aS'J06-1004'
p939
aS'J06-1005'
p940
aS'J06-1002'
p941
aS'P05-2023'
p942
aS'A94-1014'
p943
aS'P05-2026'
p944
aS'P97-1016'
p945
aS'W10-2209'
p946
aS'N12-1064'
p947
aS'W94-0107'
p948
aS'W02-1108'
p949
aS'W94-0101'
p950
aS'W94-0103'
p951
aS'A97-1008'
p952
aS'W03-1211'
p953
aS'C10-2032'
p954
aS'A97-1003'
p955
aS'A97-1004'
p956
aS'J98-1003'
p957
aS'A97-1006'
p958
aS'A88-1009'
p959
aS'A88-1008'
p960
aS'P98-2191'
p961
aS'A88-1003'
p962
aS'A88-1002'
p963
aS'A88-1004'
p964
aS'A88-1007'
p965
aS'D09-1161'
p966
aS'J99-3001'
p967
aS'N01-1030'
p968
aS'W06-1314'
p969
aS'W02-0211'
p970
aS'W06-1313'
p971
aS'W02-1610'
p972
aS'W07-2057'
p973
aS'P07-1051'
p974
aS'W04-0834'
p975
aS'W04-0832'
p976
aS'H90-1069'
p977
aS'A94-1013'
p978
aS'A94-1012'
p979
aS'A94-1011'
p980
aS'A94-1010'
p981
aS'A94-1016'
p982
aS'W98-1001'
p983
aS'C10-2106'
p984
aS'A94-1019'
p985
aS'A94-1018'
p986
aS'C10-2103'
p987
aS'W13-4901'
p988
aS'P98-2153'
p989
aS'P98-2159'
p990
aS'W08-1122'
p991
aS'W06-1008'
p992
aS'W03-0910'
p993
aS'W00-1201'
p994
aS'C00-1051'
p995
aS'I05-1075'
p996
aS'C00-1055'
p997
aS'I05-1071'
p998
aS'W05-0211'
p999
aS'C00-1058'
p1000
aS'W09-2403'
p1001
aS'E12-1018'
p1002
aS'H91-1034'
p1003
aS'H91-1037'
p1004
aS'W04-1903'
p1005
aS'W07-1407'
p1006
aS'N10-1061'
p1007
aS'C88-2166'
p1008
aS'P96-1030'
p1009
aS'C88-2160'
p1010
aS'W09-0809'
p1011
aS'W06-1614'
p1012
aS'P96-1039'
p1013
aS'P99-1009'
p1014
aS'J08-2001'
p1015
aS'P99-1004'
p1016
aS'W13-3613'
p1017
aS'W10-4218'
p1018
aS'H01-1069'
p1019
aS'H01-1067'
p1020
aS'W10-4216'
p1021
aS'A88-1029'
p1022
aS'C90-3071'
p1023
aS'C90-3077'
p1024
aS'L08-1489'
p1025
aS'C00-1052'
p1026
aS'P08-3010'
p1027
aS'W04-2609'
p1028
aS'P89-1021'
p1029
aS'W04-2605'
p1030
aS'W04-2606'
p1031
aS'W04-2602'
p1032
aS'W11-0809'
p1033
aS'W06-0205'
p1034
aS'W06-0206'
p1035
aS'C02-1077'
p1036
aS'J89-1003'
p1037
aS'W11-0804'
p1038
aS'C02-1073'
p1039
aS'E09-1087'
p1040
aS'W97-0411'
p1041
aS'W05-1601'
p1042
aS'L08-1064'
p1043
aS'W04-1122'
p1044
aS'P02-1018'
p1045
aS'D11-1116'
p1046
aS'D11-1117'
p1047
aS'D11-1115'
p1048
aS'W10-1313'
p1049
aS'P11-4005'
p1050
aS'D11-1119'
p1051
aS'W10-4145'
p1052
aS'P02-1015'
p1053
aS'P04-2003'
p1054
aS'H05-1009'
p1055
aS'W01-1610'
p1056
aS'W99-0622'
p1057
aS'W99-0623'
p1058
aS'P04-2009'
p1059
aS'C10-1100'
p1060
aS'H05-1001'
p1061
aS'H05-1003'
p1062
aS'C02-1101'
p1063
aS'P06-1051'
p1064
aS'P06-1050'
p1065
aS'P06-1055'
p1066
aS'W12-1010'
p1067
aS'P06-1059'
p1068
aS'W98-0211'
p1069
aS'A97-1042'
p1070
aS'P11-1074'
p1071
aS'H89-2031'
p1072
aS'J11-3001'
p1073
aS'J11-3002'
p1074
aS'P03-1009'
p1075
aS'D11-1066'
p1076
aS'N07-3002'
p1077
aS'W06-2914'
p1078
aS'W06-2912'
p1079
aS'W06-2913'
p1080
aS'D11-1061'
p1081
aS'W01-1503'
p1082
aS'W01-1505'
p1083
aS'W04-1218'
p1084
aS'W98-0501'
p1085
aS'W98-0503'
p1086
aS'W96-0203'
p1087
aS'W96-0205'
p1088
aS'W96-0207'
p1089
aS'W96-0206'
p1090
aS'W96-0209'
p1091
aS'W96-0208'
p1092
aS'I08-1016'
p1093
aS'W11-1512'
p1094
aS'E03-1073'
p1095
aS'E03-1072'
p1096
aS'N13-1095'
p1097
aS'E03-1076'
p1098
aS'P91-1030'
p1099
aS'A97-2002'
p1100
aS'W13-2416'
p1101
aS'C10-1026'
p1102
aS'P91-1037'
p1103
aS'P91-1036'
p1104
aS'P06-2104'
p1105
aS'W03-1004'
p1106
aS'P06-2100'
p1107
aS'J13-3006'
p1108
aS'P06-2109'
p1109
aS'H05-1033'
p1110
aS'D11-1002'
p1111
aS'W96-0114'
p1112
aS'P97-1036'
p1113
aS'W96-0111'
p1114
aS'W96-0113'
p1115
aS'I05-2036'
p1116
aS'P10-1074'
p1117
aS'P10-1075'
p1118
aS'N09-3008'
p1119
aS'C96-2192'
p1120
aS'A00-1016'
p1121
aS'A00-1017'
p1122
aS'P07-2057'
p1123
aS'W13-2702'
p1124
aS'A00-1012'
p1125
aS'A00-1013'
p1126
aS'P07-2053'
p1127
aS'A00-1011'
p1128
aS'C00-2089'
p1129
aS'W08-1910'
p1130
aS'A00-1018'
p1131
aS'A00-1019'
p1132
aS'I08-2101'
p1133
aS'D07-1059'
p1134
aS'P96-1037'
p1135
aS'I08-2107'
p1136
aS'W04-2003'
p1137
aS'P00-1015'
p1138
aS'P00-1016'
p1139
aS'D07-1054'
p1140
aS'P00-1010'
p1141
aS'W00-0505'
p1142
aS'N03-1035'
p1143
aS'W00-0507'
p1144
aS'N03-4005'
p1145
aS'N03-1030'
p1146
aS'N03-1031'
p1147
aS'N03-1033'
p1148
aS'P97-1065'
p1149
aS'W06-2002'
p1150
aS'W06-2005'
p1151
aS'J02-3002'
p1152
aS'W07-1601'
p1153
aS'W02-1113'
p1154
aS'W02-0813'
p1155
aS'W05-1616'
p1156
aS'W94-0111'
p1157
aS'W98-1124'
p1158
aS'J03-3001'
p1159
aS'W98-1120'
p1160
aS'J03-3005'
p1161
aS'J03-3004'
p1162
aS'J01-1003'
p1163
aS'P08-1067'
p1164
aS'S10-1083'
p1165
aS'J08-1002'
p1166
aS'W02-1605'
p1167
aS'P95-1039'
p1168
aS'P95-1038'
p1169
aS'P97-1032'
p1170
aS'N09-2048'
p1171
aS'P95-1036'
p1172
aS'P97-1031'
p1173
aS'P95-1033'
p1174
aS'A94-1026'
p1175
aS'A94-1027'
p1176
aS'A94-1024'
p1177
aS'A94-1025'
p1178
aS'A94-1028'
p1179
aS'A94-1029'
p1180
aS'P98-2145'
p1181
aS'P98-2143'
p1182
aS'P98-2142'
p1183
aS'W06-1668'
p1184
aS'P03-2033'
p1185
aS'W07-0726'
p1186
aS'W08-1133'
p1187
aS'P98-2149'
p1188
aS'W05-0208'
p1189
aS'C02-2018'
p1190
aS'E99-1018'
p1191
aS'W05-0201'
p1192
aS'E99-1016'
p1193
aS'P97-1039'
p1194
aS'W05-0207'
p1195
aS'C02-2014'
p1196
aS'C00-1042'
p1197
aS'C00-1041'
p1198
aS'C00-1040'
p1199
aS'C00-1046'
p1200
aS'W12-0513'
p1201
aS'C00-1044'
p1202
aS'W05-1303'
p1203
aS'P05-2009'
p1204
aS'N01-1029'
p1205
aS'P01-1039'
p1206
aS'W98-1309'
p1207
aS'N01-1020'
p1208
aS'P01-1032'
p1209
aS'N01-1025'
p1210
aS'P01-1035'
p1211
aS'N01-1027'
p1212
aS'P01-1037'
p1213
aS'J07-4004'
p1214
aS'W02-0815'
p1215
aS'L08-1324'
p1216
aS'P11-3002'
p1217
aS'I08-1071'
p1218
aS'P96-1025'
p1219
aS'W98-0304'
p1220
aS'P96-1021'
p1221
aS'P96-1020'
p1222
aS'W02-1905'
p1223
aS'W02-1907'
p1224
aS'W02-1902'
p1225
aS'W00-1308'
p1226
aS'W00-1309'
p1227
aS'P99-1019'
p1228
aS'P99-1018'
p1229
aS'W06-1105'
p1230
aS'W13-3609'
p1231
aS'W06-1107'
p1232
aS'W00-1301'
p1233
aS'W00-1303'
p1234
aS'J12-3005'
p1235
aS'H01-1052'
p1236
aS'W07-1527'
p1237
aS'H01-1055'
p1238
aS'W10-4205'
p1239
aS'W07-1709'
p1240
aS'L08-1490'
p1241
aS'W04-1007'
p1242
aS'W04-1006'
p1243
aS'W07-1707'
p1244
aS'J05-2005'
p1245
aS'W07-1701'
p1246
aS'W07-1702'
p1247
aS'L08-1251'
p1248
aS'P94-1013'
p1249
aS'P08-2002'
p1250
aS'C08-1141'
p1251
aS'D13-1155'
p1252
aS'C08-1144'
p1253
aS'W04-2610'
p1254
aS'A97-1023'
p1255
aS'P06-1117'
p1256
aS'C02-1068'
p1257
aS'A97-2005'
p1258
aS'W03-0704'
p1259
aS'C02-1064'
p1260
aS'A97-1021'
p1261
aS'W97-0314'
p1262
aS'N10-1058'
p1263
aS'W97-0312'
p1264
aS'D12-1028'
p1265
aS'D12-1027'
p1266
aS'A97-1051'
p1267
aS'W97-0318'
p1268
aS'W07-1414'
p1269
aS'E95-1021'
p1270
aS'W04-1017'
p1271
aS'N04-3002'
p1272
aS'A97-1024'
p1273
aS'N10-1116'
p1274
aS'W08-0406'
p1275
aS'W08-0401'
p1276
aS'P02-1026'
p1277
aS'P02-1027'
p1278
aS'W10-4150'
p1279
aS'P02-1022'
p1280
aS'W99-0635'
p1281
aS'W99-0634'
p1282
aS'W99-0631'
p1283
aS'W99-0632'
p1284
aS'W02-1112'
p1285
aS'C02-1112'
p1286
aS'P06-1064'
p1287
aS'C02-1110'
p1288
aS'C02-1115'
p1289
aS'P06-2048'
p1290
aS'W06-0508'
p1291
aS'D08-1091'
p1292
aS'J11-2002'
p1293
aS'N01-1011'
p1294
aS'W08-0111'
p1295
aS'A97-1054'
p1296
aS'M91-1036'
p1297
aS'W06-2903'
p1298
aS'C10-1054'
p1299
aS'P92-1032'
p1300
aS'P92-1034'
p1301
aS'H05-1102'
p1302
aS'E09-1090'
p1303
aS'E09-1092'
p1304
aS'J93-3003'
p1305
aS'I08-5010'
p1306
aS'I08-5015'
p1307
aS'I08-1002'
p1308
aS'E03-1005'
p1309
aS'E03-1006'
p1310
aS'P01-1036'
p1311
aS'W06-1670'
p1312
aS'E03-1003'
p1313
aS'A97-2017'
p1314
aS'A97-2016'
p1315
aS'I05-1084'
p1316
aS'W01-1403'
p1317
aS'W96-0309'
p1318
aS'J00-3004'
p1319
aS'J00-3005'
p1320
aS'J00-3003'
p1321
aS'P10-1068'
p1322
aS'W96-0303'
p1323
aS'W96-0305'
p1324
aS'W96-0306'
p1325
aS'A00-1009'
p1326
aS'A00-1008'
p1327
aS'J89-1001'
p1328
aS'W11-0324'
p1329
aS'A00-1002'
p1330
aS'A00-1005'
p1331
aS'A00-1004'
p1332
aS'A00-1007'
p1333
aS'A00-1006'
p1334
aS'C00-2097'
p1335
aS'C00-2099'
p1336
aS'N03-1027'
p1337
aS'N03-1026'
p1338
aS'N03-1024'
p1339
aS'N03-1029'
p1340
aS'N12-1007'
p1341
aS'N07-1072'
p1342
aS'P13-1085'
p1343
aS'E06-1011'
p1344
aS'E06-1012'
p1345
aS'D09-1103'
p1346
aS'W02-0507'
p1347
aS'D09-1108'
p1348
aS'P13-1068'
p1349
aS'P08-1077'
p1350
aS'W00-0404'
p1351
aS'E06-3004'
p1352
aS'W04-1505'
p1353
aS'J99-2004'
p1354
aS'W04-0508'
p1355
aS'P06-2086'
p1356
aS'W04-3214'
p1357
aS'N09-2054'
p1358
aS'W10-2310'
p1359
aS'W04-3210'
p1360
aS'A94-1030'
p1361
aS'A94-1032'
p1362
aS'A94-1035'
p1363
aS'A94-1037'
p1364
aS'C96-2148'
p1365
aS'C10-2168'
p1366
aS'W08-2102'
p1367
aS'W08-2101'
p1368
aS'C96-2147'
p1369
aS'W98-1205'
p1370
aS'W98-1207'
p1371
aS'J09-2003'
p1372
aS'W98-1208'
p1373
aS'W00-0310'
p1374
aS'W00-0311'
p1375
aS'W00-0312'
p1376
aS'I05-1057'
p1377
aS'E99-1001'
p1378
aS'C00-1077'
p1379
aS'C00-1075'
p1380
aS'P04-1030'
p1381
aS'C90-2051'
p1382
aS'P01-1023'
p1383
aS'P01-1022'
p1384
aS'J85-1001'
p1385
aS'P01-1026'
p1386
aS'L08-1310'
p1387
aS'P11-3014'
p1388
aS'P96-1010'
p1389
aS'W11-2306'
p1390
aS'W06-1111'
p1391
aS'L08-1140'
p1392
aS'W05-0304'
p1393
aS'J94-2001'
p1394
aS'P03-2012'
p1395
aS'P99-1026'
p1396
aS'P12-1044'
p1397
aS'P99-1024'
p1398
aS'W00-1316'
p1399
aS'P11-4002'
p1400
aS'H01-1045'
p1401
aS'W10-4237'
p1402
aS'H01-1043'
p1403
aS'P98-2176'
p1404
aS'P98-2175'
p1405
aS'N10-1131'
p1406
aS'C90-3010'
p1407
aS'P08-2030'
p1408
aS'P08-2035'
p1409
aS'L08-1267'
p1410
aS'H92-1023'
p1411
aS'H92-1022'
p1412
aS'H92-1026'
p1413
aS'H92-1025'
p1414
aS'P06-1104'
p1415
aS'P06-1102'
p1416
aS'D08-1108'
p1417
aS'P06-1109'
p1418
aS'W97-0307'
p1419
aS'W12-0703'
p1420
aS'N10-1044'
p1421
aS'C10-1101'
p1422
aS'L08-1049'
p1423
aS'W99-0626'
p1424
aS'P02-1031'
p1425
aS'W07-1607'
p1426
aS'P11-4021'
p1427
aS'P02-1034'
p1428
aS'P02-1039'
p1429
aS'W03-0432'
p1430
aS'W12-1016'
p1431
aS'P06-1071'
p1432
aS'C02-1126'
p1433
aS'C02-1127'
p1434
aS'C94-1074'
p1435
aS'C94-1073'
p1436
aS'C02-1121'
p1437
aS'A00-2008'
p1438
aS'A00-2009'
p1439
aS'P11-1097'
p1440
aS'E99-1042'
p1441
aS'A00-2001'
p1442
aS'A00-2002'
p1443
aS'A00-2003'
p1444
aS'A00-2004'
p1445
aS'A00-2005'
p1446
aS'A00-2006'
p1447
aS'A00-2007'
p1448
aS'N06-2007'
p1449
aS'C04-1180'
p1450
aS'W08-0308'
p1451
aS'W06-0202'
p1452
aS'J11-2003'
p1453
aS'D11-1005'
p1454
aS'D11-1006'
p1455
aS'W04-1211'
p1456
aS'W08-0307'
p1457
aS'W04-1217'
p1458
aS'W04-1214'
p1459
aS'P92-1023'
p1460
aS'P92-1021'
p1461
aS'W04-2002'
p1462
aS'L08-1447'
p1463
aS'N04-1024'
p1464
aS'W04-2004'
p1465
aS'W04-2005'
p1466
aS'H05-1110'
p1467
aS'H05-1118'
p1468
aS'I08-5005'
p1469
aS'I08-5004'
p1470
aS'I08-5007'
p1471
aS'P84-1116'
p1472
aS'W05-1627'
p1473
aS'W13-1701'
p1474
aS'W06-1667'
p1475
aS'E03-1015'
p1476
aS'C86-1108'
p1477
aS'C96-2209'
p1478
aS'J01-2002'
p1479
aS'W02-2005'
p1480
aS'C96-2203'
p1481
aS'J01-2004'
p1482
aS'W02-2003'
p1483
aS'W01-1415'
p1484
aS'W04-2316'
p1485
aS'W04-2312'
p1486
aS'W04-2311'
p1487
aS'A83-1009'
p1488
aS'A97-1053'
p1489
aS'A83-1002'
p1490
aS'A83-1003'
p1491
aS'A83-1004'
p1492
aS'A83-1006'
p1493
aS'A83-1007'
p1494
aS'P84-1023'
p1495
aS'C94-2174'
p1496
aS'A92-1020'
p1497
aS'A92-1021'
p1498
aS'A92-1022'
p1499
aS'N13-1128'
p1500
aS'A92-1024'
p1501
aS'A92-1025'
p1502
aS'A92-1026'
p1503
aS'A92-1027'
p1504
aS'A92-1028'
p1505
aS'A92-1029'
p1506
aS'A97-1055'
p1507
aS'D07-1078'
p1508
aS'D07-1074'
p1509
aS'C04-1163'
p1510
aS'D07-1072'
p1511
aS'W02-0404'
p1512
aS'W02-0405'
p1513
aS'W02-0402'
p1514
aS'W02-0403'
p1515
aS'W07-1422'
p1516
aS'D12-1055'
p1517
aS'J02-2003'
p1518
aS'A97-1052'
p1519
aS'P12-2001'
p1520
aS'A97-1050'
p1521
aS'P12-2003'
p1522
aS'A97-1056'
p1523
aS'P13-1093'
p1524
aS'P12-2007'
p1525
aS'E06-1005'
p1526
aS'D09-1115'
p1527
aS'A97-1011'
p1528
aS'E93-1019'
p1529
aS'D09-1119'
p1530
aS'P08-1042'
p1531
aS'P08-1040'
p1532
aS'C92-3127'
p1533
aS'W02-0711'
p1534
aS'C04-1001'
p1535
aS'W00-1414'
p1536
aS'W00-1416'
p1537
aS'W00-1417'
p1538
aS'W00-1410'
p1539
aS'W00-1411'
p1540
aS'W03-1701'
p1541
aS'W03-1703'
p1542
aS'W03-1707'
p1543
aS'W03-1706'
p1544
aS'W04-3206'
p1545
aS'W04-3204'
p1546
aS'W04-3203'
p1547
aS'W97-1202'
p1548
aS'A94-1045'
p1549
aS'A94-1046'
p1550
aS'A94-1047'
p1551
aS'A94-1041'
p1552
aS'W04-3209'
p1553
aS'C10-2177'
p1554
aS'C10-2176'
p1555
aS'N03-1018'
p1556
aS'N03-1011'
p1557
aS'C96-2157'
p1558
aS'I05-3005'
p1559
aS'N03-1014'
p1560
aS'W08-1114'
p1561
aS'W98-1211'
p1562
aS'W08-1112'
p1563
aS'C00-1069'
p1564
aS'E99-1031'
p1565
aS'C00-1063'
p1566
aS'P04-1006'
p1567
aS'H91-1061'
p1568
aS'H91-1067'
p1569
aS'H91-1065'
p1570
aS'C90-2044'
p1571
aS'P01-1017'
p1572
aS'P01-1015'
p1573
aS'P01-1012'
p1574
aS'P01-1010'
p1575
aS'C08-1098'
p1576
aS'P96-1008'
p1577
aS'C08-1094'
p1578
aS'P07-1011'
p1579
aS'P96-1006'
p1580
aS'C08-1091'
p1581
aS'P99-1030'
p1582
aS'P99-1033'
p1583
aS'P13-2073'
p1584
aS'W00-1326'
p1585
aS'W00-1327'
p1586
aS'W00-1325'
p1587
aS'W00-1322'
p1588
aS'W00-1323'
p1589
aS'W00-1320'
p1590
aS'W00-1321'
p1591
aS'J12-4006'
p1592
aS'P98-2165'
p1593
aS'N10-1146'
p1594
aS'W98-1415'
p1595
aS'N10-1141'
p1596
aS'N10-1143'
p1597
aS'W10-4006'
p1598
aS'P94-1032'
p1599
aS'N04-2003'
p1600
aS'N04-2002'
p1601
aS'C02-1040'
p1602
aS'N04-2007'
p1603
aS'C02-1042'
p1604
aS'N04-2009'
p1605
aS'H94-1034'
p1606
aS'C96-1036'
p1607
aS'C96-1031'
p1608
aS'L08-1054'
p1609
aS'W10-2416'
p1610
aS'L08-1056'
p1611
aS'P02-1044'
p1612
aS'P02-1045'
p1613
aS'P02-1047'
p1614
aS'W03-0429'
p1615
aS'W03-0428'
p1616
aS'W01-1312'
p1617
aS'W01-1313'
p1618
aS'C02-1138'
p1619
aS'C10-1151'
p1620
aS'I08-1017'
p1621
aS'P06-1004'
p1622
aS'C94-1043'
p1623
aS'P06-1006'
p1624
aS'C02-1132'
p1625
aS'P06-1001'
p1626
aS'C90-3029'
p1627
aS'W97-0208'
p1628
aS'W97-0207'
p1629
aS'W97-0205'
p1630
aS'W97-0202'
p1631
aS'W97-0203'
p1632
aS'W97-0201'
p1633
aS'A00-2019'
p1634
aS'A00-2018'
p1635
aS'A00-2013'
p1636
aS'A00-2012'
p1637
aS'A00-2011'
p1638
aS'A00-2017'
p1639
aS'A00-2016'
p1640
aS'A00-2015'
p1641
aS'A00-2014'
p1642
aS'C04-1191'
p1643
aS'A94-1042'
p1644
aS'C10-1039'
p1645
aS'D11-1017'
p1646
aS'W08-0334'
p1647
aS'C04-1199'
p1648
aS'C10-1030'
p1649
aS'L08-1451'
p1650
aS'L08-1452'
p1651
aS'L08-1454'
p1652
aS'H05-1122'
p1653
aS'W04-2010'
p1654
aS'E93-1026'
p1655
aS'P10-2061'
p1656
aS'J04-4001'
p1657
aS'C92-4209'
p1658
aS'C02-1088'
p1659
aS'W13-2412'
p1660
aS'C92-4200'
p1661
aS'J92-3001'
p1662
aS'P84-1108'
p1663
aS'J93-2005'
p1664
aS'J93-2004'
p1665
aS'J93-2006'
p1666
aS'E03-1026'
p1667
aS'P84-1102'
p1668
aS'E03-1025'
p1669
aS'E09-2012'
p1670
aS'I08-6002'
p1671
aS'W02-2014'
p1672
aS'W02-2010'
p1673
aS'C96-2138'
p1674
aS'J00-2004'
p1675
aS'W96-0414'
p1676
aS'P06-2063'
p1677
aS'W04-2302'
p1678
aS'J06-4003'
p1679
aS'W04-2309'
p1680
aS'A83-1018'
p1681
aS'I05-4001'
p1682
aS'P98-1117'
p1683
aS'A83-1013'
p1684
aS'W11-0303'
p1685
aS'A83-1017'
p1686
aS'A83-1016'
p1687
aS'A83-1015'
p1688
aS'A83-1014'
p1689
aS'W00-0709'
p1690
aS'D07-1023'
p1691
aS'P84-1039'
p1692
aS'E95-1004'
p1693
aS'W13-2027'
p1694
aS'W01-1004'
p1695
aS'A92-1030'
p1696
aS'A92-1037'
p1697
aS'A92-1036'
p1698
aS'A92-1035'
p1699
aS'A92-1034'
p1700
aS'A92-1039'
p1701
aS'P98-1055'
p1702
aS'W06-2705'
p1703
aS'D07-1062'
p1704
aS'D07-1065'
p1705
aS'D07-1064'
p1706
aS'D07-1066'
p1707
aS'C04-1174'
p1708
aS'C08-3004'
p1709
aS'P10-1130'
p1710
aS'P97-1059'
p1711
aS'P10-1134'
p1712
aS'D07-1086'
p1713
aS'A97-1044'
p1714
aS'A97-1046'
p1715
aS'A97-1041'
p1716
aS'A97-1040'
p1717
aS'E06-1034'
p1718
aS'E06-1035'
p1719
aS'E06-1038'
p1720
aS'A97-1049'
p1721
aS'A97-1048'
p1722
aS'P86-1005'
p1723
aS'P13-1045'
p1724
aS'P13-1043'
p1725
aS'W02-0703'
p1726
aS'W00-1403'
p1727
aS'W00-1401'
p1728
aS'W04-3233'
p1729
aS'W04-3231'
p1730
aS'P09-4010'
p1731
aS'W04-3234'
p1732
aS'C10-2146'
p1733
aS'P11-2034'
p1734
aS'N03-1004'
p1735
aS'N03-1003'
p1736
aS'P00-1063'
p1737
aS'P98-2206'
p1738
aS'P98-2208'
p1739
aS'P00-1064'
p1740
aS'P05-1071'
p1741
aS'P05-1072'
p1742
aS'P05-1073'
p1743
aS'P05-1075'
p1744
aS'P05-1076'
p1745
aS'M95-1015'
p1746
aS'C00-1010'
p1747
aS'C00-1011'
p1748
aS'P04-1011'
p1749
aS'P04-1013'
p1750
aS'P04-1012'
p1751
aS'W03-1606'
p1752
aS'P13-3023'
p1753
aS'W97-1304'
p1754
aS'H91-1074'
p1755
aS'H91-1077'
p1756
aS'W13-2123'
p1757
aS'W97-1303'
p1758
aS'P01-1005'
p1759
aS'P01-1006'
p1760
aS'P08-1054'
p1761
aS'P08-1056'
p1762
aS'A00-2031'
p1763
aS'N06-1042'
p1764
aS'N06-1040'
p1765
aS'W00-1314'
p1766
aS'J83-3003'
p1767
aS'J83-3002'
p1768
aS'W00-0207'
p1769
aS'P13-2066'
p1770
aS'P99-1046'
p1771
aS'P99-1043'
p1772
aS'W13-3203'
p1773
aS'A00-2038'
p1774
aS'P98-2199'
p1775
aS'A00-1014'
p1776
aS'P07-2056'
p1777
aS'C00-2086'
p1778
aS'P09-2044'
p1779
aS'A00-1010'
p1780
aS'H94-1027'
p1781
aS'P07-2052'
p1782
aS'W97-0320'
p1783
aS'W97-0322'
p1784
aS'W03-2806'
p1785
aS'J07-1004'
p1786
aS'J07-1006'
p1787
aS'P98-1081'
p1788
aS'P98-1080'
p1789
aS'W10-2405'
p1790
aS'N09-1013'
p1791
aS'W13-3508'
p1792
aS'C02-1093'
p1793
aS'W12-3124'
p1794
aS'P02-1057'
p1795
aS'P02-1056'
p1796
aS'P02-1055'
p1797
aS'W03-0411'
p1798
aS'W03-0417'
p1799
aS'W06-3604'
p1800
aS'W06-3607'
p1801
aS'I05-2044'
p1802
aS'W06-3601'
p1803
aS'C10-1142'
p1804
aS'P06-1017'
p1805
aS'P06-1016'
p1806
aS'P06-1015'
p1807
aS'C94-1052'
p1808
aS'W97-0213'
p1809
aS'D12-1106'
p1810
aS'C90-3031'
p1811
aS'C90-3030'
p1812
aS'J98-2002'
p1813
aS'D12-1103'
p1814
aS'A00-2028'
p1815
aS'A00-2029'
p1816
aS'A00-2026'
p1817
aS'A00-2027'
p1818
aS'A00-2024'
p1819
aS'N06-2026'
p1820
aS'A00-2022'
p1821
aS'A00-2023'
p1822
aS'A00-2020'
p1823
aS'A00-2021'
p1824
aS'D11-1026'
p1825
aS'J03-4003'
p1826
aS'J03-4001'
p1827
aS'P92-1004'
p1828
aS'J03-4004'
p1829
aS'P92-1006'
p1830
aS'P00-1011'
p1831
aS'W13-1723'
p1832
aS'E03-1038'
p1833
aS'I08-1054'
p1834
aS'E03-1034'
p1835
aS'W06-1603'
p1836
aS'P03-1055'
p1837
aS'W06-1601'
p1838
aS'E06-2024'
p1839
aS'W13-2105'
p1840
aS'W00-0506'
p1841
aS'W07-2028'
p1842
aS'P11-1123'
p1843
aS'P11-1121'
p1844
aS'W02-2029'
p1845
aS'P11-1127'
p1846
aS'P11-1125'
p1847
aS'E09-1027'
p1848
aS'W96-0401'
p1849
aS'W00-0601'
p1850
aS'A83-1028'
p1851
aS'A83-1029'
p1852
aS'A83-1027'
p1853
aS'J02-3001'
p1854
aS'P97-1063'
p1855
aS'P99-1034'
p1856
aS'A92-1006'
p1857
aS'A92-1007'
p1858
aS'A92-1004'
p1859
aS'W98-1413'
p1860
aS'A92-1002'
p1861
aS'A92-1001'
p1862
aS'A92-1008'
p1863
aS'A92-1009'
p1864
aS'D07-1012'
p1865
aS'C04-1142'
p1866
aS'C04-1143'
p1867
aS'W04-2206'
p1868
aS'C04-1141'
p1869
aS'W04-2803'
p1870
aS'W04-2801'
p1871
aS'C04-1140'
p1872
aS'J10-3005'
p1873
aS'W06-1636'
p1874
aS'J10-3008'
p1875
aS'W05-0636'
p1876
aS'W07-1906'
p1877
aS'D09-1135'
p1878
aS'D09-1136'
p1879
aS'W05-0638'
p1880
aS'W05-0639'
p1881
aS'J96-1003'
p1882
aS'J96-1001'
p1883
aS'C00-2118'
p1884
aS'W06-2607'
p1885
aS'M92-1015'
p1886
aS'J03-3002'
p1887
aS'P13-1058'
p1888
aS'W00-1436'
p1889
aS'I08-1048'
p1890
aS'W10-3214'
p1891
aS'W04-3229'
p1892
aS'W04-3224'
p1893
aS'W04-3222'
p1894
aS'C10-2158'
p1895
aS'W97-0803'
p1896
aS'P06-2018'
p1897
aS'H05-2004'
p1898
aS'N10-3002'
p1899
aS'P98-2210'
p1900
aS'P98-2214'
p1901
aS'I05-1086'
p1902
aS'P07-3016'
p1903
aS'P05-1061'
p1904
aS'W03-2128'
p1905
aS'P99-1021'
p1906
aS'P05-1065'
p1907
aS'H89-2012'
p1908
aS'C00-1007'
p1909
aS'C00-1004'
p1910
aS'H89-2011'
p1911
aS'I05-1088'
p1912
aS'P01-1038'
p1913
aS'W03-1613'
p1914
aS'P04-1062'
p1915
aS'P04-1063'
p1916
aS'W00-1304'
p1917
aS'C90-2063'
p1918
aS'W97-1314'
p1919
aS'C90-2066'
p1920
aS'J94-4002'
p1921
aS'P01-1070'
p1922
aS'J94-4005'
p1923
aS'P08-1021'
p1924
aS'P07-1035'
p1925
aS'P07-1032'
p1926
aS'W00-0742'
p1927
aS'W05-1209'
p1928
aS'P99-1057'
p1929
aS'P98-2184'
p1930
aS'W98-1234'
p1931
aS'W97-1409'
p1932
aS'C96-1041'
p1933
aS'C96-1043'
p1934
aS'E09-1049'
p1935
aS'P94-1051'
p1936
aS'L08-1210'
p1937
aS'D13-1116'
p1938
aS'C88-1072'
p1939
aS'H94-1054'
p1940
aS'P13-2129'
p1941
aS'W06-3807'
p1942
aS'W06-3806'
p1943
aS'N09-1008'
p1944
aS'C02-1085'
p1945
aS'P02-1063'
p1946
aS'W03-0405'
p1947
aS'W03-0407'
p1948
aS'W03-0402'
p1949
aS'W03-0409'
p1950
aS'W03-0408'
p1951
aS'P06-1022'
p1952
aS'P06-1023'
p1953
aS'P06-1021'
p1954
aS'C02-1159'
p1955
aS'C08-1050'
p1956
aS'C02-1154'
p1957
aS'C08-1057'
p1958
aS'W03-2909'
p1959
aS'W12-1512'
p1960
aS'D10-1002'
p1961
aS'W11-2204'
p1962
aS'W09-0410'
p1963
aS'A00-2030'
p1964
aS'A00-2033'
p1965
aS'A00-2032'
p1966
aS'A00-2035'
p1967
aS'A00-2034'
p1968
aS'A00-2037'
p1969
aS'A00-2036'
p1970
aS'A00-2039'
p1971
aS'W13-3202'
p1972
aS'W13-3205'
p1973
aS'D11-1036'
p1974
aS'C10-1012'
p1975
aS'J95-4004'
p1976
aS'W01-1206'
p1977
aS'W01-1203'
p1978
aS'P12-3007'
p1979
aS'W01-1208'
p1980
aS'J97-2001'
p1981
aS'I08-1045'
p1982
aS'W06-3125'
p1983
aS'W06-3120'
p1984
aS'P03-1043'
p1985
aS'W05-0405'
p1986
aS'W05-0404'
p1987
aS'P03-1046'
p1988
aS'P03-1044'
p1989
aS'P09-1022'
p1990
aS'P09-1020'
p1991
aS'W02-2031'
p1992
aS'P09-1025'
p1993
aS'W02-2032'
p1994
aS'E09-1035'
p1995
aS'M98-1009'
p1996
aS'A92-1018'
p1997
aS'M98-1007'
p1998
aS'P05-3026'
p1999
aS'W11-1101'
p2000
aS'A83-1031'
p2001
aS'W02-1706'
p2002
aS'P84-1013'
p2003
aS'W06-1701'
p2004
aS'P84-1014'
p2005
aS'A92-1019'
p2006
aS'A00-1044'
p2007
aS'A00-1046'
p2008
aS'A00-1041'
p2009
aS'A00-1040'
p2010
aS'A00-1043'
p2011
aS'A00-1042'
p2012
aS'A92-1011'
p2013
aS'A92-1010'
p2014
aS'A92-1013'
p2015
aS'A92-1012'
p2016
aS'A92-1015'
p2017
aS'A92-1014'
p2018
aS'A92-1017'
p2019
aS'A92-1016'
p2020
aS'E89-1018'
p2021
aS'C04-1153'
p2022
aS'C04-1157'
p2023
aS'W96-0507'
p2024
aS'W96-0503'
p2025
aS'D07-1008'
p2026
aS'P10-1111'
p2027
aS'P10-1110'
p2028
aS'P10-1113'
p2029
aS'P10-1112'
p2030
aS'N07-1034'
p2031
aS'W11-1611'
p2032
aS'W06-1414'
p2033
aS'J94-1002'
p2034
aS'W05-0623'
p2035
aS'W05-0620'
p2036
aS'W06-2611'
p2037
aS'C00-2100'
p2038
aS'P10-1029'
p2039
aS'C00-2105'
p2040
aS'P10-1024'
p2041
aS'W98-0603'
p2042
aS'P02-1042'
p2043
aS'W00-1426'
p2044
aS'P13-1028'
p2045
aS'P13-1029'
p2046
aS'W00-1422'
p2047
aS'W13-1204'
p2048
aS'W96-0417'
p2049
aS'W07-1801'
p2050
aS'C96-2105'
p2051
aS'P13-1118'
p2052
aS'C96-2109'
p2053
aS'P98-2222'
p2054
aS'P98-2228'
p2055
aS'C00-1032'
p2056
aS'C00-1030'
p2057
aS'P05-1052'
p2058
aS'P05-1053'
p2059
aS'P05-1051'
p2060
aS'W12-3203'
p2061
aS'I05-3006'
p2062
aS'W08-0901'
p2063
aS'C02-1131'
p2064
aS'P01-1064'
p2065
aS'W98-1428'
p2066
aS'W08-0904'
p2067
aS'C02-1130'
p2068
aS'W08-0909'
p2069
aS'W98-1425'
p2070
aS'P08-1035'
p2071
aS'W98-1427'
p2072
aS'W98-1421'
p2073
aS'W05-1619'
p2074
aS'P07-1025'
p2075
aS'E06-2004'
p2076
aS'P07-1026'
p2077
aS'W02-0102'
p2078
aS'P13-2001'
p2079
aS'P99-1065'
p2080
aS'W12-0104'
p2081
aS'W12-0103'
p2082
aS'W10-3007'
p2083
aS'W97-0127'
p2084
aS'W97-0123'
p2085
aS'W97-0122'
p2086
aS'W97-0121'
p2087
aS'W97-0120'
p2088
aS'P98-2140'
p2089
aS'C02-2015'
p2090
aS'J98-3005'
p2091
aS'J98-3004'
p2092
aS'W97-0104'
p2093
aS'C96-1058'
p2094
aS'P94-1041'
p2095
aS'P88-1024'
p2096
aS'P88-1027'
p2097
aS'J13-2001'
p2098
aS'I05-6006'
p2099
aS'C94-2149'
p2100
aS'A88-1019'
p2101
aS'H94-1042'
p2102
aS'N10-1083'
p2103
aS'H94-1049'
p2104
aS'W97-1511'
p2105
aS'N06-1024'
p2106
aS'W03-1807'
p2107
aS'N06-1026'
p2108
aS'N06-1020'
p2109
aS'N06-1022'
p2110
aS'N06-1023'
p2111
aS'X98-1014'
p2112
aS'X98-1017'
p2113
aS'N09-1030'
p2114
aS'X98-1013'
p2115
aS'W08-0123'
p2116
aS'D13-1039'
p2117
aS'W11-2111'
p2118
aS'J06-3004'
p2119
aS'N07-1039'
p2120
aS'D13-1033'
p2121
aS'D13-1032'
p2122
aS'L08-1538'
p2123
aS'L08-1539'
p2124
aS'H91-1044'
p2125
aS'P06-1037'
p2126
aS'C02-1161'
p2127
aS'P06-1031'
p2128
aS'P06-1033'
p2129
aS'P06-1032'
p2130
aS'C94-2123'
p2131
aS'W01-0520'
p2132
aS'W01-0521'
p2133
aS'P06-4020'
p2134
aS'D12-1120'
p2135
aS'D10-1038'
p2136
aS'D10-1034'
p2137
aS'D10-1032'
p2138
aS'D10-1033'
p2139
aS'W09-0402'
p2140
aS'A00-2040'
p2141
aS'W03-1119'
p2142
aS'P06-2094'
p2143
aS'A00-2043'
p2144
aS'W04-0307'
p2145
aS'W04-0305'
p2146
aS'W04-0304'
p2147
aS'P13-1167'
p2148
aS'W03-0504'
p2149
aS'L08-1151'
p2150
aS'W03-0501'
p2151
aS'L08-1404'
p2152
aS'I08-3012'
p2153
aS'I08-3015'
p2154
aS'J04-3002'
p2155
aS'P01-1034'
p2156
aS'C94-2189'
p2157
aS'D08-1110'
p2158
aS'W99-0202'
p2159
aS'W98-1303'
p2160
aS'W99-0207'
p2161
aS'W13-3520'
p2162
aS'W98-0610'
p2163
aS'W06-1623'
p2164
aS'W06-1622'
p2165
aS'C94-2160'
p2166
aS'P03-1070'
p2167
aS'P03-1071'
p2168
aS'P11-1101'
p2169
aS'C10-1037'
p2170
aS'W03-1022'
p2171
aS'P09-1015'
p2172
aS'W03-1025'
p2173
aS'I05-2023'
p2174
aS'W03-0210'
p2175
aS'M98-1019'
p2176
aS'M98-1018'
p2177
aS'P09-1086'
p2178
aS'M98-1016'
p2179
aS'W04-1202'
p2180
aS'P90-1032'
p2181
aS'P90-1031'
p2182
aS'P90-1034'
p2183
aS'W98-0720'
p2184
aS'H92-1041'
p2185
aS'M95-1012'
p2186
aS'J90-1003'
p2187
aS'D07-1039'
p2188
aS'P06-2072'
p2189
aS'E95-1014'
p2190
aS'C04-1125'
p2191
aS'W96-0512'
p2192
aS'C04-1129'
p2193
aS'W91-0114'
p2194
aS'W02-1405'
p2195
aS'W02-1404'
p2196
aS'W02-1406'
p2197
aS'N07-1023'
p2198
aS'W07-2213'
p2199
aS'W05-0618'
p2200
aS'W07-2211'
p2201
aS'W07-2216'
p2202
aS'P12-2049'
p2203
aS'W07-2215'
p2204
aS'W00-1429'
p2205
aS'W07-2218'
p2206
aS'W05-0611'
p2207
aS'P12-2040'
p2208
aS'W11-1606'
p2209
aS'W06-1403'
p2210
aS'W97-0902'
p2211
aS'W94-0329'
p2212
aS'N13-1019'
p2213
aS'W94-0324'
p2214
aS'W97-0901'
p2215
aS'C00-2136'
p2216
aS'C00-2135'
p2217
aS'D07-1108'
p2218
aS'H05-1045'
p2219
aS'D07-1105'
p2220
aS'P03-2002'
p2221
aS'J04-4004'
p2222
aS'C04-1057'
p2223
aS'P97-1007'
p2224
aS'W97-0903'
p2225
aS'P97-1004'
p2226
aS'C96-2114'
p2227
aS'C96-2110'
p2228
aS'C96-2119'
p2229
aS'W05-1508'
p2230
aS'P05-1040'
p2231
aS'C00-1025'
p2232
aS'C00-1021'
p2233
aS'W03-2107'
p2234
aS'P04-1042'
p2235
aS'P04-1040'
p2236
aS'P04-1047'
p2237
aS'P04-1044'
p2238
aS'P01-1052'
p2239
aS'W13-1301'
p2240
aS'J05-3003'
p2241
aS'J05-3002'
p2242
aS'P01-1056'
p2243
aS'H01-1050'
p2244
aS'P01-1055'
p2245
aS'P08-1003'
p2246
aS'P08-1006'
p2247
aS'P07-1120'
p2248
aS'W00-0904'
p2249
aS'P07-1122'
p2250
aS'P07-1055'
p2251
aS'J90-2001'
p2252
aS'P07-1052'
p2253
aS'W08-2226'
p2254
aS'P13-2034'
p2255
aS'J93-2002'
p2256
aS'P99-1071'
p2257
aS'W12-0114'
p2258
aS'W97-0110'
p2259
aS'W04-2510'
p2260
aS'W97-0117'
p2261
aS'W97-0114'
p2262
aS'W97-0115'
p2263
aS'H93-1071'
p2264
aS'W97-0119'
p2265
aS'P98-2230'
p2266
aS'W08-1402'
p2267
aS'P98-2236'
p2268
aS'D13-1130'
p2269
aS'L08-1239'
p2270
aS'C96-1068'
p2271
aS'C96-1069'
p2272
aS'P03-1015'
p2273
aS'W12-0208'
p2274
aS'E12-1065'
p2275
aS'N06-1039'
p2276
aS'N06-1038'
p2277
aS'N06-1037'
p2278
aS'A97-1012'
p2279
aS'W09-2108'
p2280
aS'A97-1013'
p2281
aS'C10-2001'
p2282
aS'L08-1521'
p2283
aS'W12-3409'
p2284
aS'H05-1094'
p2285
aS'P98-1079'
p2286
aS'H05-1099'
p2287
aS'W12-0514'
p2288
aS'C94-1086'
p2289
aS'E91-1004'
p2290
aS'W05-1008'
p2291
aS'D10-1020'
p2292
aS'H05-1086'
p2293
aS'D12-1133'
p2294
aS'A97-1022'
p2295
aS'P06-2080'
p2296
aS'P98-1066'
p2297
aS'P06-2089'
p2298
aS'W03-1102'
p2299
aS'W03-1101'
p2300
aS'P98-1069'
p2301
aS'J93-1009'
p2302
aS'P92-1054'
p2303
aS'J93-1004'
p2304
aS'J93-1005'
p2305
aS'J93-1007'
p2306
aS'J93-1001'
p2307
aS'J93-1002'
p2308
aS'C94-2195'
p2309
aS'C94-2191'
p2310
aS'W02-0906'
p2311
aS'W02-0905'
p2312
aS'W02-0904'
p2313
aS'C96-1089'
p2314
aS'L08-1099'
p2315
aS'L08-1098'
p2316
aS'W06-0104'
p2317
aS'W04-2611'
p2318
aS'L08-1091'
p2319
aS'J01-4001'
p2320
aS'C08-1145'
p2321
aS'J01-4004'
p2322
aS'L08-1097'
p2323
aS'W97-1505'
p2324
aS'P09-1008'
p2325
aS'W09-0509'
p2326
aS'P03-1065'
p2327
aS'P03-1069'
p2328
aS'P09-1004'
p2329
aS'P09-1006'
p2330
aS'W04-0206'
p2331
aS'W04-0207'
p2332
aS'A88-1016'
p2333
aS'E09-1017'
p2334
aS'P08-1085'
p2335
aS'W03-0201'
p2336
aS'W09-1007'
p2337
aS'W03-0205'
p2338
aS'I05-2019'
p2339
aS'W03-0209'
p2340
aS'W06-2904'
p2341
aS'M98-1021'
p2342
aS'H05-1078'
p2343
aS'W13-1911'
p2344
aS'D08-1035'
p2345
aS'W09-1123'
p2346
aS'W02-0205'
p2347
aS'P11-1008'
p2348
aS'M95-1001'
p2349
aS'W10-1401'
p2350
aS'W10-1407'
p2351
aS'J96-3004'
p2352
aS'W10-1408'
p2353
aS'W09-0613'
p2354
aS'D07-1028'
p2355
aS'E95-1003'
p2356
aS'D07-1027'
p2357
aS'P06-2060'
p2358
aS'P06-2067'
p2359
aS'W97-0316'
p2360
aS'E85-1040'
p2361
aS'D07-1022'
p2362
aS'C04-1137'
p2363
aS'C04-1133'
p2364
aS'C04-1132'
p2365
aS'C04-1130'
p2366
aS'W11-0503'
p2367
aS'P00-1061'
p2368
aS'W97-0313'
p2369
aS'A88-1012'
p2370
aS'P00-1065'
p2371
aS'W07-2204'
p2372
aS'W07-2207'
p2373
aS'W07-2201'
p2374
aS'W07-2203'
p2375
aS'W07-2202'
p2376
aS'W05-0606'
p2377
aS'W07-2209'
p2378
aS'W07-2208'
p2379
aS'W05-0602'
p2380
aS'W12-3128'
p2381
aS'N13-1027'
p2382
aS'C00-2122'
p2383
aS'C00-2124'
p2384
aS'D07-1110'
p2385
aS'P01-1067'
p2386
aS'D07-1117'
p2387
aS'D07-1118'
p2388
aS'W12-2302'
p2389
aS'W93-0306'
p2390
aS'W93-0305'
p2391
aS'W12-3307'
p2392
aS'N04-1001'
p2393
aS'N04-1004'
p2394
aS'W02-1505'
p2395
aS'J13-1005'
p2396
aS'J13-1006'
p2397
aS'M93-1026'
p2398
aS'J13-1003'
p2399
aS'P11-2076'
p2400
aS'W97-0808'
p2401
aS'A94-1003'
p2402
aS'H89-1034'
p2403
aS'X96-1047'
p2404
aS'P85-1019'
p2405
aS'P05-1038'
p2406
aS'P05-1039'
p2407
aS'P05-1036'
p2408
aS'P08-1037'
p2409
aS'W03-2113'
p2410
aS'P04-1054'
p2411
aS'P01-1048'
p2412
aS'C90-2034'
p2413
aS'P01-1045'
p2414
aS'W98-1424'
p2415
aS'P01-1040'
p2416
aS'P01-1043'
p2417
aS'C10-2059'
p2418
aS'P08-1016'
p2419
aS'W98-1406'
p2420
aS'P08-1013'
p2421
aS'W98-1405'
p2422
aS'W05-1308'
p2423
aS'P13-1007'
p2424
aS'J11-1007'
p2425
aS'J11-1005'
p2426
aS'P07-1041'
p2427
aS'P07-1040'
p2428
aS'P99-1082'
p2429
aS'W00-0712'
p2430
aS'W00-0713'
p2431
aS'J09-4004'
p2432
aS'W00-0718'
p2433
aS'J95-3004'
p2434
aS'W04-2506'
p2435
aS'P02-1025'
p2436
aS'H93-1046'
p2437
aS'H93-1047'
p2438
aS'H93-1045'
p2439
aS'W04-0852'
p2440
aS'W09-2807'
p2441
aS'W04-0850'
p2442
aS'W07-0208'
p2443
aS'P95-1041'
p2444
aS'P98-2247'
p2445
aS'W09-2808'
p2446
aS'W07-1002'
p2447
aS'W07-1001'
p2448
aS'J01-3003'
p2449
aS'P88-1002'
p2450
aS'Q13-1025'
p2451
aS'D13-1121'
p2452
aS'D13-1120'
p2453
aS'P13-2111'
p2454
aS'P13-2110'
p2455
aS'P13-2112'
p2456
aS'P13-2114'
p2457
aS'A00-3003'
p2458
aS'E12-1072'
p2459
aS'A00-3001'
p2460
aS'E12-1070'
p2461
aS'N06-1007'
p2462
aS'A00-3005'
p2463
aS'C10-1137'
p2464
aS'J97-3002'
p2465
aS'J97-3003'
p2466
aS'N04-1039'
p2467
aS'N03-2008'
p2468
aS'W08-0102'
p2469
aS'D12-1096'
p2470
aS'D12-1097'
p2471
aS'C94-1099'
p2472
aS'P98-1060'
p2473
aS'P98-1063'
p2474
aS'A88-1033'
p2475
aS'H05-1082'
p2476
aS'J06-2003'
p2477
aS'P98-1068'
p2478
aS'C94-1093'
p2479
aS'H05-1088'
p2480
aS'C94-1097'
p2481
aS'W01-0502'
p2482
aS'W01-0501'
p2483
aS'C08-1069'
p2484
aS'W01-0509'
p2485
aS'W12-0304'
p2486
aS'D10-1050'
p2487
aS'W02-0105'
p2488
aS'W99-0708'
p2489
aS'W95-0114'
p2490
aS'W95-0115'
p2491
aS'C96-1072'
p2492
aS'W95-0111'
p2493
aS'W95-0112'
p2494
aS'W95-0113'
p2495
aS'C92-4188'
p2496
aS'P06-1061'
p2497
aS'P92-1046'
p2498
aS'L08-1176'
p2499
aS'C02-1118'
p2500
aS'W06-0131'
p2501
aS'P97-1041'
p2502
asS'edges_list'
p2503
(lp2504
(g1709
g1330
tp2505
a(g612
S'A00-1002'
tp2506
a(g1266
S'A00-1002'
tp2507
a(g781
S'A00-1002'
tp2508
a(g1467
S'A00-1002'
tp2509
a(g1208
S'A00-1002'
tp2510
a(g54
S'A00-1002'
tp2511
a(g2079
S'A00-1002'
tp2512
a(g1584
S'A00-1002'
tp2513
a(g356
S'A00-1002'
tp2514
a(g1124
S'A00-1002'
tp2515
a(g1299
g1332
tp2516
a(g992
S'A00-1004'
tp2517
a(g1259
g1331
tp2518
a(g370
S'A00-1005'
tp2519
a(g366
g1334
tp2520
a(g800
g1333
tp2521
a(g1905
S'A00-1007'
tp2522
a(g2116
g1327
tp2523
a(g1561
S'A00-1008'
tp2524
a(g638
g1326
tp2525
a(g1142
S'A00-1009'
tp2526
a(g495
S'A00-1009'
tp2527
a(g972
S'A00-1009'
tp2528
a(g254
S'A00-1009'
tp2529
a(g2343
g1780
tp2530
a(g1854
S'A00-1010'
tp2531
a(g2208
S'A00-1010'
tp2532
a(g801
S'A00-1010'
tp2533
a(g818
g1128
tp2534
a(g2174
S'A00-1011'
tp2535
a(g784
S'A00-1011'
tp2536
a(g530
S'A00-1011'
tp2537
a(g2143
S'A00-1011'
tp2538
a(g564
S'A00-1011'
tp2539
a(g616
S'A00-1011'
tp2540
a(g396
S'A00-1011'
tp2541
a(g1340
g1125
tp2542
a(g1726
S'A00-1012'
tp2543
a(g1542
S'A00-1012'
tp2544
a(g1360
S'A00-1012'
tp2545
a(g1818
g1776
tp2546
a(g364
S'A00-1014'
tp2547
a(g363
S'A00-1014'
tp2548
a(g1751
S'A00-1014'
tp2549
a(g1374
S'A00-1014'
tp2550
a(g412
S'A00-1014'
tp2551
a(S'W02-0209'
S'A00-1014'
tp2552
a(g2234
S'A00-1014'
tp2553
a(g2410
S'A00-1014'
tp2554
a(g968
g1121
tp2555
a(g1145
S'A00-1016'
tp2556
a(g1384
S'A00-1016'
tp2557
a(g158
g1122
tp2558
a(g1573
S'A00-1017'
tp2559
a(g247
S'A00-1017'
tp2560
a(g1539
S'A00-1017'
tp2561
a(g571
S'A00-1017'
tp2562
a(g1144
g1131
tp2563
a(S'A00-1004'
g1132
tp2564
a(S'W00-0507'
S'A00-1019'
tp2565
a(g102
S'A00-1019'
tp2566
a(g2195
S'A00-1019'
tp2567
a(g1346
g930
tp2568
a(g1671
S'A00-1020'
tp2569
a(g2320
S'A00-1020'
tp2570
a(g1341
S'A00-1020'
tp2571
a(g79
S'A00-1020'
tp2572
a(g237
S'A00-1020'
tp2573
a(g513
S'A00-1020'
tp2574
a(g1960
S'A00-1020'
tp2575
a(g406
S'A00-1020'
tp2576
a(g1648
g929
tp2577
a(g671
S'A00-1021'
tp2578
a(g114
S'A00-1021'
tp2579
a(g2242
S'A00-1021'
tp2580
a(g1213
S'A00-1021'
tp2581
a(g850
S'A00-1021'
tp2582
a(g1399
S'A00-1021'
tp2583
a(g239
S'A00-1021'
tp2584
a(g1006
S'A00-1021'
tp2585
a(g490
g927
tp2586
a(g1604
S'A00-1023'
tp2587
a(g1401
S'A00-1023'
tp2588
a(g1019
S'A00-1023'
tp2589
a(S'P01-1037'
S'A00-1023'
tp2590
a(g866
S'A00-1023'
tp2591
a(g1977
S'A00-1023'
tp2592
a(g1223
S'A00-1023'
tp2593
a(g2336
S'A00-1023'
tp2594
a(g953
S'A00-1023'
tp2595
a(g1049
S'A00-1023'
tp2596
a(g1643
g933
tp2597
a(g205
S'A00-1024'
tp2598
a(S'H01-1036'
g932
tp2599
a(S'P01-1037'
S'A00-1025'
tp2600
a(g1922
S'A00-1025'
tp2601
a(g2483
S'A00-1025'
tp2602
a(g1347
S'A00-1025'
tp2603
a(g579
g931
tp2604
a(g110
S'A00-1026'
tp2605
a(g38
S'A00-1026'
tp2606
a(g277
S'A00-1026'
tp2607
a(g104
g935
tp2608
a(S'C04-1191'
g753
tp2609
a(g677
S'A00-1030'
tp2610
a(g2430
S'A00-1030'
tp2611
a(g2389
S'A00-1030'
tp2612
a(g489
g754
tp2613
a(g1793
S'A00-1031'
tp2614
a(g1286
S'A00-1031'
tp2615
a(g2064
S'A00-1031'
tp2616
a(g338
S'A00-1031'
tp2617
a(g862
S'A00-1031'
tp2618
a(g861
S'A00-1031'
tp2619
a(g917
S'A00-1031'
tp2620
a(g737
S'A00-1031'
tp2621
a(g1872
S'A00-1031'
tp2622
a(g1869
S'A00-1031'
tp2623
a(g1510
S'A00-1031'
tp2624
a(g860
S'A00-1031'
tp2625
a(g1581
S'A00-1031'
tp2626
a(g1576
S'A00-1031'
tp2627
a(g1649
S'A00-1031'
tp2628
a(g606
S'A00-1031'
tp2629
a(g97
S'A00-1031'
tp2630
a(g1733
S'A00-1031'
tp2631
a(g2387
S'A00-1031'
tp2632
a(g2388
S'A00-1031'
tp2633
a(g183
S'A00-1031'
tp2634
a(g2158
S'A00-1031'
tp2635
a(g78
S'A00-1031'
tp2636
a(g2292
S'A00-1031'
tp2637
a(g469
S'A00-1031'
tp2638
a(g1646
S'A00-1031'
tp2639
a(g1265
S'A00-1031'
tp2640
a(g1814
S'A00-1031'
tp2641
a(g2117
S'A00-1031'
tp2642
a(g2453
S'A00-1031'
tp2643
a(g1667
S'A00-1031'
tp2644
a(g923
S'A00-1031'
tp2645
a(g728
S'A00-1031'
tp2646
a(g908
S'A00-1031'
tp2647
a(g339
S'A00-1031'
tp2648
a(g1098
S'A00-1031'
tp2649
a(g899
S'A00-1031'
tp2650
a(g1718
S'A00-1031'
tp2651
a(g1839
S'A00-1031'
tp2652
a(g1935
S'A00-1031'
tp2653
a(g11
S'A00-1031'
tp2654
a(g182
S'A00-1031'
tp2655
a(g1040
S'A00-1031'
tp2656
a(g279
S'A00-1031'
tp2657
a(g192
S'A00-1031'
tp2658
a(g640
S'A00-1031'
tp2659
a(g1377
S'A00-1031'
tp2660
a(g996
S'A00-1031'
tp2661
a(g337
S'A00-1031'
tp2662
a(g185
S'A00-1031'
tp2663
a(g189
S'A00-1031'
tp2664
a(g1559
S'A00-1031'
tp2665
a(g1834
S'A00-1031'
tp2666
a(g2153
S'A00-1031'
tp2667
a(g912
S'A00-1031'
tp2668
a(g1479
S'A00-1031'
tp2669
a(g175
S'A00-1031'
tp2670
a(g2396
S'A00-1031'
tp2671
a(g1611
S'A00-1031'
tp2672
a(g1248
S'A00-1031'
tp2673
a(g655
S'A00-1031'
tp2674
a(g2152
S'A00-1031'
tp2675
a(g1463
S'A00-1031'
tp2676
a(g1650
S'A00-1031'
tp2677
a(g1652
S'A00-1031'
tp2678
a(g2123
S'A00-1031'
tp2679
a(g2124
S'A00-1031'
tp2680
a(g463
S'A00-1031'
tp2681
a(g462
S'A00-1031'
tp2682
a(g286
S'A00-1031'
tp2683
a(g1148
S'A00-1031'
tp2684
a(g287
S'A00-1031'
tp2685
a(g429
S'A00-1031'
tp2686
a(g1791
S'A00-1031'
tp2687
a(g1358
S'A00-1031'
tp2688
a(g1899
S'A00-1031'
tp2689
a(g725
S'A00-1031'
tp2690
a(g1613
S'A00-1031'
tp2691
a(g1946
S'A00-1031'
tp2692
a(g7
S'A00-1031'
tp2693
a(g361
S'A00-1031'
tp2694
a(g868
S'A00-1031'
tp2695
a(g403
S'A00-1031'
tp2696
a(g2407
S'A00-1031'
tp2697
a(g587
S'A00-1031'
tp2698
a(g583
S'A00-1031'
tp2699
a(g770
S'A00-1031'
tp2700
a(g942
S'A00-1031'
tp2701
a(g2126
S'A00-1031'
tp2702
a(g873
S'A00-1031'
tp2703
a(g1416
S'A00-1031'
tp2704
a(g2427
S'A00-1031'
tp2705
a(g974
S'A00-1031'
tp2706
a(g1127
S'A00-1031'
tp2707
a(g1777
S'A00-1031'
tp2708
a(g2246
S'A00-1031'
tp2709
a(g1350
S'A00-1031'
tp2710
a(g1779
S'A00-1031'
tp2711
a(g746
S'A00-1031'
tp2712
a(g550
S'A00-1031'
tp2713
a(g1710
S'A00-1031'
tp2714
a(g80
S'A00-1031'
tp2715
a(g881
S'A00-1031'
tp2716
a(g1440
S'A00-1031'
tp2717
a(g1400
S'A00-1031'
tp2718
a(g855
S'A00-1031'
tp2719
a(g2045
S'A00-1031'
tp2720
a(g1349
S'A00-1031'
tp2721
a(g2456
S'A00-1031'
tp2722
a(g413
S'A00-1031'
tp2723
a(g2431
S'A00-1031'
tp2724
a(g1226
S'A00-1031'
tp2725
a(g1585
S'A00-1031'
tp2726
a(g150
S'A00-1031'
tp2727
a(g343
S'A00-1031'
tp2728
a(g1082
S'A00-1031'
tp2729
a(g2078
S'A00-1031'
tp2730
a(g15
S'A00-1031'
tp2731
a(g2313
S'A00-1031'
tp2732
a(g751
S'A00-1031'
tp2733
a(g62
S'A00-1031'
tp2734
a(g1994
S'A00-1031'
tp2735
a(g206
S'A00-1031'
tp2736
a(g1948
S'A00-1031'
tp2737
a(g1615
S'A00-1031'
tp2738
a(g622
S'A00-1031'
tp2739
a(g1959
S'A00-1031'
tp2740
a(g440
S'A00-1031'
tp2741
a(g438
S'A00-1031'
tp2742
a(g627
S'A00-1031'
tp2743
a(g1456
S'A00-1031'
tp2744
a(g1459
S'A00-1031'
tp2745
a(g1458
S'A00-1031'
tp2746
a(g1005
S'A00-1031'
tp2747
a(g1486
S'A00-1031'
tp2748
a(g1547
S'A00-1031'
tp2749
a(g1546
S'A00-1031'
tp2750
a(g1553
S'A00-1031'
tp2751
a(g1357
S'A00-1031'
tp2752
a(g1892
S'A00-1031'
tp2753
a(g879
S'A00-1031'
tp2754
a(g1986
S'A00-1031'
tp2755
a(g74
S'A00-1031'
tp2756
a(g472
S'A00-1031'
tp2757
a(g2501
S'A00-1031'
tp2758
a(g1034
S'A00-1031'
tp2759
a(g1391
S'A00-1031'
tp2760
a(g795
S'A00-1031'
tp2761
a(g544
S'A00-1031'
tp2762
a(g1312
S'A00-1031'
tp2763
a(g2004
S'A00-1031'
tp2764
a(g1151
S'A00-1031'
tp2765
a(g359
S'A00-1031'
tp2766
a(g1703
S'A00-1031'
tp2767
a(g1984
S'A00-1031'
tp2768
a(g1983
S'A00-1031'
tp2769
a(g478
S'A00-1031'
tp2770
a(g669
S'A00-1031'
tp2771
a(g1457
S'A00-1031'
tp2772
a(g57
S'A00-1031'
tp2773
a(g688
S'A00-1031'
tp2774
a(g417
S'A00-1031'
tp2775
a(g2063
S'A00-1031'
tp2776
a(g295
S'A00-1031'
tp2777
a(g2140
S'A00-1031'
tp2778
a(g1963
S'A00-1031'
tp2779
a(g223
S'A00-1031'
tp2780
a(g368
S'A00-1031'
tp2781
a(g362
S'A00-1031'
tp2782
a(g246
S'A00-1031'
tp2783
a(g444
S'A00-1031'
tp2784
a(g2083
S'A00-1031'
tp2785
a(g1891
S'A00-1031'
tp2786
a(g233
S'A00-1031'
tp2787
a(g1033
S'A00-1031'
tp2788
a(g903
S'A00-1031'
tp2789
a(g511
S'A00-1031'
tp2790
a(g905
S'A00-1031'
tp2791
a(g1094
S'A00-1031'
tp2792
a(g2082
S'A00-1031'
tp2793
a(g1067
S'A00-1031'
tp2794
a(g856
S'A00-1031'
tp2795
a(g88
S'A00-1031'
tp2796
a(g2284
S'A00-1031'
tp2797
a(g1832
S'A00-1031'
tp2798
a(g306
S'A00-1031'
tp2799
a(g904
S'A00-1031'
tp2800
a(g707
S'A00-1031'
tp2801
a(g2162
S'A00-1031'
tp2802
a(g1231
S'A00-1031'
tp2803
a(g198
g755
tp2804
a(S'C02-1093'
g756
tp2805
a(g1437
S'A00-1033'
tp2806
a(S'C02-1131'
S'A00-1033'
tp2807
a(g213
S'A00-1033'
tp2808
a(g1651
S'A00-1033'
tp2809
a(g2325
S'A00-1033'
tp2810
a(g259
S'A00-1033'
tp2811
a(g44
S'A00-1033'
tp2812
a(S'W02-2032'
S'A00-1033'
tp2813
a(g1052
S'A00-1033'
tp2814
a(g1434
g757
tp2815
a(g1982
S'A00-1034'
tp2816
a(g1470
S'A00-1034'
tp2817
a(g1469
S'A00-1034'
tp2818
a(g160
S'A00-1034'
tp2819
a(g1985
S'A00-1034'
tp2820
a(g1978
S'A00-1034'
tp2821
a(g401
S'A00-1034'
tp2822
a(g1798
S'A00-1034'
tp2823
a(S'W03-0808'
S'A00-1034'
tp2824
a(S'A00-1030'
g759
tp2825
a(g1513
g760
tp2826
a(g2216
g761
tp2827
a(g647
S'A00-1039'
tp2828
a(g663
S'A00-1039'
tp2829
a(g2276
S'A00-1039'
tp2830
a(g532
S'A00-1039'
tp2831
a(g872
S'A00-1039'
tp2832
a(S'P06-2094'
S'A00-1039'
tp2833
a(g1947
S'A00-1039'
tp2834
a(g1545
S'A00-1039'
tp2835
a(g1291
S'A00-1039'
tp2836
a(g2341
S'A00-1039'
tp2837
a(g475
S'A00-1039'
tp2838
a(g1101
S'A00-1039'
tp2839
a(g1867
g2010
tp2840
a(g193
S'A00-1040'
tp2841
a(g1247
S'A00-1040'
tp2842
a(S'C02-1026'
g2009
tp2843
a(S'C02-1042'
S'A00-1041'
tp2844
a(S'P01-1037'
S'A00-1041'
tp2845
a(S'P01-1070'
S'A00-1041'
tp2846
a(g865
S'A00-1041'
tp2847
a(g2485
S'A00-1041'
tp2848
a(S'W01-1206'
S'A00-1041'
tp2849
a(g244
S'A00-1041'
tp2850
a(S'W02-1905'
S'A00-1041'
tp2851
a(S'W03-1211'
S'A00-1041'
tp2852
a(S'W10-1313'
S'A00-1041'
tp2853
a(g1143
g2012
tp2854
a(g1819
g2011
tp2855
a(g230
S'A00-1043'
tp2856
a(g42
S'A00-1043'
tp2857
a(g2193
S'A00-1043'
tp2858
a(g880
S'A00-1043'
tp2859
a(g1422
S'A00-1043'
tp2860
a(g2026
S'A00-1043'
tp2861
a(g2487
S'A00-1043'
tp2862
a(g2334
S'A00-1043'
tp2863
a(g825
S'A00-1043'
tp2864
a(g142
S'A00-1043'
tp2865
a(g91
S'A00-1043'
tp2866
a(g1873
S'A00-1043'
tp2867
a(g1338
S'A00-1043'
tp2868
a(g2198
S'A00-1043'
tp2869
a(g1421
S'A00-1043'
tp2870
a(g1406
S'A00-1043'
tp2871
a(g53
S'A00-1043'
tp2872
a(g1795
S'A00-1043'
tp2873
a(g878
S'A00-1043'
tp2874
a(g708
S'A00-1043'
tp2875
a(g2071
S'A00-1043'
tp2876
a(g1532
S'A00-1043'
tp2877
a(g739
S'A00-1043'
tp2878
a(g375
S'A00-1043'
tp2879
a(g1217
S'A00-1043'
tp2880
a(g1224
S'A00-1043'
tp2881
a(g2300
S'A00-1043'
tp2882
a(g2142
S'A00-1043'
tp2883
a(g2032
S'A00-1043'
tp2884
a(g184
S'A00-1043'
tp2885
a(g1792
S'A00-1043'
tp2886
a(g2139
g2007
tp2887
a(g23
S'A00-1044'
tp2888
a(g1206
S'A00-1044'
tp2889
a(g1483
S'A00-1044'
tp2890
a(g2149
S'A00-1044'
tp2891
a(S'W03-1211'
S'A00-1044'
tp2892
a(g2031
g1442
tp2893
a(g2167
S'A00-2001'
tp2894
a(g81
S'A00-2001'
tp2895
a(g486
S'A00-2001'
tp2896
a(g1680
S'A00-2001'
tp2897
a(g797
S'A00-2001'
tp2898
a(g971
S'A00-2001'
tp2899
a(g1877
S'A00-2001'
tp2900
a(g130
S'A00-2001'
tp2901
a(g1320
g1443
tp2902
a(g1770
S'A00-2002'
tp2903
a(g1727
S'A00-2002'
tp2904
a(g2044
S'A00-2002'
tp2905
a(g324
S'A00-2002'
tp2906
a(g316
S'A00-2002'
tp2907
a(g536
g1444
tp2908
a(g1042
S'A00-2003'
tp2909
a(g319
g1445
tp2910
a(g694
S'A00-2004'
tp2911
a(g487
S'A00-2004'
tp2912
a(g885
S'A00-2004'
tp2913
a(g22
S'A00-2004'
tp2914
a(g2345
S'A00-2004'
tp2915
a(g2136
S'A00-2004'
tp2916
a(g1825
S'A00-2004'
tp2917
a(g2269
S'A00-2004'
tp2918
a(g727
S'A00-2004'
tp2919
a(S'H01-1069'
S'A00-2004'
tp2920
a(g1653
S'A00-2004'
tp2921
a(g122
S'A00-2004'
tp2922
a(g578
S'A00-2004'
tp2923
a(g17
S'A00-2004'
tp2924
a(g141
S'A00-2004'
tp2925
a(g941
S'A00-2004'
tp2926
a(g1387
S'A00-2004'
tp2927
a(g296
S'A00-2004'
tp2928
a(g1597
S'A00-2004'
tp2929
a(g947
S'A00-2004'
tp2930
a(g2213
S'A00-2004'
tp2931
a(g2065
S'A00-2004'
tp2932
a(g2168
S'A00-2004'
tp2933
a(g1622
S'A00-2004'
tp2934
a(g282
S'A00-2004'
tp2935
a(g848
S'A00-2004'
tp2936
a(g867
S'A00-2004'
tp2937
a(g2255
S'A00-2004'
tp2938
a(g140
S'A00-2004'
tp2939
a(g1243
S'A00-2004'
tp2940
a(g809
S'A00-2004'
tp2941
a(g435
S'A00-2004'
tp2942
a(S'W06-1632'
S'A00-2004'
tp2943
a(g1078
S'A00-2004'
tp2944
a(g722
S'A00-2004'
tp2945
a(g1244
S'A00-2004'
tp2946
a(g1359
S'A00-2004'
tp2947
a(g2367
S'A00-2004'
tp2948
a(g1420
S'A00-2004'
tp2949
a(g1431
S'A00-2004'
tp2950
a(g2392
S'A00-2004'
tp2951
a(g471
g1446
tp2952
a(g1055
S'A00-2005'
tp2953
a(g327
S'A00-2005'
tp2954
a(g649
S'A00-2005'
tp2955
a(g2296
S'A00-2005'
tp2956
a(g2253
S'A00-2005'
tp2957
a(g2451
S'A00-2005'
tp2958
a(g241
S'A00-2005'
tp2959
a(g2317
S'A00-2005'
tp2960
a(g1235
g1447
tp2961
a(g2189
S'A00-2006'
tp2962
a(g255
S'A00-2006'
tp2963
a(g354
S'A00-2006'
tp2964
a(g1130
S'A00-2006'
tp2965
a(g2384
g1448
tp2966
a(g484
S'A00-2007'
tp2967
a(g887
S'A00-2007'
tp2968
a(g1210
S'A00-2007'
tp2969
a(g82
S'A00-2007'
tp2970
a(g2433
S'A00-2007'
tp2971
a(g260
S'A00-2007'
tp2972
a(g262
S'A00-2007'
tp2973
a(S'W01-0701'
S'A00-2007'
tp2974
a(g733
S'A00-2007'
tp2975
a(g391
S'A00-2007'
tp2976
a(S'W02-1036'
S'A00-2007'
tp2977
a(g2207
S'A00-2007'
tp2978
a(g335
g1438
tp2979
a(g9
S'A00-2008'
tp2980
a(g1786
S'A00-2008'
tp2981
a(g281
S'A00-2008'
tp2982
a(g418
S'A00-2008'
tp2983
a(g1885
S'A00-2008'
tp2984
a(g918
S'A00-2008'
tp2985
a(g813
S'A00-2008'
tp2986
a(g995
g1439
tp2987
a(g687
S'A00-2009'
tp2988
a(g2366
S'A00-2009'
tp2989
a(g2365
S'A00-2009'
tp2990
a(g2138
S'A00-2009'
tp2991
a(g100
S'A00-2009'
tp2992
a(g910
S'A00-2009'
tp2993
a(g911
S'A00-2009'
tp2994
a(g1294
S'A00-2009'
tp2995
a(g1735
S'A00-2009'
tp2996
a(g1759
S'A00-2009'
tp2997
a(g1612
S'A00-2009'
tp2998
a(g1165
S'A00-2009'
tp2999
a(g190
S'A00-2009'
tp3000
a(g1155
S'A00-2009'
tp3001
a(g747
S'A00-2009'
tp3002
a(g385
S'A00-2009'
tp3003
a(S'W02-1029'
S'A00-2009'
tp3004
a(g1799
S'A00-2009'
tp3005
a(g200
S'A00-2009'
tp3006
a(g1541
S'A00-2009'
tp3007
a(g2442
S'A00-2009'
tp3008
a(g107
S'A00-2009'
tp3009
a(g1465
S'A00-2009'
tp3010
a(g95
g1638
tp3011
a(g666
S'A00-2011'
tp3012
a(g1773
S'A00-2011'
tp3013
a(g68
g1637
tp3014
a(g1691
g1636
tp3015
a(g300
S'A00-2013'
tp3016
a(g2122
S'A00-2013'
tp3017
a(g2121
S'A00-2013'
tp3018
a(g2499
S'A00-2013'
tp3019
a(g258
S'A00-2013'
tp3020
a(g224
S'A00-2013'
tp3021
a(S'P00-1035'
S'A00-2013'
tp3022
a(g1211
S'A00-2013'
tp3023
a(g1054
S'A00-2013'
tp3024
a(g1741
S'A00-2013'
tp3025
a(g1408
S'A00-2013'
tp3026
a(g222
S'A00-2013'
tp3027
a(S'W03-2909'
S'A00-2013'
tp3028
a(S'W04-3229'
S'A00-2013'
tp3029
a(g1240
S'A00-2013'
tp3030
a(g702
g1642
tp3031
a(g275
S'A00-2014'
tp3032
a(g242
S'A00-2014'
tp3033
a(g1952
g1641
tp3034
a(S'H01-1069'
g1640
tp3035
a(S'W01-1203'
S'A00-2016'
tp3036
a(g18
g1639
tp3037
a(S'J05-4002'
S'A00-2017'
tp3038
a(g768
S'A00-2017'
tp3039
a(g1233
S'A00-2017'
tp3040
a(g2482
S'A00-2017'
tp3041
a(g1800
S'A00-2017'
tp3042
a(g2337
S'A00-2017'
tp3043
a(g2081
S'A00-2017'
tp3044
a(g1748
g1635
tp3045
a(g2217
S'A00-2018'
tp3046
a(g1257
S'A00-2018'
tp3047
a(g1433
S'A00-2018'
tp3048
a(g1619
S'A00-2018'
tp3049
a(g1955
S'A00-2018'
tp3050
a(g431
S'A00-2018'
tp3051
a(g180
S'A00-2018'
tp3052
a(g507
S'A00-2018'
tp3053
a(g336
S'A00-2018'
tp3054
a(g738
S'A00-2018'
tp3055
a(g2023
S'A00-2018'
tp3056
a(g1450
S'A00-2018'
tp3057
a(g231
S'A00-2018'
tp3058
a(g657
S'A00-2018'
tp3059
a(g1956
S'A00-2018'
tp3060
a(g2484
S'A00-2018'
tp3061
a(g1578
S'A00-2018'
tp3062
a(g1253
S'A00-2018'
tp3063
a(g357
S'A00-2018'
tp3064
a(g1804
S'A00-2018'
tp3065
a(g1620
S'A00-2018'
tp3066
a(g611
S'A00-2018'
tp3067
a(g604
S'A00-2018'
tp3068
a(g954
S'A00-2018'
tp3069
a(g2418
S'A00-2018'
tp3070
a(g1895
S'A00-2018'
tp3071
a(g1366
S'A00-2018'
tp3072
a(g1555
S'A00-2018'
tp3073
a(g2362
S'A00-2018'
tp3074
a(g2357
S'A00-2018'
tp3075
a(g2355
S'A00-2018'
tp3076
a(g1704
S'A00-2018'
tp3077
a(g1705
S'A00-2018'
tp3078
a(g1511
S'A00-2018'
tp3079
a(g1508
S'A00-2018'
tp3080
a(g2218
S'A00-2018'
tp3081
a(S'D07-1117'
S'A00-2018'
tp3082
a(g870
S'A00-2018'
tp3083
a(g871
S'A00-2018'
tp3084
a(g1292
S'A00-2018'
tp3085
a(g934
S'A00-2018'
tp3086
a(g30
S'A00-2018'
tp3087
a(g31
S'A00-2018'
tp3088
a(g1348
S'A00-2018'
tp3089
a(g1530
S'A00-2018'
tp3090
a(g49
S'A00-2018'
tp3091
a(g1878
S'A00-2018'
tp3092
a(g1879
S'A00-2018'
tp3093
a(g966
S'A00-2018'
tp3094
a(g1961
S'A00-2018'
tp3095
a(g153
S'A00-2018'
tp3096
a(g1455
S'A00-2018'
tp3097
a(S'D11-1017'
S'A00-2018'
tp3098
a(g1081
S'A00-2018'
tp3099
a(g1076
S'A00-2018'
tp3100
a(g47
S'A00-2018'
tp3101
a(g208
S'A00-2018'
tp3102
a(g1046
S'A00-2018'
tp3103
a(g131
S'A00-2018'
tp3104
a(g2470
S'A00-2018'
tp3105
a(g2294
S'A00-2018'
tp3106
a(g165
S'A00-2018'
tp3107
a(g1309
S'A00-2018'
tp3108
a(g1669
S'A00-2018'
tp3109
a(g729
S'A00-2018'
tp3110
a(g1344
S'A00-2018'
tp3111
a(g1345
S'A00-2018'
tp3112
a(g1720
S'A00-2018'
tp3113
a(S'E09-1017'
S'A00-2018'
tp3114
a(g1848
S'A00-2018'
tp3115
a(g326
S'A00-2018'
tp3116
a(S'E09-1049'
S'A00-2018'
tp3117
a(g1303
S'A00-2018'
tp3118
a(g1304
S'A00-2018'
tp3119
a(g1002
S'A00-2018'
tp3120
a(g1061
S'A00-2018'
tp3121
a(g1110
S'A00-2018'
tp3122
a(g512
S'A00-2018'
tp3123
a(S'H05-1078'
S'A00-2018'
tp3124
a(g2287
S'A00-2018'
tp3125
a(g1302
S'A00-2018'
tp3126
a(g1898
S'A00-2018'
tp3127
a(g453
S'A00-2018'
tp3128
a(g645
S'A00-2018'
tp3129
a(g120
S'A00-2018'
tp3130
a(g121
S'A00-2018'
tp3131
a(g1116
S'A00-2018'
tp3132
a(g1802
S'A00-2018'
tp3133
a(g2099
S'A00-2018'
tp3134
a(g1093
S'A00-2018'
tp3135
a(g1482
S'A00-2018'
tp3136
a(g1826
S'A00-2018'
tp3137
a(S'J04-3001'
S'A00-2018'
tp3138
a(g841
S'A00-2018'
tp3139
a(g845
S'A00-2018'
tp3140
a(g940
S'A00-2018'
tp3141
a(g2477
S'A00-2018'
tp3142
a(g352
S'A00-2018'
tp3143
a(g1214
S'A00-2018'
tp3144
a(g1166
S'A00-2018'
tp3145
a(g1372
S'A00-2018'
tp3146
a(g2426
S'A00-2018'
tp3147
a(g2425
S'A00-2018'
tp3148
a(g1453
S'A00-2018'
tp3149
a(g460
S'A00-2018'
tp3150
a(g459
S'A00-2018'
tp3151
a(g2399
S'A00-2018'
tp3152
a(g1108
S'A00-2018'
tp3153
a(g1423
S'A00-2018'
tp3154
a(g2319
S'A00-2018'
tp3155
a(g308
S'A00-2018'
tp3156
a(g482
S'A00-2018'
tp3157
a(g138
S'A00-2018'
tp3158
a(g1241
S'A00-2018'
tp3159
a(g342
S'A00-2018'
tp3160
a(g619
S'A00-2018'
tp3161
a(g1205
S'A00-2018'
tp3162
a(g1557
S'A00-2018'
tp3163
a(g1560
S'A00-2018'
tp3164
a(g1339
S'A00-2018'
tp3165
a(g1337
S'A00-2018'
tp3166
a(g1146
S'A00-2018'
tp3167
a(g1147
S'A00-2018'
tp3168
a(g288
S'A00-2018'
tp3169
a(g63
S'A00-2018'
tp3170
a(g243
S'A00-2018'
tp3171
a(g1605
S'A00-2018'
tp3172
a(g2109
S'A00-2018'
tp3173
a(g2110
S'A00-2018'
tp3174
a(g2111
S'A00-2018'
tp3175
a(g2106
S'A00-2018'
tp3176
a(g2108
S'A00-2018'
tp3177
a(S'N06-1039'
S'A00-2018'
tp3178
a(g1765
S'A00-2018'
tp3179
a(g913
S'A00-2018'
tp3180
a(g1820
S'A00-2018'
tp3181
a(g537
S'A00-2018'
tp3182
a(g1342
S'A00-2018'
tp3183
a(g1077
S'A00-2018'
tp3184
a(g494
S'A00-2018'
tp3185
a(g322
S'A00-2018'
tp3186
a(g925
S'A00-2018'
tp3187
a(g650
S'A00-2018'
tp3188
a(S'N10-1003'
S'A00-2018'
tp3189
a(g652
S'A00-2018'
tp3190
a(g651
S'A00-2018'
tp3191
a(g1263
S'A00-2018'
tp3192
a(g1007
S'A00-2018'
tp3193
a(g1594
S'A00-2018'
tp3194
a(g367
S'A00-2018'
tp3195
a(g1575
S'A00-2018'
tp3196
a(g1572
S'A00-2018'
tp3197
a(g1045
S'A00-2018'
tp3198
a(g2436
S'A00-2018'
tp3199
a(g1277
S'A00-2018'
tp3200
a(g1428
S'A00-2018'
tp3201
a(g2043
S'A00-2018'
tp3202
a(g1614
S'A00-2018'
tp3203
a(g1797
S'A00-2018'
tp3204
a(S'P03-1013'
S'A00-2018'
tp3205
a(g1988
S'A00-2018'
tp3206
a(g793
S'A00-2018'
tp3207
a(g1837
S'A00-2018'
tp3208
a(g798
S'A00-2018'
tp3209
a(g2328
S'A00-2018'
tp3210
a(g1395
S'A00-2018'
tp3211
a(g1567
S'A00-2018'
tp3212
a(g1750
S'A00-2018'
tp3213
a(g1381
S'A00-2018'
tp3214
a(g2236
S'A00-2018'
tp3215
a(g2235
S'A00-2018'
tp3216
a(g410
S'A00-2018'
tp3217
a(g408
S'A00-2018'
tp3218
a(g1059
S'A00-2018'
tp3219
a(g252
S'A00-2018'
tp3220
a(g250
S'A00-2018'
tp3221
a(g251
S'A00-2018'
tp3222
a(g87
S'A00-2018'
tp3223
a(g86
S'A00-2018'
tp3224
a(g85
S'A00-2018'
tp3225
a(g84
S'A00-2018'
tp3226
a(g2406
S'A00-2018'
tp3227
a(S'P05-1039'
S'A00-2018'
tp3228
a(g1907
S'A00-2018'
tp3229
a(g1742
S'A00-2018'
tp3230
a(g1743
S'A00-2018'
tp3231
a(g767
S'A00-2018'
tp3232
a(g1624
S'A00-2018'
tp3233
a(g1954
S'A00-2018'
tp3234
a(S'P06-1022'
S'A00-2018'
tp3235
a(g1953
S'A00-2018'
tp3236
a(g2129
S'A00-2018'
tp3237
a(S'P06-1041'
S'A00-2018'
tp3238
a(S'P06-1048'
S'A00-2018'
tp3239
a(g1064
S'A00-2018'
tp3240
a(g1066
S'A00-2018'
tp3241
a(g1256
S'A00-2018'
tp3242
a(g711
S'A00-2018'
tp3243
a(g358
S'A00-2018'
tp3244
a(g201
S'A00-2018'
tp3245
a(g1290
S'A00-2018'
tp3246
a(g2359
S'A00-2018'
tp3247
a(g2298
S'A00-2018'
tp3248
a(g1105
S'A00-2018'
tp3249
a(g411
S'A00-2018'
tp3250
a(g415
S'A00-2018'
tp3251
a(g584
S'A00-2018'
tp3252
a(g2075
S'A00-2018'
tp3253
a(g2077
S'A00-2018'
tp3254
a(g1926
S'A00-2018'
tp3255
a(g1925
S'A00-2018'
tp3256
a(g285
S'A00-2018'
tp3257
a(g124
S'A00-2018'
tp3258
a(g648
S'A00-2018'
tp3259
a(g92
S'A00-2018'
tp3260
a(g539
S'A00-2018'
tp3261
a(g2248
S'A00-2018'
tp3262
a(g2250
S'A00-2018'
tp3263
a(g1782
S'A00-2018'
tp3264
a(g1123
S'A00-2018'
tp3265
a(g2247
S'A00-2018'
tp3266
a(g2421
S'A00-2018'
tp3267
a(g2409
S'A00-2018'
tp3268
a(g1164
S'A00-2018'
tp3269
a(g312
S'A00-2018'
tp3270
a(g2330
S'A00-2018'
tp3271
a(g1991
S'A00-2018'
tp3272
a(g1990
S'A00-2018'
tp3273
a(g235
S'A00-2018'
tp3274
a(g232
S'A00-2018'
tp3275
a(g914
S'A00-2018'
tp3276
a(g2028
S'A00-2018'
tp3277
a(g2030
S'A00-2018'
tp3278
a(g523
S'A00-2018'
tp3279
a(g883
S'A00-2018'
tp3280
a(g1843
S'A00-2018'
tp3281
a(g2400
S'A00-2018'
tp3282
a(g96
S'A00-2018'
tp3283
a(g257
S'A00-2018'
tp3284
a(g1427
S'A00-2018'
tp3285
a(g304
S'A00-2018'
tp3286
a(g838
S'A00-2018'
tp3287
a(g857
S'A00-2018'
tp3288
a(g1520
S'A00-2018'
tp3289
a(g1522
S'A00-2018'
tp3290
a(g1525
S'A00-2018'
tp3291
a(g51
S'A00-2018'
tp3292
a(g2046
S'A00-2018'
tp3293
a(g1725
S'A00-2018'
tp3294
a(g1724
S'A00-2018'
tp3295
a(g2455
S'A00-2018'
tp3296
a(g2454
S'A00-2018'
tp3297
a(S'Q13-1025'
S'A00-2018'
tp3298
a(S'S12-1031'
S'A00-2018'
tp3299
a(g416
S'A00-2018'
tp3300
a(g1850
S'A00-2018'
tp3301
a(g994
S'A00-2018'
tp3302
a(g1234
S'A00-2018'
tp3303
a(S'W00-1308'
S'A00-2018'
tp3304
a(g2132
S'A00-2018'
tp3305
a(g2133
S'A00-2018'
tp3306
a(S'W01-0712'
S'A00-2018'
tp3307
a(g514
S'A00-2018'
tp3308
a(g749
S'A00-2018'
tp3309
a(g748
S'A00-2018'
tp3310
a(g742
S'A00-2018'
tp3311
a(g245
S'A00-2018'
tp3312
a(g207
S'A00-2018'
tp3313
a(g1949
S'A00-2018'
tp3314
a(g10
S'A00-2018'
tp3315
a(g177
S'A00-2018'
tp3316
a(g2171
S'A00-2018'
tp3317
a(g551
S'A00-2018'
tp3318
a(g1543
S'A00-2018'
tp3319
a(g377
S'A00-2018'
tp3320
a(g2146
S'A00-2018'
tp3321
a(g2145
S'A00-2018'
tp3322
a(g268
S'A00-2018'
tp3323
a(g805
S'A00-2018'
tp3324
a(g976
S'A00-2018'
tp3325
a(g975
S'A00-2018'
tp3326
a(g1353
S'A00-2018'
tp3327
a(g774
S'A00-2018'
tp3328
a(g1462
S'A00-2018'
tp3329
a(g1137
S'A00-2018'
tp3330
a(g764
S'A00-2018'
tp3331
a(g2435
S'A00-2018'
tp3332
a(S'W04-3203'
S'A00-2018'
tp3333
a(g497
S'A00-2018'
tp3334
a(g506
S'A00-2018'
tp3335
a(g1894
S'A00-2018'
tp3336
a(g1893
S'A00-2018'
tp3337
a(g1729
S'A00-2018'
tp3338
a(g999
S'A00-2018'
tp3339
a(g2036
S'A00-2018'
tp3340
a(g2035
S'A00-2018'
tp3341
a(g1880
S'A00-2018'
tp3342
a(g1881
S'A00-2018'
tp3343
a(g772
S'A00-2018'
tp3344
a(g769
S'A00-2018'
tp3345
a(g592
S'A00-2018'
tp3346
a(g590
S'A00-2018'
tp3347
a(g595
S'A00-2018'
tp3348
a(g596
S'A00-2018'
tp3349
a(g593
S'A00-2018'
tp3350
a(g585
S'A00-2018'
tp3351
a(g419
S'A00-2018'
tp3352
a(g220
S'A00-2018'
tp3353
a(g1838
S'A00-2018'
tp3354
a(g1836
S'A00-2018'
tp3355
a(g2165
S'A00-2018'
tp3356
a(g2164
S'A00-2018'
tp3357
a(g1874
S'A00-2018'
tp3358
a(g1184
S'A00-2018'
tp3359
a(g1150
S'A00-2018'
tp3360
a(g555
S'A00-2018'
tp3361
a(g556
S'A00-2018'
tp3362
a(S'W06-2607'
S'A00-2018'
tp3363
a(g2037
S'A00-2018'
tp3364
a(g1298
S'A00-2018'
tp3365
a(S'W06-2904'
S'A00-2018'
tp3366
a(g714
S'A00-2018'
tp3367
a(g211
S'A00-2018'
tp3368
a(g1803
S'A00-2018'
tp3369
a(g1943
S'A00-2018'
tp3370
a(g2443
S'A00-2018'
tp3371
a(g684
S'A00-2018'
tp3372
a(g683
S'A00-2018'
tp3373
a(g2448
S'A00-2018'
tp3374
a(g311
S'A00-2018'
tp3375
a(g680
S'A00-2018'
tp3376
a(g1237
S'A00-2018'
tp3377
a(g1842
S'A00-2018'
tp3378
a(g553
S'A00-2018'
tp3379
a(g331
S'A00-2018'
tp3380
a(g2372
S'A00-2018'
tp3381
a(g2206
S'A00-2018'
tp3382
a(g1451
S'A00-2018'
tp3383
a(g1276
S'A00-2018'
tp3384
a(g1275
S'A00-2018'
tp3385
a(g2069
S'A00-2018'
tp3386
a(g481
S'A00-2018'
tp3387
a(g1563
S'A00-2018'
tp3388
a(g1367
S'A00-2018'
tp3389
a(g2254
S'A00-2018'
tp3390
a(g882
S'A00-2018'
tp3391
a(g1011
S'A00-2018'
tp3392
a(S'W09-1008'
S'A00-2018'
tp3393
a(g191
S'A00-2018'
tp3394
a(g519
S'A00-2018'
tp3395
a(g2350
S'A00-2018'
tp3396
a(g2353
S'A00-2018'
tp3397
a(g33
S'A00-2018'
tp3398
a(g546
S'A00-2018'
tp3399
a(g1279
S'A00-2018'
tp3400
a(g589
S'A00-2018'
tp3401
a(g1685
S'A00-2018'
tp3402
a(g572
S'A00-2018'
tp3403
a(g1038
S'A00-2018'
tp3404
a(g526
S'A00-2018'
tp3405
a(g763
S'A00-2018'
tp3406
a(g2381
S'A00-2018'
tp3407
a(g2061
S'A00-2018'
tp3408
a(g1474
S'A00-2018'
tp3409
a(g2344
S'A00-2018'
tp3410
a(g1972
S'A00-2018'
tp3411
a(g1973
S'A00-2018'
tp3412
a(g988
S'A00-2018'
tp3413
a(g821
S'A00-2018'
tp3414
a(g823
S'A00-2018'
tp3415
a(g483
g1634
tp3416
a(g1251
S'A00-2019'
tp3417
a(g987
S'A00-2019'
tp3418
a(g1865
S'A00-2019'
tp3419
a(g1517
S'A00-2019'
tp3420
a(g1313
S'A00-2019'
tp3421
a(g998
S'A00-2019'
tp3422
a(g1464
S'A00-2019'
tp3423
a(g2128
S'A00-2019'
tp3424
a(g2130
S'A00-2019'
tp3425
a(g1579
S'A00-2019'
tp3426
a(g1844
S'A00-2019'
tp3427
a(g1050
S'A00-2019'
tp3428
a(g112
S'A00-2019'
tp3429
a(g2340
S'A00-2019'
tp3430
a(g1426
S'A00-2019'
tp3431
a(g2067
S'A00-2019'
tp3432
a(g2280
S'A00-2019'
tp3433
a(g524
S'A00-2019'
tp3434
a(g351
S'A00-2019'
tp3435
a(g2118
S'A00-2019'
tp3436
a(g340
S'A00-2019'
tp3437
a(g1063
g1823
tp3438
a(g2191
S'A00-2020'
tp3439
a(g907
S'A00-2020'
tp3440
a(g315
S'A00-2020'
tp3441
a(g665
S'A00-2020'
tp3442
a(g29
S'A00-2020'
tp3443
a(g1747
g1824
tp3444
a(g646
S'A00-2021'
tp3445
a(S'J07-4004'
S'A00-2021'
tp3446
a(S'N03-1027'
S'A00-2021'
tp3447
a(g2368
S'A00-2021'
tp3448
a(S'P05-1011'
S'A00-2021'
tp3449
a(g886
S'A00-2021'
tp3450
a(g1734
S'A00-2021'
tp3451
a(g1080
S'A00-2021'
tp3452
a(g541
S'A00-2021'
tp3453
a(g2374
S'A00-2021'
tp3454
a(g2376
S'A00-2021'
tp3455
a(g2379
S'A00-2021'
tp3456
a(g1021
S'A00-2021'
tp3457
a(g188
S'A00-2021'
tp3458
a(g686
g1821
tp3459
a(g1102
S'A00-2022'
tp3460
a(g470
S'A00-2022'
tp3461
a(S'D13-1120'
S'A00-2022'
tp3462
a(g644
S'A00-2022'
tp3463
a(S'J08-1002'
S'A00-2022'
tp3464
a(S'N10-1002'
S'A00-2022'
tp3465
a(g2134
S'A00-2022'
tp3466
a(g1480
S'A00-2022'
tp3467
a(g594
S'A00-2022'
tp3468
a(g90
S'A00-2022'
tp3469
a(g920
S'A00-2022'
tp3470
a(g476
S'A00-2022'
tp3471
a(g479
S'A00-2022'
tp3472
a(g1909
g1822
tp3473
a(g1260
S'A00-2023'
tp3474
a(S'C04-1097'
S'A00-2023'
tp3475
a(g467
S'A00-2023'
tp3476
a(S'D07-1028'
S'A00-2023'
tp3477
a(g504
S'A00-2023'
tp3478
a(g1310
S'A00-2023'
tp3479
a(S'J06-2003'
S'A00-2023'
tp3480
a(g8
S'A00-2023'
tp3481
a(g1592
S'A00-2023'
tp3482
a(g789
S'A00-2023'
tp3483
a(g66
S'A00-2023'
tp3484
a(g1053
S'A00-2023'
tp3485
a(g1429
S'A00-2023'
tp3486
a(S'P02-1057'
S'A00-2023'
tp3487
a(g474
S'A00-2023'
tp3488
a(g1749
S'A00-2023'
tp3489
a(g2408
S'A00-2023'
tp3490
a(g771
S'A00-2023'
tp3491
a(g852
S'A00-2023'
tp3492
a(g1109
S'A00-2023'
tp3493
a(g1409
S'A00-2023'
tp3494
a(g2348
S'A00-2023'
tp3495
a(g1847
S'A00-2023'
tp3496
a(g1728
S'A00-2023'
tp3497
a(S'W01-0520'
S'A00-2023'
tp3498
a(g330
S'A00-2023'
tp3499
a(g2230
S'A00-2023'
tp3500
a(g591
S'A00-2023'
tp3501
a(S'W05-1601'
S'A00-2023'
tp3502
a(g569
S'A00-2023'
tp3503
a(g799
S'A00-2023'
tp3504
a(g2210
S'A00-2023'
tp3505
a(g2373
S'A00-2023'
tp3506
a(S'W08-1112'
S'A00-2023'
tp3507
a(g991
S'A00-2023'
tp3508
a(g1187
S'A00-2023'
tp3509
a(g2354
S'A00-2023'
tp3510
a(g394
S'A00-2023'
tp3511
a(S'A00-1043'
S'A00-2024'
tp3512
a(g1039
S'A00-2024'
tp3513
a(g2170
S'A00-2024'
tp3514
a(g1645
S'A00-2024'
tp3515
a(S'D10-1050'
S'A00-2024'
tp3516
a(g1252
S'A00-2024'
tp3517
a(S'H05-1033'
S'A00-2024'
tp3518
a(g14
S'A00-2024'
tp3519
a(S'I08-1016'
S'A00-2024'
tp3520
a(g1133
S'A00-2024'
tp3521
a(S'J02-4002'
S'A00-2024'
tp3522
a(g143
S'A00-2024'
tp3523
a(S'J02-4005'
S'A00-2024'
tp3524
a(S'J05-3002'
S'A00-2024'
tp3525
a(S'J11-4007'
S'A00-2024'
tp3526
a(S'P10-1058'
S'A00-2024'
tp3527
a(S'P11-3002'
S'A00-2024'
tp3528
a(g71
S'A00-2024'
tp3529
a(g1512
S'A00-2024'
tp3530
a(S'W02-1907'
S'A00-2024'
tp3531
a(g1106
S'A00-2024'
tp3532
a(g2299
S'A00-2024'
tp3533
a(g162
S'A00-2024'
tp3534
a(g2441
S'A00-2024'
tp3535
a(g2446
S'A00-2024'
tp3536
a(g667
S'A00-2024'
tp3537
a(g2209
S'A00-2024'
tp3538
a(S'W13-3508'
S'A00-2024'
tp3539
a(S'C00-2140'
g673
tp3540
a(g1554
S'A00-2025'
tp3541
a(g527
S'A00-2025'
tp3542
a(g653
S'A00-2025'
tp3543
a(g1761
S'A00-2025'
tp3544
a(g77
S'A00-2025'
tp3545
a(g689
S'A00-2025'
tp3546
a(g1329
S'A00-2025'
tp3547
a(S'C00-1007'
g1817
tp3548
a(g236
S'A00-2026'
tp3549
a(S'C02-1064'
S'A00-2026'
tp3550
a(S'C08-1038'
S'A00-2026'
tp3551
a(S'D07-1028'
S'A00-2026'
tp3552
a(g892
S'A00-2026'
tp3553
a(g1238
S'A00-2026'
tp3554
a(g1902
S'A00-2026'
tp3555
a(S'N01-1001'
S'A00-2026'
tp3556
a(g788
S'A00-2026'
tp3557
a(g2382
S'A00-2026'
tp3558
a(g1209
S'A00-2026'
tp3559
a(g76
S'A00-2026'
tp3560
a(g944
S'A00-2026'
tp3561
a(S'P06-1130'
S'A00-2026'
tp3562
a(g1731
S'A00-2026'
tp3563
a(g2169
S'A00-2026'
tp3564
a(S'P13-1152'
S'A00-2026'
tp3565
a(S'W01-0520'
S'A00-2026'
tp3566
a(g389
S'A00-2026'
tp3567
a(g1678
S'A00-2026'
tp3568
a(g1487
S'A00-2026'
tp3569
a(S'W05-1601'
S'A00-2026'
tp3570
a(g2074
S'A00-2026'
tp3571
a(g1473
S'A00-2026'
tp3572
a(S'W10-1617'
S'A00-2026'
tp3573
a(g169
S'A00-2026'
tp3574
a(S'A00-1014'
S'A00-2027'
tp3575
a(g1096
S'A00-2027'
tp3576
a(g1171
S'A00-2027'
tp3577
a(S'W00-0310'
S'A00-2027'
tp3578
a(g2076
g1815
tp3579
a(g2119
S'A00-2028'
tp3580
a(g1212
S'A00-2028'
tp3581
a(g1574
S'A00-2028'
tp3582
a(S'P04-1012'
S'A00-2028'
tp3583
a(g528
S'A00-2028'
tp3584
a(g234
S'A00-2028'
tp3585
a(S'W00-1017'
S'A00-2028'
tp3586
a(g101
S'A00-2028'
tp3587
a(g310
S'A00-2028'
tp3588
a(g496
g1816
tp3589
a(S'N01-1027'
S'A00-2029'
tp3590
a(g2412
S'A00-2029'
tp3591
a(g2238
S'A00-2029'
tp3592
a(g1071
S'A00-2029'
tp3593
a(g1056
S'A00-2029'
tp3594
a(g1950
S'A00-2029'
tp3595
a(g2469
S'A00-2029'
tp3596
a(g318
g1964
tp3597
a(g605
S'A00-2030'
tp3598
a(g2137
S'A00-2030'
tp3599
a(g695
S'A00-2030'
tp3600
a(g271
S'A00-2030'
tp3601
a(g270
S'A00-2030'
tp3602
a(g2476
S'A00-2030'
tp3603
a(g2285
S'A00-2030'
tp3604
a(g280
S'A00-2030'
tp3605
a(S'J02-3001'
S'A00-2030'
tp3606
a(S'J03-4003'
S'A00-2030'
tp3607
a(g173
S'A00-2030'
tp3608
a(S'N01-1001'
S'A00-2030'
tp3609
a(g61
S'A00-2030'
tp3610
a(g2278
S'A00-2030'
tp3611
a(g2277
S'A00-2030'
tp3612
a(g1449
S'A00-2030'
tp3613
a(g430
S'A00-2030'
tp3614
a(g782
S'A00-2030'
tp3615
a(g1097
S'A00-2030'
tp3616
a(g2411
S'A00-2030'
tp3617
a(g399
S'A00-2030'
tp3618
a(g2058
S'A00-2030'
tp3619
a(g2059
S'A00-2030'
tp3620
a(g1904
S'A00-2030'
tp3621
a(g1806
S'A00-2030'
tp3622
a(g1805
S'A00-2030'
tp3623
a(S'P06-1040'
S'A00-2030'
tp3624
a(g1415
S'A00-2030'
tp3625
a(g709
S'A00-2030'
tp3626
a(g2251
S'A00-2030'
tp3627
a(g1117
S'A00-2030'
tp3628
a(g2029
S'A00-2030'
tp3629
a(g149
S'A00-2030'
tp3630
a(g2151
S'A00-2030'
tp3631
a(g1393
S'A00-2030'
tp3632
a(g2380
S'A00-2030'
tp3633
a(g1876
S'A00-2030'
tp3634
a(S'W06-0508'
S'A00-2030'
tp3635
a(g1475
S'A00-2030'
tp3636
a(g166
S'A00-2030'
tp3637
a(g2202
S'A00-2030'
tp3638
a(g1368
S'A00-2030'
tp3639
a(g99
S'A00-2030'
tp3640
a(g2000
S'A00-2030'
tp3641
a(g1694
S'A00-2030'
tp3642
a(S'C02-1013'
g1763
tp3643
a(g1625
S'A00-2031'
tp3644
a(S'C04-1010'
S'A00-2031'
tp3645
a(g1938
S'A00-2031'
tp3646
a(S'E03-1025'
S'A00-2031'
tp3647
a(S'H05-1078'
S'A00-2031'
tp3648
a(S'J02-3001'
S'A00-2031'
tp3649
a(S'J03-4003'
S'A00-2031'
tp3650
a(S'J07-3004'
S'A00-2031'
tp3651
a(g2468
S'A00-2031'
tp3652
a(g383
S'A00-2031'
tp3653
a(S'N06-1023'
S'A00-2031'
tp3654
a(S'N06-1024'
S'A00-2031'
tp3655
a(g2371
S'A00-2031'
tp3656
a(S'P04-1040'
S'A00-2031'
tp3657
a(S'P04-1082'
S'A00-2031'
tp3658
a(S'P05-1036'
S'A00-2031'
tp3659
a(S'P05-1039'
S'A00-2031'
tp3660
a(g853
S'A00-2031'
tp3661
a(g1897
S'A00-2031'
tp3662
a(g849
S'A00-2031'
tp3663
a(g2027
S'A00-2031'
tp3664
a(S'P11-1123'
S'A00-2031'
tp3665
a(g2457
S'A00-2031'
tp3666
a(g60
S'A00-2031'
tp3667
a(g568
S'A00-2031'
tp3668
a(S'W03-0411'
S'A00-2031'
tp3669
a(g371
S'A00-2031'
tp3670
a(S'W03-1210'
S'A00-2031'
tp3671
a(S'W03-2008'
S'A00-2031'
tp3672
a(g1028
S'A00-2031'
tp3673
a(g1254
S'A00-2031'
tp3674
a(S'W05-1509'
S'A00-2031'
tp3675
a(g452
g1966
tp3676
a(g1308
S'A00-2032'
tp3677
a(g1073
S'A00-2032'
tp3678
a(g40
S'A00-2032'
tp3679
a(g2419
S'A00-2032'
tp3680
a(g2488
S'A00-2032'
tp3681
a(g1026
g1965
tp3682
a(g1025
S'A00-2033'
tp3683
a(S'P01-1022'
S'A00-2033'
tp3684
a(g2050
S'A00-2033'
tp3685
a(g2204
S'A00-2033'
tp3686
a(g1884
g1968
tp3687
a(S'C02-1013'
S'A00-2034'
tp3688
a(S'C02-1132'
S'A00-2034'
tp3689
a(g2188
S'A00-2034'
tp3690
a(g2452
S'A00-2034'
tp3691
a(g545
S'A00-2034'
tp3692
a(g2449
S'A00-2034'
tp3693
a(g1518
S'A00-2034'
tp3694
a(S'J02-3001'
S'A00-2034'
tp3695
a(g159
S'A00-2034'
tp3696
a(g1161
S'A00-2034'
tp3697
a(S'J04-1003'
S'A00-2034'
tp3698
a(S'J05-1004'
S'A00-2034'
tp3699
a(S'J12-3005'
S'A00-2034'
tp3700
a(g617
S'A00-2034'
tp3701
a(g1278
S'A00-2034'
tp3702
a(g1397
S'A00-2034'
tp3703
a(g1941
S'A00-2034'
tp3704
a(g566
S'A00-2034'
tp3705
a(g1672
S'A00-2034'
tp3706
a(g993
S'A00-2034'
tp3707
a(g1868
S'A00-2034'
tp3708
a(g278
S'A00-2034'
tp3709
a(g1030
S'A00-2034'
tp3710
a(S'C02-1073'
g1967
tp3711
a(g641
S'A00-2035'
tp3712
a(g1152
S'A00-2035'
tp3713
a(g1679
S'A00-2035'
tp3714
a(g1951
S'A00-2035'
tp3715
a(g2199
g1970
tp3716
a(g1485
g1969
tp3717
a(g685
g1774
tp3718
a(g2363
S'A00-2038'
tp3719
a(g710
S'A00-2038'
tp3720
a(g209
S'A00-2038'
tp3721
a(g618
S'A00-2038'
tp3722
a(g1944
S'A00-2038'
tp3723
a(g1119
S'A00-2038'
tp3724
a(g731
S'A00-2038'
tp3725
a(g549
S'A00-2038'
tp3726
a(g2172
S'A00-2038'
tp3727
a(g554
S'A00-2038'
tp3728
a(g525
S'A00-2038'
tp3729
a(g716
S'A00-2038'
tp3730
a(g2377
S'A00-2038'
tp3731
a(g473
S'A00-2038'
tp3732
a(g1232
S'A00-2038'
tp3733
a(g126
S'A00-2038'
tp3734
a(g2267
S'A00-2038'
tp3735
a(g946
S'A00-2038'
tp3736
a(g1790
S'A00-2038'
tp3737
a(g2274
S'A00-2038'
tp3738
a(g1971
S'A00-2039'
tp3739
a(g939
S'A00-2039'
tp3740
a(g543
g2141
tp3741
a(g151
S'A00-2040'
tp3742
a(S'A00-1008'
g267
tp3743
a(g464
S'A00-2041'
tp3744
a(g1272
S'A00-2041'
tp3745
a(g970
S'A00-2041'
tp3746
a(g2338
S'A00-2041'
tp3747
a(g2175
S'A00-2041'
tp3748
a(g1752
S'A00-2041'
tp3749
a(g2147
S'A00-2041'
tp3750
a(g1871
S'A00-2041'
tp3751
a(g1870
S'A00-2041'
tp3752
a(g1189
S'A00-2041'
tp3753
a(g672
S'A00-2041'
tp3754
a(S'W06-3502'
S'A00-2041'
tp3755
a(g921
S'A00-2041'
tp3756
a(g2326
S'A00-2041'
tp3757
a(g1199
g2144
tp3758
a(g1020
S'A00-2043'
tp3759
a(g580
S'A00-2043'
tp3760
a(g1657
g2460
tp3761
a(g1540
S'A00-3001'
tp3762
a(g1216
g2463
tp3763
a(g2361
g1490
tp3764
a(g1787
S'A83-1002'
tp3765
a(g1692
S'A83-1002'
tp3766
a(g1225
S'A83-1002'
tp3767
a(g2033
S'A83-1002'
tp3768
a(g965
g1491
tp3769
a(g1477
S'A83-1003'
tp3770
a(g167
S'A83-1003'
tp3771
a(g2003
S'A83-1003'
tp3772
a(g1723
S'A83-1003'
tp3773
a(g365
g1492
tp3774
a(g355
S'A83-1004'
tp3775
a(S'J84-2001'
S'A83-1004'
tp3776
a(S'P84-1013'
S'A83-1004'
tp3777
a(S'A88-1007'
g1493
tp3778
a(S'C92-2122'
S'A83-1006'
tp3779
a(g2271
S'A83-1006'
tp3780
a(S'E85-1030'
S'A83-1006'
tp3781
a(g588
S'A83-1006'
tp3782
a(g1072
S'A83-1006'
tp3783
a(S'J84-2001'
S'A83-1006'
tp3784
a(g341
S'A83-1006'
tp3785
a(g1328
S'A83-1006'
tp3786
a(g1500
S'A83-1006'
tp3787
a(S'P84-1013'
S'A83-1006'
tp3788
a(g2005
S'A83-1006'
tp3789
a(g1495
S'A83-1006'
tp3790
a(g25
S'A83-1006'
tp3791
a(g2405
S'A83-1006'
tp3792
a(S'P86-1005'
S'A83-1006'
tp3793
a(S'J86-3002'
g1494
tp3794
a(S'P84-1023'
S'A83-1007'
tp3795
a(g1663
S'A83-1007'
tp3796
a(g446
g1488
tp3797
a(g790
S'A83-1009'
tp3798
a(g2349
S'A83-1009'
tp3799
a(g2404
S'A83-1009'
tp3800
a(g936
g1684
tp3801
a(g1689
g1688
tp3802
a(g1010
S'A83-1015'
tp3803
a(g434
S'A83-1015'
tp3804
a(g1768
S'A83-1015'
tp3805
a(g1767
S'A83-1015'
tp3806
a(g1222
S'A83-1015'
tp3807
a(S'A83-1014'
g1687
tp3808
a(S'H86-1009'
S'A83-1016'
tp3809
a(g2403
S'A83-1016'
tp3810
a(S'J86-3002'
S'A83-1016'
tp3811
a(S'P84-1023'
S'A83-1016'
tp3812
a(S'P84-1108'
S'A83-1016'
tp3813
a(g2450
S'A83-1016'
tp3814
a(S'A83-1014'
g1686
tp3815
a(S'J83-3003'
S'A83-1017'
tp3816
a(g2493
g1681
tp3817
a(g1385
g1853
tp3818
a(g2252
S'A83-1027'
tp3819
a(g1668
S'A83-1027'
tp3820
a(g1472
S'A83-1027'
tp3821
a(g558
g1851
tp3822
a(g1658
S'A83-1028'
tp3823
a(S'J83-3002'
S'A83-1028'
tp3824
a(S'J85-1001'
S'A83-1028'
tp3825
a(g502
S'A83-1028'
tp3826
a(S'P84-1116'
S'A83-1028'
tp3827
a(g858
g1852
tp3828
a(g529
g2001
tp3829
a(S'J84-2001'
S'A83-1031'
tp3830
a(g1939
g963
tp3831
a(g147
S'A88-1002'
tp3832
a(g443
S'A88-1002'
tp3833
a(g1568
S'A88-1002'
tp3834
a(g693
g962
tp3835
a(g2157
S'A88-1003'
tp3836
a(g2310
S'A88-1003'
tp3837
a(S'D09-1103'
S'A88-1003'
tp3838
a(g1565
S'A88-1003'
tp3839
a(S'J01-4001'
S'A88-1003'
tp3840
a(g19
S'A88-1003'
tp3841
a(g1921
S'A88-1003'
tp3842
a(g967
S'A88-1003'
tp3843
a(g2394
S'A88-1003'
tp3844
a(g1828
S'A88-1003'
tp3845
a(g350
S'A88-1003'
tp3846
a(g1182
S'A88-1003'
tp3847
a(g2194
S'A88-1003'
tp3848
a(g1758
S'A88-1003'
tp3849
a(g1919
S'A88-1003'
tp3850
a(g898
S'A88-1003'
tp3851
a(g2161
S'A88-1003'
tp3852
a(g1857
g964
tp3853
a(g2021
S'A88-1004'
tp3854
a(g1698
g840
tp3855
a(g299
S'A88-1006'
tp3856
a(g1436
S'A88-1007'
tp3857
a(g2472
S'A88-1007'
tp3858
a(g1911
S'A88-1007'
tp3859
a(g828
S'A88-1007'
tp3860
a(S'P88-1002'
S'A88-1007'
tp3861
a(g522
S'A88-1007'
tp3862
a(g1169
S'A88-1007'
tp3863
a(g1533
g960
tp3864
a(g785
S'A88-1008'
tp3865
a(g2424
S'A88-1008'
tp3866
a(g1183
g959
tp3867
a(g990
g744
tp3868
a(g758
g745
tp3869
a(g2017
S'A88-1011'
tp3870
a(g2019
S'A88-1011'
tp3871
a(g273
S'A88-1011'
tp3872
a(g796
S'A88-1011'
tp3873
a(g643
S'A88-1011'
tp3874
a(g1461
S'A88-1011'
tp3875
a(g89
S'A88-1011'
tp3876
a(g561
g2370
tp3877
a(g1008
S'A88-1012'
tp3878
a(g1811
S'A88-1012'
tp3879
a(g58
S'A88-1012'
tp3880
a(g924
S'A88-1012'
tp3881
a(g1037
S'A88-1012'
tp3882
a(g500
S'A88-1012'
tp3883
a(g698
g743
tp3884
a(g896
g740
tp3885
a(g808
S'A88-1014'
tp3886
a(g303
S'A88-1014'
tp3887
a(g2097
S'A88-1014'
tp3888
a(S'P89-1012'
S'A88-1014'
tp3889
a(g626
S'A88-1014'
tp3890
a(g1029
g741
tp3891
a(g1859
g2333
tp3892
a(g762
S'A88-1016'
tp3893
a(g1180
g750
tp3894
a(g2413
S'A88-1018'
tp3895
a(g846
S'A88-1018'
tp3896
a(g1023
S'A88-1018'
tp3897
a(g1024
S'A88-1018'
tp3898
a(S'C90-3085'
S'A88-1018'
tp3899
a(g1661
S'A88-1018'
tp3900
a(S'H90-1070'
S'A88-1018'
tp3901
a(g1003
S'A88-1018'
tp3902
a(g1664
S'A88-1018'
tp3903
a(g1297
S'A88-1018'
tp3904
a(S'A00-1024'
g2101
tp3905
a(S'A00-1026'
S'A88-1019'
tp3906
a(S'A00-1042'
S'A88-1019'
tp3907
a(S'A00-2013'
S'A88-1019'
tp3908
a(g378
S'A88-1019'
tp3909
a(g1997
S'A88-1019'
tp3910
a(g1497
S'A88-1019'
tp3911
a(g1498
S'A88-1019'
tp3912
a(g816
S'A88-1019'
tp3913
a(g819
S'A88-1019'
tp3914
a(g980
S'A88-1019'
tp3915
a(g978
S'A88-1019'
tp3916
a(g1177
S'A88-1019'
tp3917
a(S'A94-1029'
S'A88-1019'
tp3918
a(g613
S'A88-1019'
tp3919
a(g423
S'A88-1019'
tp3920
a(g1197
S'A88-1019'
tp3921
a(g1202
S'A88-1019'
tp3922
a(g1200
S'A88-1019'
tp3923
a(g456
S'A88-1019'
tp3924
a(g1129
S'A88-1019'
tp3925
a(g2040
S'A88-1019'
tp3926
a(g229
S'A88-1019'
tp3927
a(g1060
S'A88-1019'
tp3928
a(g1571
S'A88-1019'
tp3929
a(g1407
S'A88-1019'
tp3930
a(g1812
S'A88-1019'
tp3931
a(g847
S'A88-1019'
tp3932
a(g148
S'A88-1019'
tp3933
a(g508
S'A88-1019'
tp3934
a(g869
S'A88-1019'
tp3935
a(g922
S'A88-1019'
tp3936
a(g515
S'A88-1019'
tp3937
a(g516
S'A88-1019'
tp3938
a(g517
S'A88-1019'
tp3939
a(g699
S'A88-1019'
tp3940
a(g2481
S'A88-1019'
tp3941
a(g329
S'A88-1019'
tp3942
a(g2100
S'A88-1019'
tp3943
a(g2166
S'A88-1019'
tp3944
a(g1496
S'A88-1019'
tp3945
a(g1933
S'A88-1019'
tp3946
a(g2094
S'A88-1019'
tp3947
a(g2227
S'A88-1019'
tp3948
a(g73
S'A88-1019'
tp3949
a(g129
S'A88-1019'
tp3950
a(S'E09-1079'
S'A88-1019'
tp3951
a(g2290
S'A88-1019'
tp3952
a(g135
S'A88-1019'
tp3953
a(g136
S'A88-1019'
tp3954
a(g37
S'A88-1019'
tp3955
a(g381
S'A88-1019'
tp3956
a(g2356
S'A88-1019'
tp3957
a(g204
S'A88-1019'
tp3958
a(g1193
S'A88-1019'
tp3959
a(g1191
S'A88-1019'
tp3960
a(g1908
S'A88-1019'
tp3961
a(g441
S'A88-1019'
tp3962
a(g442
S'A88-1019'
tp3963
a(g977
S'A88-1019'
tp3964
a(g827
S'A88-1019'
tp3965
a(g1004
S'A88-1019'
tp3966
a(g2125
S'A88-1019'
tp3967
a(g1570
S'A88-1019'
tp3968
a(g1569
S'A88-1019'
tp3969
a(g1755
S'A88-1019'
tp3970
a(g1756
S'A88-1019'
tp3971
a(g1412
S'A88-1019'
tp3972
a(g1411
S'A88-1019'
tp3973
a(g1414
S'A88-1019'
tp3974
a(g1413
S'A88-1019'
tp3975
a(g2185
S'A88-1019'
tp3976
a(g2439
S'A88-1019'
tp3977
a(g2437
S'A88-1019'
tp3978
a(g2264
S'A88-1019'
tp3979
a(g1781
S'A88-1019'
tp3980
a(g1606
S'A88-1019'
tp3981
a(g2104
S'A88-1019'
tp3982
a(g1940
S'A88-1019'
tp3983
a(g274
S'A88-1019'
tp3984
a(S'I05-2022'
S'A88-1019'
tp3985
a(g1321
S'A88-1019'
tp3986
a(g447
S'A88-1019'
tp3987
a(S'J01-2002'
S'A88-1019'
tp3988
a(g2322
S'A88-1019'
tp3989
a(S'J02-3002'
S'A88-1019'
tp3990
a(g2187
S'A88-1019'
tp3991
a(S'J90-3003'
S'A88-1019'
tp3992
a(S'J92-1001'
S'A88-1019'
tp3993
a(g2307
S'A88-1019'
tp3994
a(g2304
S'A88-1019'
tp3995
a(g2305
S'A88-1019'
tp3996
a(g2306
S'A88-1019'
tp3997
a(g2256
S'A88-1019'
tp3998
a(g1665
S'A88-1019'
tp3999
a(S'J93-2005'
S'A88-1019'
tp4000
a(g1666
S'A88-1019'
tp4001
a(g1305
S'A88-1019'
tp4002
a(g2034
S'A88-1019'
tp4003
a(g902
S'A88-1019'
tp4004
a(g901
S'A88-1019'
tp4005
a(g2434
S'A88-1019'
tp4006
a(g1976
S'A88-1019'
tp4007
a(g1883
S'A88-1019'
tp4008
a(g309
S'A88-1019'
tp4009
a(g119
S'A88-1019'
tp4010
a(g926
S'A88-1019'
tp4011
a(g2466
S'A88-1019'
tp4012
a(g957
S'A88-1019'
tp4013
a(g2091
S'A88-1019'
tp4014
a(g1354
S'A88-1019'
tp4015
a(g717
S'A88-1019'
tp4016
a(g715
S'A88-1019'
tp4017
a(S'L08-1454'
S'A88-1019'
tp4018
a(g2283
S'A88-1019'
tp4019
a(g791
S'A88-1019'
tp4020
a(g1746
S'A88-1019'
tp4021
a(S'N03-1033'
S'A88-1019'
tp4022
a(S'N03-1035'
S'A88-1019'
tp4023
a(g1764
S'A88-1019'
tp4024
a(g938
S'A88-1019'
tp4025
a(g1138
S'A88-1019'
tp4026
a(g1139
S'A88-1019'
tp4027
a(S'P00-1035'
S'A88-1019'
tp4028
a(g724
S'A88-1019'
tp4029
a(S'P02-1055'
S'A88-1019'
tp4030
a(g172
S'A88-1019'
tp4031
a(g2327
S'A88-1019'
tp4032
a(S'P07-2053'
S'A88-1019'
tp4033
a(g679
S'A88-1019'
tp4034
a(g499
S'A88-1019'
tp4035
a(g2182
S'A88-1019'
tp4036
a(g2181
S'A88-1019'
tp4037
a(g2183
S'A88-1019'
tp4038
a(g548
S'A88-1019'
tp4039
a(g909
S'A88-1019'
tp4040
a(g1099
S'A88-1019'
tp4041
a(g1104
S'A88-1019'
tp4042
a(g1103
S'A88-1019'
tp4043
a(g1830
S'A88-1019'
tp4044
a(g1460
S'A88-1019'
tp4045
a(g1300
S'A88-1019'
tp4046
a(g2303
S'A88-1019'
tp4047
a(g705
S'A88-1019'
tp4048
a(g349
S'A88-1019'
tp4049
a(g32
S'A88-1019'
tp4050
a(g1249
S'A88-1019'
tp4051
a(g1599
S'A88-1019'
tp4052
a(g2095
S'A88-1019'
tp4053
a(g1168
S'A88-1019'
tp4054
a(g1577
S'A88-1019'
tp4055
a(g1389
S'A88-1019'
tp4056
a(g1219
S'A88-1019'
tp4057
a(g1009
S'A88-1019'
tp4058
a(g829
S'A88-1019'
tp4059
a(g831
S'A88-1019'
tp4060
a(g773
S'A88-1019'
tp4061
a(g734
S'A88-1019'
tp4062
a(g409
S'A88-1019'
tp4063
a(g414
S'A88-1019'
tp4064
a(g586
S'A88-1019'
tp4065
a(g1170
S'A88-1019'
tp4066
a(g1711
S'A88-1019'
tp4067
a(g294
S'A88-1019'
tp4068
a(g466
S'A88-1019'
tp4069
a(g2474
S'A88-1019'
tp4070
a(g2297
S'A88-1019'
tp4071
a(g1789
S'A88-1019'
tp4072
a(g477
S'A88-1019'
tp4073
a(g822
S'A88-1019'
tp4074
a(g636
S'A88-1019'
tp4075
a(g1739
S'A88-1019'
tp4076
a(g1016
S'A88-1019'
tp4077
a(g1014
S'A88-1019'
tp4078
a(g1906
S'A88-1019'
tp4079
a(g433
S'A88-1019'
tp4080
a(g432
S'A88-1019'
tp4081
a(g261
S'A88-1019'
tp4082
a(S'W00-1201'
S'A88-1019'
tp4083
a(g826
S'A88-1019'
tp4084
a(g1227
S'A88-1019'
tp4085
a(g1590
S'A88-1019'
tp4086
a(S'W01-0501'
S'A88-1019'
tp4087
a(S'W01-0509'
S'A88-1019'
tp4088
a(g345
S'A88-1019'
tp4089
a(S'W01-0712'
S'A88-1019'
tp4090
a(S'W02-0102'
S'A88-1019'
tp4091
a(g388
S'A88-1019'
tp4092
a(g240
S'A88-1019'
tp4093
a(g373
S'A88-1019'
tp4094
a(g1544
S'A88-1019'
tp4095
a(g1987
S'A88-1019'
tp4096
a(g67
S'A88-1019'
tp4097
a(S'W06-1701'
S'A88-1019'
tp4098
a(g332
S'A88-1019'
tp4099
a(g520
S'A88-1019'
tp4100
a(g83
S'A88-1019'
tp4101
a(g889
S'A88-1019'
tp4102
a(g720
S'A88-1019'
tp4103
a(g2390
S'A88-1019'
tp4104
a(g948
S'A88-1019'
tp4105
a(g1157
S'A88-1019'
tp4106
a(g161
S'A88-1019'
tp4107
a(g156
S'A88-1019'
tp4108
a(g155
S'A88-1019'
tp4109
a(g2494
S'A88-1019'
tp4110
a(g2495
S'A88-1019'
tp4111
a(g916
S'A88-1019'
tp4112
a(g1114
S'A88-1019'
tp4113
a(g1088
S'A88-1019'
tp4114
a(g1090
S'A88-1019'
tp4115
a(g1089
S'A88-1019'
tp4116
a(g1092
S'A88-1019'
tp4117
a(g1091
S'A88-1019'
tp4118
a(g1323
S'A88-1019'
tp4119
a(g1324
S'A88-1019'
tp4120
a(g2259
S'A88-1019'
tp4121
a(g1633
S'A88-1019'
tp4122
a(g1809
S'A88-1019'
tp4123
a(g2369
S'A88-1019'
tp4124
a(g1262
S'A88-1019'
tp4125
a(g1268
S'A88-1019'
tp4126
a(g2211
S'A88-1019'
tp4127
a(g2324
S'A88-1019'
tp4128
a(g28
S'A88-1019'
tp4129
a(g775
S'A88-1019'
tp4130
a(g600
S'A88-1019'
tp4131
a(g1370
S'A88-1019'
tp4132
a(g1371
S'A88-1019'
tp4133
a(g1562
S'A88-1019'
tp4134
a(g1207
S'A88-1019'
tp4135
a(g700
S'A88-1019'
tp4136
a(g874
S'A88-1019'
tp4137
a(g400
S'A88-1019'
tp4138
a(g1282
S'A88-1019'
tp4139
a(g2115
S'A88-1019'
tp4140
a(S'C88-2166'
S'A88-1020'
tp4141
a(S'H90-1069'
S'A88-1020'
tp4142
a(S'P97-1010'
S'A88-1020'
tp4143
a(g1920
g560
tp4144
a(S'W91-0114'
S'A88-1021'
tp4145
a(g1875
g559
tp4146
a(g1918
S'A88-1023'
tp4147
a(g2496
S'A88-1023'
tp4148
a(g35
g563
tp4149
a(S'A92-1015'
g562
tp4150
a(g59
S'A88-1027'
tp4151
a(g50
S'A88-1027'
tp4152
a(g632
S'A88-1027'
tp4153
a(g2486
S'A88-1027'
tp4154
a(g238
g565
tp4155
a(S'C90-3071'
g1022
tp4156
a(g2398
S'A88-1029'
tp4157
a(g501
S'A88-1029'
tp4158
a(S'A88-1019'
S'A88-1030'
tp4159
a(S'A92-1020'
S'A88-1030'
tp4160
a(S'C00-2089'
S'A88-1030'
tp4161
a(g347
S'A88-1030'
tp4162
a(S'W95-0107'
S'A88-1030'
tp4163
a(g1700
g379
tp4164
a(g376
S'A88-1031'
tp4165
a(g2096
S'A88-1031'
tp4166
a(g1856
S'A88-1031'
tp4167
a(g1627
g380
tp4168
a(g106
S'A88-1032'
tp4169
a(g2239
S'A88-1032'
tp4170
a(g117
S'A88-1032'
tp4171
a(g2473
S'A88-1032'
tp4172
a(g2184
S'A88-1032'
tp4173
a(g1382
g2475
tp4174
a(S'J93-4001'
g382
tp4175
a(g449
g1862
tp4176
a(S'W02-0211'
S'A92-1001'
tp4177
a(g950
S'A92-1001'
tp4178
a(g437
g1861
tp4179
a(g1135
S'A92-1002'
tp4180
a(g2214
S'A92-1002'
tp4181
a(S'A00-1009'
S'A92-1006'
tp4182
a(g812
S'A92-1006'
tp4183
a(g428
S'A92-1006'
tp4184
a(g179
S'A92-1006'
tp4185
a(S'C00-1007'
S'A92-1006'
tp4186
a(S'N01-1003'
S'A92-1006'
tp4187
a(g1913
S'A92-1006'
tp4188
a(g2243
S'A92-1006'
tp4189
a(S'P04-1011'
S'A92-1006'
tp4190
a(g1013
S'A92-1006'
tp4191
a(g113
S'A92-1006'
tp4192
a(g682
S'A92-1006'
tp4193
a(g1536
S'A92-1006'
tp4194
a(g1537
S'A92-1006'
tp4195
a(g314
S'A92-1006'
tp4196
a(g228
S'A92-1006'
tp4197
a(g2212
S'A92-1006'
tp4198
a(g1849
S'A92-1006'
tp4199
a(g1676
S'A92-1006'
tp4200
a(g2025
S'A92-1006'
tp4201
a(g1220
S'A92-1006'
tp4202
a(g2420
S'A92-1006'
tp4203
a(g531
S'A92-1006'
tp4204
a(g98
S'A92-1006'
tp4205
a(g127
S'A92-1006'
tp4206
a(g263
g1858
tp4207
a(g2092
S'A92-1007'
tp4208
a(g2289
g1863
tp4209
a(g1153
S'A92-1008'
tp4210
a(g1932
S'A92-1008'
tp4211
a(g2458
g1864
tp4212
a(g509
S'A92-1009'
tp4213
a(g1301
S'A92-1009'
tp4214
a(g820
S'A92-1009'
tp4215
a(S'W94-0319'
S'A92-1009'
tp4216
a(S'W94-0324'
S'A92-1009'
tp4217
a(S'W94-0329'
S'A92-1009'
tp4218
a(S'W96-0414'
S'A92-1009'
tp4219
a(g2049
S'A92-1009'
tp4220
a(g1860
S'A92-1009'
tp4221
a(S'W94-0324'
g2014
tp4222
a(g2016
g2013
tp4223
a(g1623
S'A92-1011'
tp4224
a(S'C94-1073'
S'A92-1011'
tp4225
a(g1655
S'A92-1011'
tp4226
a(S'J01-3003'
S'A92-1011'
tp4227
a(S'J98-1003'
S'A92-1011'
tp4228
a(g1712
S'A92-1011'
tp4229
a(g534
S'A92-1011'
tp4230
a(S'P93-1033'
S'A92-1011'
tp4231
a(g2291
S'A92-1011'
tp4232
a(g890
S'A92-1011'
tp4233
a(S'W96-0305'
S'A92-1011'
tp4234
a(g1325
S'A92-1011'
tp4235
a(g392
S'A92-1011'
tp4236
a(S'A00-2022'
S'A92-1012'
tp4237
a(S'A92-1011'
S'A92-1012'
tp4238
a(S'C94-1043'
S'A92-1012'
tp4239
a(g1808
S'A92-1012'
tp4240
a(S'E93-1026'
S'A92-1012'
tp4241
a(g2498
S'A92-1012'
tp4242
a(S'A94-1029'
g2015
tp4243
a(g1507
S'A92-1013'
tp4244
a(g1435
S'A92-1013'
tp4245
a(g2131
S'A92-1013'
tp4246
a(g844
S'A92-1013'
tp4247
a(g1936
S'A92-1013'
tp4248
a(g894
S'A92-1013'
tp4249
a(S'W93-0108'
S'A92-1013'
tp4250
a(g951
S'A92-1013'
tp4251
a(g1087
S'A92-1013'
tp4252
a(g1896
S'A92-1013'
tp4253
a(S'C92-2085'
g2018
tp4254
a(S'C94-1073'
S'A92-1014'
tp4255
a(g390
S'A92-1014'
tp4256
a(S'J03-4003'
S'A92-1014'
tp4257
a(S'J05-1005'
S'A92-1014'
tp4258
a(g1923
S'A92-1014'
tp4259
a(g1813
S'A92-1014'
tp4260
a(g1744
S'A92-1014'
tp4261
a(S'P93-1033'
S'A92-1014'
tp4262
a(g2286
S'A92-1014'
tp4263
a(g582
S'A92-1014'
tp4264
a(g2312
S'A92-1014'
tp4265
a(S'A00-1024'
S'A92-1015'
tp4266
a(S'A00-1035'
S'A92-1015'
tp4267
a(S'A92-1017'
S'A92-1015'
tp4268
a(g1608
S'A92-1015'
tp4269
a(S'P98-2142'
S'A92-1015'
tp4270
a(g674
g2020
tp4271
a(g454
S'A92-1016'
tp4272
a(S'A00-1026'
S'A92-1018'
tp4273
a(S'A00-1031'
S'A92-1018'
tp4274
a(S'A92-1021'
S'A92-1018'
tp4275
a(g552
S'A92-1018'
tp4276
a(S'A94-1009'
S'A92-1018'
tp4277
a(S'A94-1013'
S'A92-1018'
tp4278
a(g1176
S'A92-1018'
tp4279
a(g956
S'A92-1018'
tp4280
a(g779
S'A92-1018'
tp4281
a(g778
S'A92-1018'
tp4282
a(g1910
S'A92-1018'
tp4283
a(S'C00-1042'
S'A92-1018'
tp4284
a(S'C00-1081'
S'A92-1018'
tp4285
a(S'C00-2089'
S'A92-1018'
tp4286
a(S'C04-1052'
S'A92-1018'
tp4287
a(g919
S'A92-1018'
tp4288
a(g658
S'A92-1018'
tp4289
a(S'C94-1027'
S'A92-1018'
tp4290
a(S'C94-1032'
S'A92-1018'
tp4291
a(S'C94-1097'
S'A92-1018'
tp4292
a(g718
S'A92-1018'
tp4293
a(S'C94-2118'
S'A92-1018'
tp4294
a(S'C94-2174'
S'A92-1018'
tp4295
a(g305
S'A92-1018'
tp4296
a(g1607
S'A92-1018'
tp4297
a(S'C96-2114'
S'A92-1018'
tp4298
a(S'C96-2136'
S'A92-1018'
tp4299
a(g1120
S'A92-1018'
tp4300
a(S'E06-1034'
S'A92-1018'
tp4301
a(g2190
S'A92-1018'
tp4302
a(g202
S'A92-1018'
tp4303
a(g1270
S'A92-1018'
tp4304
a(S'E95-1022'
S'A92-1018'
tp4305
a(S'E99-1018'
S'A92-1018'
tp4306
a(g195
S'A92-1018'
tp4307
a(S'H92-1022'
S'A92-1018'
tp4308
a(S'H94-1049'
S'A92-1018'
tp4309
a(g577
S'A92-1018'
tp4310
a(g2154
S'A92-1018'
tp4311
a(g21
S'A92-1018'
tp4312
a(S'J13-1005'
S'A92-1018'
tp4313
a(g2308
S'A92-1018'
tp4314
a(g1394
S'A92-1018'
tp4315
a(S'J95-2001'
S'A92-1018'
tp4316
a(S'J95-2004'
S'A92-1018'
tp4317
a(S'J95-3004'
S'A92-1018'
tp4318
a(S'J95-4004'
S'A92-1018'
tp4319
a(S'J97-2002'
S'A92-1018'
tp4320
a(S'J97-3003'
S'A92-1018'
tp4321
a(g253
S'A92-1018'
tp4322
a(g1603
S'A92-1018'
tp4323
a(S'N06-1042'
S'A92-1018'
tp4324
a(S'P00-1036'
S'A92-1018'
tp4325
a(g1107
S'A92-1018'
tp4326
a(S'P07-2056'
S'A92-1018'
tp4327
a(g703
S'A92-1018'
tp4328
a(S'P94-1051'
S'A92-1018'
tp4329
a(S'P95-1039'
S'A92-1018'
tp4330
a(g2444
S'A92-1018'
tp4331
a(g1580
S'A92-1018'
tp4332
a(S'P96-1030'
S'A92-1018'
tp4333
a(S'P97-1029'
S'A92-1018'
tp4334
a(g1173
S'A92-1018'
tp4335
a(S'P97-1032'
S'A92-1018'
tp4336
a(S'P98-1063'
S'A92-1018'
tp4337
a(S'P98-1108'
S'A92-1018'
tp4338
a(S'P98-2208'
S'A92-1018'
tp4339
a(g863
S'A92-1018'
tp4340
a(g145
S'A92-1018'
tp4341
a(g461
S'A92-1018'
tp4342
a(S'W02-0308'
S'A92-1018'
tp4343
a(S'W03-1314'
S'A92-1018'
tp4344
a(S'W04-1211'
S'A92-1018'
tp4345
a(g1654
S'A92-1018'
tp4346
a(g1032
S'A92-1018'
tp4347
a(g2318
S'A92-1018'
tp4348
a(g276
S'A92-1018'
tp4349
a(S'W05-0708'
S'A92-1018'
tp4350
a(S'W93-0111'
S'A92-1018'
tp4351
a(g2391
S'A92-1018'
tp4352
a(S'W94-0111'
S'A92-1018'
tp4353
a(S'W95-0101'
S'A92-1018'
tp4354
a(g597
S'A92-1018'
tp4355
a(S'W96-0102'
S'A92-1018'
tp4356
a(g1115
S'A92-1018'
tp4357
a(S'W96-0205'
S'A92-1018'
tp4358
a(S'W96-0206'
S'A92-1018'
tp4359
a(S'W96-0207'
S'A92-1018'
tp4360
a(g2084
S'A92-1018'
tp4361
a(g1419
S'A92-1018'
tp4362
a(g69
S'A92-1018'
tp4363
a(g601
S'A92-1018'
tp4364
a(S'W98-1207'
S'A92-1018'
tp4365
a(S'W99-0608'
S'A92-1018'
tp4366
a(g264
g2006
tp4367
a(g1478
S'A92-1019'
tp4368
a(S'J94-2001'
S'A92-1019'
tp4369
a(S'A00-1012'
S'A92-1021'
tp4370
a(g1126
S'A92-1021'
tp4371
a(S'A00-1020'
S'A92-1021'
tp4372
a(S'A00-1040'
S'A92-1021'
tp4373
a(S'A94-1009'
S'A92-1021'
tp4374
a(S'A94-1024'
S'A92-1021'
tp4375
a(S'A97-1017'
S'A92-1021'
tp4376
a(g1717
S'A92-1021'
tp4377
a(g39
S'A92-1021'
tp4378
a(g1267
S'A92-1021'
tp4379
a(g2056
S'A92-1021'
tp4380
a(S'C00-1046'
S'A92-1021'
tp4381
a(g1379
S'A92-1021'
tp4382
a(g55
S'A92-1021'
tp4383
a(g1945
S'A92-1021'
tp4384
a(S'C02-1159'
S'A92-1021'
tp4385
a(g2127
S'A92-1021'
tp4386
a(g1190
S'A92-1021'
tp4387
a(S'C04-1080'
S'A92-1021'
tp4388
a(g297
S'A92-1021'
tp4389
a(g2479
S'A92-1021'
tp4390
a(g2309
S'A92-1021'
tp4391
a(g154
S'A92-1021'
tp4392
a(S'C96-1041'
S'A92-1021'
tp4393
a(g2272
S'A92-1021'
tp4394
a(g2492
S'A92-1021'
tp4395
a(g2051
S'A92-1021'
tp4396
a(g2229
S'A92-1021'
tp4397
a(g1365
S'A92-1021'
tp4398
a(g1558
S'A92-1021'
tp4399
a(S'C96-2192'
S'A92-1021'
tp4400
a(g888
S'A92-1021'
tp4401
a(g290
S'A92-1021'
tp4402
a(S'E95-1022'
S'A92-1021'
tp4403
a(g248
S'A92-1021'
tp4404
a(g269
S'A92-1021'
tp4405
a(g116
S'A92-1021'
tp4406
a(g839
S'A92-1021'
tp4407
a(g2438
S'A92-1021'
tp4408
a(S'H94-1049'
S'A92-1021'
tp4409
a(g1316
S'A92-1021'
tp4410
a(g1890
S'A92-1021'
tp4411
a(g937
S'A92-1021'
tp4412
a(S'I08-2130'
S'A92-1021'
tp4413
a(S'I08-3015'
S'A92-1021'
tp4414
a(S'J01-2002'
S'A92-1021'
tp4415
a(g2155
S'A92-1021'
tp4416
a(g2432
S'A92-1021'
tp4417
a(g518
S'A92-1021'
tp4418
a(g458
S'A92-1021'
tp4419
a(S'J95-2001'
S'A92-1021'
tp4420
a(S'J95-2004'
S'A92-1021'
tp4421
a(S'J95-4004'
S'A92-1021'
tp4422
a(g811
S'A92-1021'
tp4423
a(g2186
S'A92-1021'
tp4424
a(g1998
S'A92-1021'
tp4425
a(g2120
S'A92-1021'
tp4426
a(g6
S'A92-1021'
tp4427
a(g2221
S'A92-1021'
tp4428
a(g1065
S'A92-1021'
tp4429
a(g125
S'A92-1021'
tp4430
a(g794
S'A92-1021'
tp4431
a(g2178
S'A92-1021'
tp4432
a(g46
S'A92-1021'
tp4433
a(g2052
S'A92-1021'
tp4434
a(g521
S'A92-1021'
tp4435
a(S'P96-1006'
S'A92-1021'
tp4436
a(g691
S'A92-1021'
tp4437
a(g833
S'A92-1021'
tp4438
a(g660
S'A92-1021'
tp4439
a(g945
S'A92-1021'
tp4440
a(S'P97-1029'
S'A92-1021'
tp4441
a(S'P97-1030'
S'A92-1021'
tp4442
a(S'P97-1031'
S'A92-1021'
tp4443
a(S'P97-1059'
S'A92-1021'
tp4444
a(g133
S'A92-1021'
tp4445
a(S'P98-1063'
S'A92-1021'
tp4446
a(g2478
S'A92-1021'
tp4447
a(g1788
S'A92-1021'
tp4448
a(S'P98-2208'
S'A92-1021'
tp4449
a(g2055
S'A92-1021'
tp4450
a(g1229
S'A92-1021'
tp4451
a(S'S12-1035'
S'A92-1021'
tp4452
a(g1351
S'A92-1021'
tp4453
a(g803
S'A92-1021'
tp4454
a(g802
S'A92-1021'
tp4455
a(g48
S'A92-1021'
tp4456
a(g45
S'A92-1021'
tp4457
a(S'W01-1513'
S'A92-1021'
tp4458
a(g510
S'A92-1021'
tp4459
a(g1845
S'A92-1021'
tp4460
a(g836
S'A92-1021'
tp4461
a(g199
S'A92-1021'
tp4462
a(g576
S'A92-1021'
tp4463
a(g1914
S'A92-1021'
tp4464
a(g631
S'A92-1021'
tp4465
a(g806
S'A92-1021'
tp4466
a(g1195
S'A92-1021'
tp4467
a(g1203
S'A92-1021'
tp4468
a(g2423
S'A92-1021'
tp4469
a(g765
S'A92-1021'
tp4470
a(g719
S'A92-1021'
tp4471
a(S'W09-1707'
S'A92-1021'
tp4472
a(g1001
S'A92-1021'
tp4473
a(S'W10-2209'
S'A92-1021'
tp4474
a(S'W95-0101'
S'A92-1021'
tp4475
a(g2491
S'A92-1021'
tp4476
a(S'W96-0101'
S'A92-1021'
tp4477
a(S'W96-0102'
S'A92-1021'
tp4478
a(S'W96-0203'
S'A92-1021'
tp4479
a(S'W96-0207'
S'A92-1021'
tp4480
a(g2093
S'A92-1021'
tp4481
a(g2262
S'A92-1021'
tp4482
a(g2261
S'A92-1021'
tp4483
a(g1631
S'A92-1021'
tp4484
a(g1630
S'A92-1021'
tp4485
a(g1629
S'A92-1021'
tp4486
a(g1628
S'A92-1021'
tp4487
a(S'W97-0811'
S'A92-1021'
tp4488
a(g1754
S'A92-1021'
tp4489
a(g27
S'A92-1021'
tp4490
a(g983
S'A92-1021'
tp4491
a(S'W98-1110'
S'A92-1021'
tp4492
a(S'W98-1205'
S'A92-1021'
tp4493
a(g1931
S'A92-1021'
tp4494
a(g485
S'A92-1021'
tp4495
a(S'X98-1013'
S'A92-1021'
tp4496
a(S'A00-2032'
g1499
tp4497
a(g1519
S'A92-1022'
tp4498
a(g752
S'A92-1022'
tp4499
a(S'C94-1093'
S'A92-1022'
tp4500
a(g1886
S'A92-1022'
tp4501
a(S'P93-1033'
S'A92-1022'
tp4502
a(S'W05-0211'
S'A92-1022'
tp4503
a(g599
S'A92-1022'
tp4504
a(g421
g1501
tp4505
a(g1693
S'A92-1024'
tp4506
a(g814
g1502
tp4507
a(g623
g1503
tp4508
a(g2201
S'A92-1026'
tp4509
a(g2102
g1504
tp4510
a(g2302
S'A92-1027'
tp4511
a(g1388
S'A92-1027'
tp4512
a(g1396
S'A92-1027'
tp4513
a(g1390
S'A92-1027'
tp4514
a(g893
S'A92-1027'
tp4515
a(g766
S'A92-1027'
tp4516
a(g2422
S'A92-1027'
tp4517
a(g1362
g1505
tp4518
a(g721
S'A92-1028'
tp4519
a(g72
S'A92-1028'
tp4520
a(g1369
S'A92-1028'
tp4521
a(g2471
S'A92-1028'
tp4522
a(g810
S'A92-1028'
tp4523
a(S'W97-0114'
S'A92-1028'
tp4524
a(S'W97-1304'
S'A92-1028'
tp4525
a(g266
g1506
tp4526
a(g1318
S'A92-1029'
tp4527
a(g2042
S'A92-1029'
tp4528
a(g186
g1696
tp4529
a(g436
S'A92-1030'
tp4530
a(g664
S'A92-1030'
tp4531
a(g146
S'A92-1030'
tp4532
a(g1185
S'A92-1030'
tp4533
a(g1172
S'A92-1030'
tp4534
a(g832
S'A92-1030'
tp4535
a(g670
S'A92-1030'
tp4536
a(g1069
S'A92-1030'
tp4537
a(S'M93-1026'
g1699
tp4538
a(g225
S'A92-1036'
tp4539
a(g989
g1697
tp4540
a(g1535
g1701
tp4541
a(g293
S'A92-1039'
tp4542
a(g1662
g320
tp4543
a(S'A92-1012'
g34
tp4544
a(S'C94-1052'
S'A92-1044'
tp4545
a(S'J98-1003'
S'A92-1044'
tp4546
a(g2224
S'A92-1044'
tp4547
a(g1529
S'A92-1045'
tp4548
a(g895
S'A92-1045'
tp4549
a(g265
S'A92-1045'
tp4550
a(g730
S'A92-1045'
tp4551
a(g787
g105
tp4552
a(S'A97-1040'
S'A94-1001'
tp4553
a(g325
S'A94-1001'
tp4554
a(g2072
S'A94-1001'
tp4555
a(g1716
S'A94-1002'
tp4556
a(g639
S'A94-1002'
tp4557
a(g1981
S'A94-1002'
tp4558
a(g1736
S'A94-1002'
tp4559
a(g109
S'A94-1002'
tp4560
a(S'P96-1039'
S'A94-1002'
tp4561
a(g1775
S'A94-1002'
tp4562
a(g1538
S'A94-1002'
tp4563
a(g2205
S'A94-1002'
tp4564
a(g661
S'A94-1002'
tp4565
a(g570
S'A94-1002'
tp4566
a(g1840
S'A94-1002'
tp4567
a(g2192
S'A94-1002'
tp4568
a(g2225
S'A94-1002'
tp4569
a(g197
S'A94-1002'
tp4570
a(g1595
S'A94-1002'
tp4571
a(S'A94-1004'
g2402
tp4572
a(g1196
S'A94-1003'
tp4573
a(g2228
S'A94-1003'
tp4574
a(g1674
S'A94-1003'
tp4575
a(g602
S'A94-1003'
tp4576
a(S'A94-1003'
S'A94-1004'
tp4577
a(S'C02-2014'
S'A94-1004'
tp4578
a(S'C96-2138'
S'A94-1004'
tp4579
a(g52
g815
tp4580
a(S'A00-1020'
S'A94-1006'
tp4581
a(g1521
S'A94-1006'
tp4582
a(g1000
S'A94-1006'
tp4583
a(g2314
S'A94-1006'
tp4584
a(g498
S'A94-1006'
tp4585
a(g1670
S'A94-1006'
tp4586
a(S'J96-1001'
S'A94-1006'
tp4587
a(g2465
S'A94-1006'
tp4588
a(S'N03-1035'
S'A94-1006'
tp4589
a(g1737
S'A94-1006'
tp4590
a(S'P05-1075'
S'A94-1006'
tp4591
a(g1174
S'A94-1006'
tp4592
a(S'P96-1018'
S'A94-1006'
tp4593
a(g1149
S'A94-1006'
tp4594
a(g292
S'A94-1006'
tp4595
a(g2301
S'A94-1006'
tp4596
a(g1683
S'A94-1006'
tp4597
a(S'P98-2134'
S'A94-1006'
tp4598
a(g1772
S'A94-1006'
tp4599
a(g1766
S'A94-1006'
tp4600
a(g706
S'A94-1006'
tp4601
a(g2107
S'A94-1006'
tp4602
a(g360
S'A94-1006'
tp4603
a(g283
S'A94-1006'
tp4604
a(S'W97-0114'
S'A94-1006'
tp4605
a(g2263
S'A94-1006'
tp4606
a(g2265
S'A94-1006'
tp4607
a(g301
S'A94-1006'
tp4608
a(S'W97-1304'
S'A94-1006'
tp4609
a(g603
S'A94-1006'
tp4610
a(g696
S'A94-1006'
tp4611
a(g1778
g817
tp4612
a(g144
S'A94-1007'
tp4613
a(g2464
S'A94-1007'
tp4614
a(g1706
S'A94-1007'
tp4615
a(g36
S'A94-1007'
tp4616
a(g1201
S'A94-1007'
tp4617
a(g2281
S'A94-1008'
tp4618
a(S'C02-1131'
S'A94-1008'
tp4619
a(S'E95-1021'
S'A94-1008'
tp4620
a(S'E95-1022'
S'A94-1008'
tp4621
a(S'J02-1004'
S'A94-1008'
tp4622
a(S'P97-1032'
S'A94-1008'
tp4623
a(S'P98-1063'
S'A94-1008'
tp4624
a(S'W01-1513'
S'A94-1008'
tp4625
a(g221
S'A94-1008'
tp4626
a(g1466
S'A94-1008'
tp4627
a(g1730
S'A94-1008'
tp4628
a(S'W07-1709'
S'A94-1008'
tp4629
a(g690
S'A94-1008'
tp4630
a(g1017
S'A94-1008'
tp4631
a(S'W97-0213'
S'A94-1008'
tp4632
a(S'A97-1052'
S'A94-1009'
tp4633
a(S'C04-1052'
S'A94-1009'
tp4634
a(S'C04-1080'
S'A94-1009'
tp4635
a(S'C10-2016'
S'A94-1009'
tp4636
a(S'D07-1118'
S'A94-1009'
tp4637
a(g1454
S'A94-1009'
tp4638
a(g1047
S'A94-1009'
tp4639
a(S'E03-1025'
S'A94-1009'
tp4640
a(g1095
S'A94-1009'
tp4641
a(S'E95-1022'
S'A94-1009'
tp4642
a(g1441
S'A94-1009'
tp4643
a(g1829
S'A94-1009'
tp4644
a(S'N01-1023'
S'A94-1009'
tp4645
a(g2103
S'A94-1009'
tp4646
a(g1274
S'A94-1009'
tp4647
a(S'P00-1061'
S'A94-1009'
tp4648
a(g2156
S'A94-1009'
tp4649
a(g171
S'A94-1009'
tp4650
a(g1915
S'A94-1009'
tp4651
a(g163
S'A94-1009'
tp4652
a(S'P06-4020'
S'A94-1009'
tp4653
a(g2335
S'A94-1009'
tp4654
a(S'P96-1042'
S'A94-1009'
tp4655
a(g2002
S'A94-1009'
tp4656
a(S'W03-0407'
S'A94-1009'
tp4657
a(g2440
S'A94-1009'
tp4658
a(S'W04-2602'
S'A94-1009'
tp4659
a(g2375
S'A94-1009'
tp4660
a(S'W09-2403'
S'A94-1009'
tp4661
a(g386
S'A94-1009'
tp4662
a(S'W95-0101'
S'A94-1009'
tp4663
a(S'W96-0113'
S'A94-1009'
tp4664
a(S'W96-0209'
S'A94-1009'
tp4665
a(g2088
S'A94-1009'
tp4666
a(S'W98-1114'
S'A94-1009'
tp4667
a(g1140
g981
tp4668
a(g1181
S'A94-1010'
tp4669
a(g1647
S'A94-1010'
tp4670
a(g1112
g979
tp4671
a(g2105
S'A94-1012'
tp4672
a(S'A00-1012'
S'A94-1013'
tp4673
a(S'A00-2004'
S'A94-1013'
tp4674
a(g955
S'A94-1013'
tp4675
a(S'A97-1004'
S'A94-1013'
tp4676
a(S'J02-3002'
S'A94-1013'
tp4677
a(S'J97-2002'
S'A94-1013'
tp4678
a(S'N03-1029'
S'A94-1013'
tp4679
a(g1167
S'A94-1013'
tp4680
a(S'W04-3209'
S'A94-1013'
tp4681
a(g2087
S'A94-1013'
tp4682
a(g1682
g943
tp4683
a(S'C00-1051'
g982
tp4684
a(g1380
S'A94-1016'
tp4685
a(g2383
S'A94-1016'
tp4686
a(g298
S'A94-1016'
tp4687
a(g2321
S'A94-1016'
tp4688
a(g557
S'A94-1016'
tp4689
a(g2220
S'A94-1016'
tp4690
a(g1527
S'A94-1016'
tp4691
a(g1526
S'A94-1016'
tp4692
a(g1162
S'A94-1016'
tp4693
a(g1392
S'A94-1016'
tp4694
a(S'N03-1004'
S'A94-1016'
tp4695
a(g659
S'A94-1016'
tp4696
a(g1596
S'A94-1016'
tp4697
a(g1916
S'A94-1016'
tp4698
a(g1999
S'A94-1016'
tp4699
a(g1626
S'A94-1016'
tp4700
a(g2428
S'A94-1016'
tp4701
a(g174
S'A94-1016'
tp4702
a(S'P11-1125'
S'A94-1016'
tp4703
a(g1846
S'A94-1016'
tp4704
a(g1534
S'A94-1016'
tp4705
a(g835
S'A94-1016'
tp4706
a(S'W05-1518'
S'A94-1016'
tp4707
a(g1186
S'A94-1016'
tp4708
a(g2258
S'A94-1016'
tp4709
a(g1794
S'A94-1016'
tp4710
a(S'W97-0409'
S'A94-1016'
tp4711
a(g1041
S'A94-1016'
tp4712
a(g1058
S'A94-1016'
tp4713
a(g1048
g986
tp4714
a(S'P98-2142'
S'A94-1018'
tp4715
a(g2226
g985
tp4716
a(S'C00-1042'
S'A94-1024'
tp4717
a(S'C10-2040'
S'A94-1024'
tp4718
a(S'I08-3015'
S'A94-1024'
tp4719
a(g1882
S'A94-1024'
tp4720
a(S'N06-1042'
S'A94-1024'
tp4721
a(S'P06-2100'
S'A94-1024'
tp4722
a(S'P97-1029'
S'A94-1024'
tp4723
a(S'P97-1032'
S'A94-1024'
tp4724
a(S'P98-1063'
S'A94-1024'
tp4725
a(S'W96-0207'
S'A94-1024'
tp4726
a(g2160
S'A94-1024'
tp4727
a(S'W98-1309'
S'A94-1024'
tp4728
a(g608
g1178
tp4729
a(S'C96-2209'
S'A94-1025'
tp4730
a(g227
g1175
tp4731
a(g1386
S'A94-1027'
tp4732
a(S'P96-1042'
S'A94-1027'
tp4733
a(g1980
S'A94-1027'
tp4734
a(g915
S'A94-1027'
tp4735
a(S'W97-0803'
S'A94-1027'
tp4736
a(g450
g1179
tp4737
a(S'P98-2153'
S'A94-1029'
tp4738
a(g1319
g1361
tp4739
a(g2352
S'A94-1030'
tp4740
a(S'J97-3002'
S'A94-1030'
tp4741
a(g676
S'A94-1030'
tp4742
a(S'P95-1033'
S'A94-1030'
tp4743
a(g1221
S'A94-1030'
tp4744
a(g2502
S'A94-1030'
tp4745
a(g2266
S'A94-1030'
tp4746
a(S'W01-0701'
S'A94-1030'
tp4747
a(g2173
S'A94-1030'
tp4748
a(g1044
S'A94-1030'
tp4749
a(g157
S'A94-1030'
tp4750
a(g2490
S'A94-1030'
tp4751
a(S'W95-0115'
S'A94-1030'
tp4752
a(g654
g1363
tp4753
a(S'E99-1040'
g1364
tp4754
a(S'J96-1003'
S'A94-1037'
tp4755
a(g723
S'A94-1037'
tp4756
a(g1934
g1552
tp4757
a(g2024
S'A94-1041'
tp4758
a(g108
g1644
tp4759
a(g1188
S'A94-1042'
tp4760
a(g2053
g1549
tp4761
a(g307
S'A94-1045'
tp4762
a(g634
S'A94-1045'
tp4763
a(S'C02-2014'
g1550
tp4764
a(g1481
S'A94-1046'
tp4765
a(g1405
S'A94-1046'
tp4766
a(g842
g1551
tp4767
a(S'A00-1012'
g168
tp4768
a(S'A00-1016'
S'A97-1001'
tp4769
a(g2008
S'A97-1001'
tp4770
a(S'A00-2033'
S'A97-1001'
tp4771
a(g1335
S'A97-1001'
tp4772
a(g900
S'A97-1001'
tp4773
a(S'N01-1030'
S'A97-1001'
tp4774
a(S'P01-1022'
S'A97-1001'
tp4775
a(g1113
S'A97-1001'
tp4776
a(g637
S'A97-1001'
tp4777
a(g1398
S'A97-1001'
tp4778
a(g1375
S'A97-1001'
tp4779
a(g1376
S'A97-1001'
tp4780
a(S'C00-2140'
S'A97-1003'
tp4781
a(g1719
S'A97-1003'
tp4782
a(S'A00-1012'
S'A97-1004'
tp4783
a(S'A00-2004'
S'A97-1004'
tp4784
a(S'A00-2035'
S'A97-1004'
tp4785
a(g997
S'A97-1004'
tp4786
a(g1134
S'A97-1004'
tp4787
a(g1810
S'A97-1004'
tp4788
a(g854
S'A97-1004'
tp4789
a(g2275
S'A97-1004'
tp4790
a(g2293
S'A97-1004'
tp4791
a(S'I05-1010'
S'A97-1004'
tp4792
a(S'J02-3002'
S'A97-1004'
tp4793
a(S'J06-4003'
S'A97-1004'
tp4794
a(S'L08-1049'
S'A97-1004'
tp4795
a(S'N03-1029'
S'A97-1004'
tp4796
a(g65
S'A97-1004'
tp4797
a(g2467
S'A97-1004'
tp4798
a(g2114
S'A97-1004'
tp4799
a(g807
S'A97-1004'
tp4800
a(g540
S'A97-1004'
tp4801
a(g864
S'A97-1004'
tp4802
a(S'P03-1010'
S'A97-1004'
tp4803
a(S'P05-1004'
S'A97-1004'
tp4804
a(g1432
S'A97-1004'
tp4805
a(S'P07-1025'
S'A97-1004'
tp4806
a(g1924
S'A97-1004'
tp4807
a(S'P10-1130'
S'A97-1004'
tp4808
a(g93
S'A97-1004'
tp4809
a(g2203
S'A97-1004'
tp4810
a(g2148
S'A97-1004'
tp4811
a(g2089
S'A97-1004'
tp4812
a(g961
S'A97-1004'
tp4813
a(S'P99-1018'
S'A97-1004'
tp4814
a(S'P99-1021'
S'A97-1004'
tp4815
a(g1582
S'A97-1004'
tp4816
a(g2429
S'A97-1004'
tp4817
a(g1591
S'A97-1004'
tp4818
a(S'W02-1006'
S'A97-1004'
tp4819
a(S'W03-0408'
S'A97-1004'
tp4820
a(S'W03-0504'
S'A97-1004'
tp4821
a(g393
S'A97-1004'
tp4822
a(S'W03-1703'
S'A97-1004'
tp4823
a(S'W04-0834'
S'A97-1004'
tp4824
a(g2180
S'A97-1004'
tp4825
a(g118
S'A97-1004'
tp4826
a(S'W04-3209'
S'A97-1004'
tp4827
a(S'W04-3210'
S'A97-1004'
tp4828
a(g1192
S'A97-1004'
tp4829
a(g1230
S'A97-1004'
tp4830
a(g1269
S'A97-1004'
tp4831
a(g1516
S'A97-1004'
tp4832
a(g732
S'A97-1004'
tp4833
a(g353
S'A97-1004'
tp4834
a(g216
S'A97-1004'
tp4835
a(g662
S'A97-1004'
tp4836
a(g2240
S'A97-1004'
tp4837
a(S'W97-0121'
S'A97-1004'
tp4838
a(g4
S'A97-1004'
tp4839
a(S'W98-1117'
S'A97-1004'
tp4840
a(g598
S'A97-1004'
tp4841
a(g2113
S'A97-1004'
tp4842
a(g128
S'A97-1004'
tp4843
a(S'A97-1031'
g958
tp4844
a(g573
S'A97-1006'
tp4845
a(g111
S'A97-1006'
tp4846
a(g1141
S'A97-1006'
tp4847
a(S'P12-2040'
S'A97-1006'
tp4848
a(g1979
S'A97-1006'
tp4849
a(g1617
S'A97-1006'
tp4850
a(g1618
S'A97-1006'
tp4851
a(g1783
S'A97-1006'
tp4852
a(S'H01-1031'
g824
tp4853
a(S'P00-1010'
S'A97-1007'
tp4854
a(S'W01-1312'
S'A97-1007'
tp4855
a(S'W01-1313'
S'A97-1007'
tp4856
a(S'W97-0320'
S'A97-1007'
tp4857
a(g492
S'A97-1007'
tp4858
a(g493
S'A97-1007'
tp4859
a(g2073
S'A97-1007'
tp4860
a(S'A00-1016'
g952
tp4861
a(g635
S'A97-1008'
tp4862
a(S'W00-0311'
S'A97-1008'
tp4863
a(g1417
g783
tp4864
a(S'A00-1039'
g1528
tp4865
a(S'A00-2017'
S'A97-1011'
tp4866
a(g1258
S'A97-1011'
tp4867
a(g1336
S'A97-1011'
tp4868
a(S'C00-2136'
S'A97-1011'
tp4869
a(g1288
S'A97-1011'
tp4870
a(g1289
S'A97-1011'
tp4871
a(g12
S'A97-1011'
tp4872
a(g1111
S'A97-1011'
tp4873
a(g212
S'A97-1011'
tp4874
a(g668
S'A97-1011'
tp4875
a(g2459
S'A97-1011'
tp4876
a(g1827
S'A97-1011'
tp4877
a(g701
S'A97-1011'
tp4878
a(g291
S'A97-1011'
tp4879
a(g2462
S'A97-1011'
tp4880
a(S'N07-2043'
S'A97-1011'
tp4881
a(g1760
S'A97-1011'
tp4882
a(g2416
S'A97-1011'
tp4883
a(g2414
S'A97-1011'
tp4884
a(g1989
S'A97-1011'
tp4885
a(g1524
S'A97-1011'
tp4886
a(g1900
S'A97-1011'
tp4887
a(g1583
S'A97-1011'
tp4888
a(g344
S'A97-1011'
tp4889
a(g1285
S'A97-1011'
tp4890
a(g2395
S'A97-1011'
tp4891
a(S'W02-2029'
S'A97-1011'
tp4892
a(g369
S'A97-1011'
tp4893
a(S'W03-1308'
S'A97-1011'
tp4894
a(g1785
S'A97-1011'
tp4895
a(g2332
S'A97-1011'
tp4896
a(g628
S'A97-1011'
tp4897
a(S'W04-1505'
S'A97-1011'
tp4898
a(S'W04-2003'
S'A97-1011'
tp4899
a(g468
S'A97-1011'
tp4900
a(g834
S'A97-1011'
tp4901
a(g629
S'A97-1011'
tp4902
a(g1452
S'A97-1011'
tp4903
a(g906
S'A97-1011'
tp4904
a(g891
S'A97-1011'
tp4905
a(g1942
S'A97-1011'
tp4906
a(g973
S'A97-1011'
tp4907
a(g451
S'A97-1011'
tp4908
a(g24
S'A97-1011'
tp4909
a(S'W97-0307'
S'A97-1011'
tp4910
a(g1085
S'A97-1011'
tp4911
a(S'A00-1026'
g2279
tp4912
a(S'A00-2041'
S'A97-1012'
tp4913
a(S'C00-2089'
S'A97-1012'
tp4914
a(S'C02-1093'
S'A97-1012'
tp4915
a(g642
S'A97-1012'
tp4916
a(S'J03-4001'
S'A97-1012'
tp4917
a(S'J07-1004'
S'A97-1012'
tp4918
a(g2417
S'A97-1012'
tp4919
a(S'P97-1059'
S'A97-1012'
tp4920
a(S'P99-1033'
S'A97-1012'
tp4921
a(g346
S'A97-1012'
tp4922
a(S'W04-2004'
S'A97-1012'
tp4923
a(g2260
S'A97-1012'
tp4924
a(g2378
S'A97-1012'
tp4925
a(g70
S'A97-1012'
tp4926
a(S'W98-1205'
S'A97-1012'
tp4927
a(S'A00-1026'
S'A97-1013'
tp4928
a(S'C00-2089'
S'A97-1013'
tp4929
a(g1740
S'A97-1013'
tp4930
a(S'P97-1031'
S'A97-1013'
tp4931
a(g697
S'A97-1013'
tp4932
a(S'A00-1031'
S'A97-1014'
tp4933
a(g1315
S'A97-1014'
tp4934
a(g56
S'A97-1014'
tp4935
a(S'C02-1021'
S'A97-1014'
tp4936
a(S'C02-1121'
S'A97-1014'
tp4937
a(g181
S'A97-1014'
tp4938
a(S'C04-1056'
S'A97-1014'
tp4939
a(g692
S'A97-1014'
tp4940
a(S'C04-1140'
S'A97-1014'
tp4941
a(g712
S'A97-1014'
tp4942
a(g1707
S'A97-1014'
tp4943
a(S'D08-1091'
S'A97-1014'
tp4944
a(g1974
S'A97-1014'
tp4945
a(S'E03-1068'
S'A97-1014'
tp4946
a(g214
S'A97-1014'
tp4947
a(S'E03-1087'
S'A97-1014'
tp4948
a(g123
S'A97-1014'
tp4949
a(S'E99-1016'
S'A97-1014'
tp4950
a(g2339
S'A97-1014'
tp4951
a(g170
S'A97-1014'
tp4952
a(g1245
S'A97-1014'
tp4953
a(S'J13-1003'
S'A97-1014'
tp4954
a(g2397
S'A97-1014'
tp4955
a(g1410
S'A97-1014'
tp4956
a(g538
S'A97-1014'
tp4957
a(S'N10-1003'
S'A97-1014'
tp4958
a(S'P03-1013'
S'A97-1014'
tp4959
a(g2273
S'A97-1014'
tp4960
a(S'P04-1042'
S'A97-1014'
tp4961
a(S'P05-1038'
S'A97-1014'
tp4962
a(S'P05-1039'
S'A97-1014'
tp4963
a(g2231
S'A97-1014'
tp4964
a(g1287
S'A97-1014'
tp4965
a(g1418
S'A97-1014'
tp4966
a(S'P06-3004'
S'A97-1014'
tp4967
a(g1250
S'A97-1014'
tp4968
a(g398
S'A97-1014'
tp4969
a(g2331
S'A97-1014'
tp4970
a(S'W04-1505'
S'A97-1014'
tp4971
a(S'W04-1506'
S'A97-1014'
tp4972
a(g830
S'A97-1014'
tp4973
a(g1012
S'A97-1014'
tp4974
a(g1079
S'A97-1014'
tp4975
a(g480
S'A97-1014'
tp4976
a(g2351
S'A97-1014'
tp4977
a(g1962
S'A97-1014'
tp4978
a(g859
S'A97-1014'
tp4979
a(S'W97-0307'
S'A97-1014'
tp4980
a(S'W98-1117'
S'A97-1014'
tp4981
a(S'W98-1207'
S'A97-1014'
tp4982
a(g2135
g780
tp4983
a(g372
S'A97-1015'
tp4984
a(g1159
S'A97-1015'
tp4985
a(S'N10-1004'
S'A97-1015'
tp4986
a(g226
S'A97-1015'
tp4987
a(g875
S'A97-1015'
tp4988
a(g1531
S'A97-1015'
tp4989
a(g1118
S'A97-1015'
tp4990
a(g176
S'A97-1015'
tp4991
a(g103
S'A97-1015'
tp4992
a(g1588
S'A97-1015'
tp4993
a(g1484
S'A97-1015'
tp4994
a(g2086
S'A97-1015'
tp4995
a(g1163
g777
tp4996
a(g1293
S'A97-1016'
tp4997
a(g884
S'A97-1016'
tp4998
a(g581
S'A97-1016'
tp4999
a(g488
S'A97-1016'
tp5000
a(S'A00-2013'
S'A97-1017'
tp5001
a(g2233
S'A97-1017'
tp5002
a(g1198
S'A97-1017'
tp5003
a(g1564
S'A97-1017'
tp5004
a(g2282
S'A97-1017'
tp5005
a(g1311
S'A97-1017'
tp5006
a(g2080
S'A97-1017'
tp5007
a(S'W04-3231'
S'A97-1017'
tp5008
a(g1246
S'A97-1017'
tp5009
a(g20
S'A97-1017'
tp5010
a(S'I08-7003'
g786
tp5011
a(g1738
S'A97-1018'
tp5012
a(g2360
S'A97-1018'
tp5013
a(g2090
g607
tp5014
a(g1675
S'A97-1020'
tp5015
a(S'P98-2175'
S'A97-1020'
tp5016
a(g2461
g1261
tp5017
a(g407
S'A97-1021'
tp5018
a(g1769
S'A97-1021'
tp5019
a(S'A00-1035'
g2295
tp5020
a(g1255
S'A97-1022'
tp5021
a(g1086
S'A97-1022'
tp5022
a(S'A00-1035'
g1273
tp5023
a(g713
S'A97-1024'
tp5024
a(g1051
g610
tp5025
a(g1236
S'A97-1025'
tp5026
a(g134
S'A97-1025'
tp5027
a(g445
S'A97-1025'
tp5028
a(g64
S'A97-1025'
tp5029
a(S'P01-1005'
S'A97-1025'
tp5030
a(g5
S'A97-1025'
tp5031
a(g533
S'A97-1025'
tp5032
a(g187
S'A97-1025'
tp5033
a(g1771
g609
tp5034
a(g1378
g614
tp5035
a(g115
S'A97-1028'
tp5036
a(g448
S'A97-1028'
tp5037
a(g1601
S'A97-1028'
tp5038
a(g218
S'A97-1028'
tp5039
a(g210
S'A97-1028'
tp5040
a(g678
S'A97-1028'
tp5041
a(g2249
S'A97-1028'
tp5042
a(S'W02-2003'
S'A97-1028'
tp5043
a(S'W02-2029'
S'A97-1028'
tp5044
a(S'W03-1505'
S'A97-1028'
tp5045
a(g542
S'A97-1028'
tp5046
a(g505
S'A97-1028'
tp5047
a(g2163
S'A97-1028'
tp5048
a(g877
S'A97-1028'
tp5049
a(S'A00-1023'
S'A97-1029'
tp5050
a(S'A00-1034'
S'A97-1029'
tp5051
a(S'A00-1044'
S'A97-1029'
tp5052
a(S'A00-2030'
S'A97-1029'
tp5053
a(g2057
S'A97-1029'
tp5054
a(g491
S'A97-1029'
tp5055
a(g1659
S'A97-1029'
tp5056
a(S'C02-1126'
S'A97-1029'
tp5057
a(g625
S'A97-1029'
tp5058
a(g1957
S'A97-1029'
tp5059
a(g735
S'A97-1029'
tp5060
a(g1476
S'A97-1029'
tp5061
a(g1833
S'A97-1029'
tp5062
a(g215
S'A97-1029'
tp5063
a(g1352
S'A97-1029'
tp5064
a(g2244
S'A97-1029'
tp5065
a(g1062
S'A97-1029'
tp5066
a(g2219
S'A97-1029'
tp5067
a(g194
S'A97-1029'
tp5068
a(g2062
S'A97-1029'
tp5069
a(S'I08-1045'
S'A97-1029'
tp5070
a(S'I08-5004'
S'A97-1029'
tp5071
a(S'I08-5005'
S'A97-1029'
tp5072
a(g1471
S'A97-1029'
tp5073
a(g1307
S'A97-1029'
tp5074
a(S'I08-7002'
S'A97-1029'
tp5075
a(S'J00-4003'
S'A97-1029'
tp5076
a(S'J02-3002'
S'A97-1029'
tp5077
a(S'J03-4003'
S'A97-1029'
tp5078
a(g2222
S'A97-1029'
tp5079
a(g2098
S'A97-1029'
tp5080
a(g1609
S'A97-1029'
tp5081
a(g1996
S'A97-1029'
tp5082
a(g2179
S'A97-1029'
tp5083
a(g2177
S'A97-1029'
tp5084
a(g2176
S'A97-1029'
tp5085
a(g132
S'A97-1029'
tp5086
a(g289
S'A97-1029'
tp5087
a(g2393
S'A97-1029'
tp5088
a(g384
S'A97-1029'
tp5089
a(S'N04-2007'
S'A97-1029'
tp5090
a(g219
S'A97-1029'
tp5091
a(S'P00-1058'
S'A97-1029'
tp5092
a(g2245
S'A97-1029'
tp5093
a(g1425
S'A97-1029'
tp5094
a(S'P03-1020'
S'A97-1029'
tp5095
a(S'P03-1043'
S'A97-1029'
tp5096
a(g837
S'A97-1029'
tp5097
a(g405
S'A97-1029'
tp5098
a(g2060
S'A97-1029'
tp5099
a(g704
S'A97-1029'
tp5100
a(g1068
S'A97-1029'
tp5101
a(g2497
S'A97-1029'
tp5102
a(g41
S'A97-1029'
tp5103
a(g2358
S'A97-1029'
tp5104
a(g1356
S'A97-1029'
tp5105
a(g1762
S'A97-1029'
tp5106
a(g2039
S'A97-1029'
tp5107
a(g465
S'A97-1029'
tp5108
a(S'P98-1045'
S'A97-1029'
tp5109
a(S'P99-1046'
S'A97-1029'
tp5110
a(S'W00-0904'
S'A97-1029'
tp5111
a(S'W00-1201'
S'A97-1029'
tp5112
a(S'W00-1320'
S'A97-1029'
tp5113
a(g1514
S'A97-1029'
tp5114
a(S'W02-0813'
S'A97-1029'
tp5115
a(g567
S'A97-1029'
tp5116
a(g1154
S'A97-1029'
tp5117
a(g2197
S'A97-1029'
tp5118
a(g1673
S'A97-1029'
tp5119
a(g804
S'A97-1029'
tp5120
a(S'W02-2029'
S'A97-1029'
tp5121
a(g1992
S'A97-1029'
tp5122
a(g1616
S'A97-1029'
tp5123
a(g1430
S'A97-1029'
tp5124
a(g164
S'A97-1029'
tp5125
a(S'W03-1211'
S'A97-1029'
tp5126
a(g575
S'A97-1029'
tp5127
a(g574
S'A97-1029'
tp5128
a(g395
S'A97-1029'
tp5129
a(g1084
S'A97-1029'
tp5130
a(g1732
S'A97-1029'
tp5131
a(g75
S'A97-1029'
tp5132
a(g1035
S'A97-1029'
tp5133
a(g969
S'A97-1029'
tp5134
a(S'W06-3325'
S'A97-1029'
tp5135
a(g1801
S'A97-1029'
tp5136
a(g13
S'A97-1029'
tp5137
a(g1660
S'A97-1029'
tp5138
a(g1264
S'A97-1029'
tp5139
a(S'W98-1105'
S'A97-1029'
tp5140
a(S'W98-1118'
S'A97-1029'
tp5141
a(g1160
S'A97-1029'
tp5142
a(g876
S'A97-1029'
tp5143
a(S'W99-0634'
S'A97-1029'
tp5144
a(g2112
S'A97-1029'
tp5145
a(S'A00-1021'
g420
tp5146
a(S'A00-1026'
S'A97-1030'
tp5147
a(S'C02-1088'
S'A97-1030'
tp5148
a(g2068
S'A97-1030'
tp5149
a(g1509
S'A97-1030'
tp5150
a(g1995
S'A97-1030'
tp5151
a(g1218
S'A97-1030'
tp5152
a(g1306
S'A97-1030'
tp5153
a(S'J00-4003'
S'A97-1030'
tp5154
a(S'J98-3005'
S'A97-1030'
tp5155
a(S'N03-2024'
S'A97-1030'
tp5156
a(g1600
S'A97-1030'
tp5157
a(g1831
S'A97-1030'
tp5158
a(S'P98-1045'
S'A97-1030'
tp5159
a(S'P98-1112'
S'A97-1030'
tp5160
a(g1841
S'A97-1030'
tp5161
a(g387
S'A97-1030'
tp5162
a(g776
S'A97-1030'
tp5163
a(g402
S'A97-1030'
tp5164
a(S'W03-0405'
S'A97-1030'
tp5165
a(S'W03-0428'
S'A97-1030'
tp5166
a(S'W07-1702'
S'A97-1030'
tp5167
a(g1610
S'A97-1030'
tp5168
a(S'W98-0203'
S'A97-1030'
tp5169
a(S'W98-0610'
S'A97-1030'
tp5170
a(S'W98-1001'
S'A97-1030'
tp5171
a(g2159
S'A97-1030'
tp5172
a(S'W99-0612'
S'A97-1030'
tp5173
a(S'X98-1021'
S'A97-1030'
tp5174
a(g928
S'A97-1031'
tp5175
a(S'A00-1033'
S'A97-1031'
tp5176
a(S'A97-1006'
S'A97-1031'
tp5177
a(S'A97-2003'
S'A97-1031'
tp5178
a(S'C02-1121'
S'A97-1031'
tp5179
a(g1835
S'A97-1031'
tp5180
a(g633
S'A97-1031'
tp5181
a(S'P98-1112'
S'A97-1031'
tp5182
a(S'W00-0738'
S'A97-1031'
tp5183
a(S'W01-1017'
S'A97-1031'
tp5184
a(g2232
g422
tp5185
a(g1866
S'A97-1032'
tp5186
a(g1929
S'A97-1032'
tp5187
a(S'A00-1021'
S'A97-1033'
tp5188
a(S'C04-1199'
S'A97-1033'
tp5189
a(S'H01-1045'
S'A97-1033'
tp5190
a(S'J11-4007'
S'A97-1033'
tp5191
a(S'J98-3005'
S'A97-1033'
tp5192
a(g1404
S'A97-1033'
tp5193
a(g178
S'A97-1033'
tp5194
a(S'W98-0610'
S'A97-1033'
tp5195
a(g2415
S'A97-1033'
tp5196
a(S'W99-0202'
S'A97-1033'
tp5197
a(g425
g424
tp5198
a(g1296
S'A97-1034'
tp5199
a(S'M98-1007'
S'A97-1034'
tp5200
a(g1314
S'A97-1035'
tp5201
a(S'M98-1007'
S'A97-1035'
tp5202
a(g1796
S'A97-1035'
tp5203
a(g1695
S'A97-1035'
tp5204
a(g1083
S'A97-1035'
tp5205
a(g620
S'A97-1035'
tp5206
a(g621
S'A97-1035'
tp5207
a(g2200
S'A97-1035'
tp5208
a(g2346
S'A97-1035'
tp5209
a(S'A97-1035'
g426
tp5210
a(S'H01-1039'
S'A97-1036'
tp5211
a(S'W03-0807'
S'A97-1036'
tp5212
a(g1373
S'A97-1036'
tp5213
a(S'A00-1009'
g427
tp5214
a(S'A97-1039'
S'A97-1037'
tp5215
a(S'H01-1055'
S'A97-1037'
tp5216
a(S'P98-1118'
S'A97-1037'
tp5217
a(S'W00-1429'
S'A97-1037'
tp5218
a(g1018
S'A97-1037'
tp5219
a(g2070
S'A97-1038'
tp5220
a(S'A00-1009'
S'A97-1039'
tp5221
a(S'A00-2026'
S'A97-1039'
tp5222
a(S'A97-1037'
S'A97-1039'
tp5223
a(g1975
S'A97-1039'
tp5224
a(S'J03-2003'
S'A97-1039'
tp5225
a(g1074
S'A97-1039'
tp5226
a(S'N01-1003'
S'A97-1039'
tp5227
a(S'P01-1015'
S'A97-1039'
tp5228
a(S'P01-1056'
S'A97-1039'
tp5229
a(S'P04-1011'
S'A97-1039'
tp5230
a(g404
S'A97-1039'
tp5231
a(g217
S'A97-1039'
tp5232
a(g284
S'A97-1039'
tp5233
a(g1993
S'A97-1039'
tp5234
a(g249
S'A97-1039'
tp5235
a(g1753
S'A97-1039'
tp5236
a(g681
S'A97-1039'
tp5237
a(S'P98-1118'
S'A97-1039'
tp5238
a(g1228
S'A97-1039'
tp5239
a(g2047
S'A97-1039'
tp5240
a(g1889
S'A97-1039'
tp5241
a(S'W01-0807'
S'A97-1039'
tp5242
a(g503
S'A97-1039'
tp5243
a(g328
S'A97-1039'
tp5244
a(g1317
S'A97-1039'
tp5245
a(S'W02-0211'
S'A97-1039'
tp5246
a(S'W02-1610'
S'A97-1039'
tp5247
a(g1156
S'A97-1039'
tp5248
a(S'W05-1619'
S'A97-1039'
tp5249
a(g1295
S'A97-1039'
tp5250
a(S'W09-0613'
S'A97-1039'
tp5251
a(g1239
S'A97-1039'
tp5252
a(g1402
S'A97-1039'
tp5253
a(g2066
S'A97-1039'
tp5254
a(S'X98-1026'
S'A97-1039'
tp5255
a(g630
S'A97-1040'
tp5256
a(g1548
S'A97-1040'
tp5257
a(S'W98-1424'
S'A97-1040'
tp5258
a(g1383
S'A97-1041'
tp5259
a(g1593
S'A97-1041'
tp5260
a(S'P98-2199'
S'A97-1041'
tp5261
a(S'W00-1414'
S'A97-1041'
tp5262
a(g1757
S'A97-1041'
tp5263
a(S'W98-1415'
S'A97-1041'
tp5264
a(S'W98-1424'
S'A97-1041'
tp5265
a(g2223
g1070
tp5266
a(g736
S'A97-1042'
tp5267
a(g984
S'A97-1042'
tp5268
a(g139
S'A97-1042'
tp5269
a(S'J02-4002'
S'A97-1042'
tp5270
a(g1677
S'A97-1042'
tp5271
a(g374
S'A97-1042'
tp5272
a(g1656
S'A97-1042'
tp5273
a(S'P98-1112'
S'A97-1042'
tp5274
a(g2054
S'A97-1042'
tp5275
a(g2257
S'A97-1042'
tp5276
a(g1271
S'A97-1042'
tp5277
a(g726
S'A97-1042'
tp5278
a(S'W09-2807'
S'A97-1042'
tp5279
a(g2048
S'A97-1042'
tp5280
a(g302
S'A97-1042'
tp5281
a(g152
S'A97-1042'
tp5282
a(g1158
S'A97-1042'
tp5283
a(S'X98-1026'
S'A97-1042'
tp5284
a(S'W00-0404'
S'A97-1043'
tp5285
a(S'A00-1042'
g1714
tp5286
a(S'W98-0610'
S'A97-1044'
tp5287
a(S'A00-1026'
g1715
tp5288
a(S'C10-1100'
S'A97-1046'
tp5289
a(g1713
S'A97-1046'
tp5290
a(g1468
S'A97-1046'
tp5291
a(S'P98-1001'
S'A97-1046'
tp5292
a(g1281
S'A97-1046'
tp5293
a(g1702
g1722
tp5294
a(S'A00-1038'
g1721
tp5295
a(g1621
S'A97-1049'
tp5296
a(g1589
S'A97-1049'
tp5297
a(S'W97-0312'
S'A97-1049'
tp5298
a(g2215
S'A97-1049'
tp5299
a(S'A00-1020'
S'A97-1050'
tp5300
a(g1912
S'A97-1050'
tp5301
a(g1887
S'A97-1050'
tp5302
a(g1556
S'A97-1050'
tp5303
a(g2386
S'A97-1050'
tp5304
a(g1194
S'A97-1050'
tp5305
a(g1855
S'A97-1050'
tp5306
a(S'P98-1004'
S'A97-1050'
tp5307
a(g2196
S'A97-1050'
tp5308
a(g1598
S'A97-1050'
tp5309
a(g1424
S'A97-1050'
tp5310
a(g333
S'A97-1051'
tp5311
a(g272
S'A97-1051'
tp5312
a(g2480
S'A97-1051'
tp5313
a(g317
S'A97-1051'
tp5314
a(g792
S'A97-1051'
tp5315
a(S'P00-1016'
S'A97-1051'
tp5316
a(g1807
S'A97-1051'
tp5317
a(S'P99-1009'
S'A97-1051'
tp5318
a(g1917
S'A97-1051'
tp5319
a(g2347
S'A97-1051'
tp5320
a(S'W02-0402'
S'A97-1051'
tp5321
a(g1515
S'A97-1051'
tp5322
a(g397
S'A97-1051'
tp5323
a(S'W03-0806'
S'A97-1051'
tp5324
a(S'W04-2803'
S'A97-1051'
tp5325
a(g1928
S'A97-1051'
tp5326
a(S'W06-3325'
S'A97-1051'
tp5327
a(g137
S'A97-1051'
tp5328
a(S'W07-1516'
S'A97-1051'
tp5329
a(g897
S'A97-1051'
tp5330
a(S'A00-2034'
S'A97-1052'
tp5331
a(g1566
S'A97-1052'
tp5332
a(g455
S'A97-1052'
tp5333
a(g2038
S'A97-1052'
tp5334
a(S'C00-2118'
S'A97-1052'
tp5335
a(S'C02-1013'
S'A97-1052'
tp5336
a(g1602
S'A97-1052'
tp5337
a(g1036
S'A97-1052'
tp5338
a(g2500
S'A97-1052'
tp5339
a(g16
S'A97-1052'
tp5340
a(g43
S'A97-1052'
tp5341
a(g2364
S'A97-1052'
tp5342
a(g2022
S'A97-1052'
tp5343
a(g1708
S'A97-1052'
tp5344
a(g656
S'A97-1052'
tp5345
a(g1958
S'A97-1052'
tp5346
a(g615
S'A97-1052'
tp5347
a(g2385
S'A97-1052'
tp5348
a(S'E03-1040'
S'A97-1052'
tp5349
a(g1403
S'A97-1052'
tp5350
a(g321
S'A97-1052'
tp5351
a(g1136
S'A97-1052'
tp5352
a(S'J01-3003'
S'A97-1052'
tp5353
a(S'J02-2003'
S'A97-1052'
tp5354
a(S'J03-3001'
S'A97-1052'
tp5355
a(S'J03-3005'
S'A97-1052'
tp5356
a(S'J04-1003'
S'A97-1052'
tp5357
a(S'J05-1004'
S'A97-1052'
tp5358
a(g2241
S'A97-1052'
tp5359
a(g1015
S'A97-1052'
tp5360
a(S'J98-2002'
S'A97-1052'
tp5361
a(g1043
S'A97-1052'
tp5362
a(g2323
S'A97-1052'
tp5363
a(g2316
S'A97-1052'
tp5364
a(g2315
S'A97-1052'
tp5365
a(g2150
S'A97-1052'
tp5366
a(g1937
S'A97-1052'
tp5367
a(g2270
S'A97-1052'
tp5368
a(S'N01-1013'
S'A97-1052'
tp5369
a(g547
S'A97-1052'
tp5370
a(S'P03-1007'
S'A97-1052'
tp5371
a(g1075
S'A97-1052'
tp5372
a(g535
S'A97-1052'
tp5373
a(g2237
S'A97-1052'
tp5374
a(g323
S'A97-1052'
tp5375
a(g1745
S'A97-1052'
tp5376
a(g348
S'A97-1052'
tp5377
a(g203
S'A97-1052'
tp5378
a(S'P06-2067'
S'A97-1052'
tp5379
a(g256
S'A97-1052'
tp5380
a(g1903
S'A97-1052'
tp5381
a(g1027
S'A97-1052'
tp5382
a(g2329
S'A97-1052'
tp5383
a(g2041
S'A97-1052'
tp5384
a(g1888
S'A97-1052'
tp5385
a(g1343
S'A97-1052'
tp5386
a(g1930
S'A97-1052'
tp5387
a(g2268
S'A97-1052'
tp5388
a(g2445
S'A97-1052'
tp5389
a(g1690
S'A97-1052'
tp5390
a(g1927
S'A97-1052'
tp5391
a(g1587
S'A97-1052'
tp5392
a(g1586
S'A97-1052'
tp5393
a(g1215
S'A97-1052'
tp5394
a(g2311
S'A97-1052'
tp5395
a(g851
S'A97-1052'
tp5396
a(g949
S'A97-1052'
tp5397
a(S'W02-1706'
S'A97-1052'
tp5398
a(S'W02-2014'
S'A97-1052'
tp5399
a(g439
S'A97-1052'
tp5400
a(S'W04-2411'
S'A97-1052'
tp5401
a(S'W04-2605'
S'A97-1052'
tp5402
a(g1031
S'A97-1052'
tp5403
a(S'W05-1529'
S'A97-1052'
tp5404
a(S'W06-1601'
S'A97-1052'
tp5405
a(S'W07-0605'
S'A97-1052'
tp5406
a(g26
S'A97-1052'
tp5407
a(g2288
S'A97-1052'
tp5408
a(S'W12-3409'
S'A97-1052'
tp5409
a(g1632
S'A97-1052'
tp5410
a(g2401
S'A97-1052'
tp5411
a(S'W98-1114'
S'A97-1052'
tp5412
a(g1283
S'A97-1052'
tp5413
a(g1284
S'A97-1052'
tp5414
a(g2489
S'A97-1052'
tp5415
a(S'J98-2002'
g1489
tp5416
a(g1901
S'A97-1053'
tp5417
a(g2085
S'A97-1053'
tp5418
a(g1057
S'A97-1053'
tp5419
a(S'A97-1034'
S'A97-1054'
tp5420
a(g2342
S'A97-1054'
tp5421
a(g1280
S'A97-1054'
tp5422
a(g1204
S'A97-1054'
tp5423
a(g1355
S'A97-1054'
tp5424
a(g1242
S'A97-1054'
tp5425
a(S'W05-1308'
S'A97-1054'
tp5426
a(g675
S'A97-1054'
tp5427
a(g334
S'A97-1055'
tp5428
a(S'J98-2002'
S'A97-1055'
tp5429
a(g196
S'A97-1055'
tp5430
a(S'A00-2009'
g1523
tp5431
a(g94
S'A97-1056'
tp5432
a(g457
S'A97-1056'
tp5433
a(g2447
S'A97-1056'
tp5434
a(g1784
S'A97-1056'
tp5435
a(g313
g1100
tp5436
a(S'D11-1116'
S'A97-2005'
tp5437
a(g1322
S'A97-2005'
tp5438
a(g843
g624
tp5439
as.