(dp1
S'S10-1080'
p2
(dp3
S'raw_title'
p4
S'HERMIT: Flexible Clustering for the SemEval-2 WSI Task'
p5
sS'year'
p6
S'2010'
p7
sS'id'
p8
g2
sS'title'
p9
S'hermit flexibl cluster semev 2 wsi task'
p10
ssS'S10-1077'
p11
(dp12
g4
S'JU_CSE_TEMP: A First Step towards Evaluating Events, Time Expressions and Temporal Relations'
p13
sg6
S'2010'
p14
sg8
g11
sg9
S'ju cse temp first step toward evalu event time express tempor relat'
p15
ssS'D11-1079'
p16
(dp17
g4
S'Soft Dependency Constraints for Reordering in Hierarchical Phrase-Based Translation'
p18
sg6
S'2011'
p19
sg8
g16
sg9
S'soft depend constraint reorder hierarch phrase base translat'
p20
ssS'D11-1078'
p21
(dp22
g4
S'Analyzing Methods for Improving Precision of Pivot Based Bilingual Dictionaries'
p23
sg6
S'2011'
p24
sg8
g21
sg9
S'analyz method improv precis pivot base bilingu dictionari'
p25
ssS'C10-2023'
p26
(dp27
g4
S'Improving Reordering with Linguistically Informed Bilingual n-grams'
p28
sg6
S'2010'
p29
sg8
g26
sg9
S'improv reorder linguist inform bilingu n gram'
p30
ssS'D11-1071'
p31
(dp32
g4
S'Collaborative Ranking: A Case Study on Entity Linking'
p33
sg6
S'2011'
p34
sg8
g31
sg9
S'collabor rank case studi entiti link'
p35
ssS'D11-1070'
p36
(dp37
g4
S'Learning Local Content Shift Detectors from Document-level Information'
p38
sg6
S'2011'
p39
sg8
g36
sg9
S'learn local content shift detector document level inform'
p40
ssS'D11-1073'
p41
(dp42
g4
S'A Cascaded Classification Approach to Semantic Head Recognition'
p43
sg6
S'2011'
p44
sg8
g41
sg9
S'cascad classif approach semant head recognit'
p45
ssS'D11-1072'
p46
(dp47
g4
S'Robust Disambiguation of Named Entities in Text'
p48
sg6
S'2011'
p49
sg8
g46
sg9
S'robust disambigu name entiti text'
p50
ssS'D11-1075'
p51
(dp52
g4
S'Unsupervised Information Extraction with Distributional Prior Knowledge'
p53
sg6
S'2011'
p54
sg8
g51
sg9
S'unsupervis inform extract distribut prior knowledg'
p55
ssS'D11-1074'
p56
(dp57
g4
S'Linking Entities to a Knowledge Base with Query Expansion'
p58
sg6
S'2011'
p59
sg8
g56
sg9
S'link entiti knowledg base queri expans'
p60
ssS'D11-1077'
p61
(dp62
g4
S'Identification of Multi-word Expressions by Combining Multiple Linguistic Information Sources'
p63
sg6
S'2011'
p64
sg8
g61
sg9
S'identif multi word express combin multipl linguist inform sourc'
p65
ssS'D11-1076'
p66
(dp67
g4
S'Relation Acquisition using Word Classes and Partial Patterns'
p68
sg6
S'2011'
p69
sg8
g66
sg9
S'relat acquisit us word class partial pattern'
p70
ssS'C10-1072'
p71
(dp72
g4
S'Sentiment Classification and Polarity Shifting'
p73
sg6
S'2010'
p74
sg8
g71
sg9
S'sentiment classif polar shift'
p75
ssS'C10-1073'
p76
(dp77
g4
S'Improving Corpus Comparability for Bilingual Lexicon Extraction from Comparable Corpora'
p78
sg6
S'2010'
p79
sg8
g76
sg9
S'improv corpu compar bilingu lexicon extract compar corpora'
p80
ssS'C10-1011'
p81
(dp82
g4
S'Top Accuracy and Fast Dependency Parsing is not a Contradiction'
p83
sg6
S'2010'
p84
sg8
g81
sg9
S'top accuraci fast depend pars contradict'
p85
ssS'W11-2201'
p86
(dp87
g4
S'Unsupervised NLP and Human Language Acquisition: Making Connections to Make Progress'
p88
sg6
S'2011'
p89
sg8
g86
sg9
S'unsupervis nlp human languag acquisit make connect make progress'
p90
ssS'S10-1023'
p91
(dp92
g4
S'FCC: Modeling Probabilities with GIZA++ for Task 2 and 3 of SemEval-2'
p93
sg6
S'2010'
p94
sg8
g91
sg9
S'fcc model probabl giza task 2 3 semev 2'
p95
ssS'C10-2128'
p96
(dp97
g4
S'Controlled Natural Languages for Knowledge Representation'
p98
sg6
S'2010'
p99
sg8
g96
sg9
S'control natur languag knowledg represent'
p100
ssS'C10-2129'
p101
(dp102
g4
S'Informed ways of improving data-driven dependency parsing for German'
p103
sg6
S'2010'
p104
sg8
g101
sg9
S'inform wai improv data driven depend pars german'
p105
ssS'C10-2120'
p106
(dp107
g4
S'Web-based and combined language models: a case study on noun compound identification'
p108
sg6
S'2010'
p109
sg8
g106
sg9
S'web base combin languag model case studi noun compound identif'
p110
ssS'C10-2121'
p111
(dp112
g4
S'Streaming Cross Document Entity Coreference Resolution'
p113
sg6
S'2010'
p114
sg8
g111
sg9
S'stream cross document entiti corefer resolut'
p115
ssS'C10-2122'
p116
(dp117
g4
S'Multilingual Summarization Evaluation without Human Models'
p118
sg6
S'2010'
p119
sg8
g116
sg9
S'multilingu summar evalu without human model'
p120
ssS'C10-2123'
p121
(dp122
g4
S'Argument Optionality in the LinGO Grammar Matrix'
p123
sg6
S'2010'
p124
sg8
g121
sg9
S'argument option lingo grammar matrix'
p125
ssS'C10-2124'
p126
(dp127
g4
S'Log-linear weight optimisation via Bayesian Adaptation in Statistical Machine Translation'
p128
sg6
S'2010'
p129
sg8
g126
sg9
S'log linear weight optimis via bayesian adapt statist machin translat'
p130
ssS'C10-2125'
p131
(dp132
g4
S'A Global Relaxation Labeling Approach to Coreference Resolution'
p133
sg6
S'2010'
p134
sg8
g131
sg9
S'global relax label approach corefer resolut'
p135
ssS'C10-2126'
p136
(dp137
g4
S'"Expresses-an-opinion-about": using corpus statistics in an information extraction approach to opinion mining'
p138
sg6
S'2010'
p139
sg8
g136
sg9
S'express opinion us corpu statist inform extract approach opinion mine'
p140
ssS'C10-2127'
p141
(dp142
g4
S'Sentiment Translation through Multi-Edge Graphs'
p143
sg6
S'2010'
p144
sg8
g141
sg9
S'sentiment translat multi edg graph'
p145
ssS'C10-1060'
p146
(dp147
g4
S'Unsupervised phonemic Chinese word segmentation using Adaptor Grammars'
p148
sg6
S'2010'
p149
sg8
g146
sg9
S'unsupervis phonem chines word segment us adaptor grammar'
p150
ssS'C10-1010'
p151
(dp152
g4
S'Self-Annotation for fine-grained geospatial relation extraction'
p153
sg6
S'2010'
p154
sg8
g151
sg9
S'self annot fine grain geospati relat extract'
p155
ssS'C10-1061'
p156
(dp157
g4
S'Data-Driven Parsing with Probabilistic Linear Context-Free Rewriting Systems'
p158
sg6
S'2010'
p159
sg8
g156
sg9
S'data driven pars probabilist linear context free rewrit system'
p160
ssS'D11-1028'
p161
(dp162
g4
S'A Model of Discourse Predictions in Human Sentence Processing'
p163
sg6
S'2011'
p164
sg8
g161
sg9
S'model discours predict human sentenc process'
p165
ssS'C10-2106'
p166
(dp167
g4
S'A Study on Position Information in Document Summarization'
p168
sg6
S'2010'
p169
sg8
g166
sg9
S'studi posit inform document summar'
p170
ssS'C10-1062'
p171
(dp172
g4
S'Learning to Predict Readability using Diverse Linguistic Features'
p173
sg6
S'2010'
p174
sg8
g171
sg9
S'learn predict readabl us divers linguist featur'
p175
ssS'C10-1063'
p176
(dp177
g4
S'Value for Money: Balancing Annotation Effort, Lexicon Building and Accuracy for Multilingual WSD'
p178
sg6
S'2010'
p179
sg8
g176
sg9
S'valu monei balanc annot effort lexicon build accuraci multilingu wsd'
p180
ssS'W10-0101'
p181
(dp182
g4
S'Using Variance as a Stopping Criterion for Active Learning of Frame Assignment'
p183
sg6
S'2010'
p184
sg8
g181
sg9
S'us varianc stop criterion activ learn frame assign'
p185
ssS'C10-1064'
p186
(dp187
g4
S'A Cross-lingual Annotation Projection Approach for Relation Detection'
p188
sg6
S'2010'
p189
sg8
g186
sg9
S'cross lingual annot project approach relat detect'
p190
ssS'C10-1082'
p191
(dp192
g4
S'TimeML Events Recognition and Classification: Learning CRF Models with Semantic Roles'
p193
sg6
S'2010'
p194
sg8
g191
sg9
S'timeml event recognit classif learn crf model semant role'
p195
ssS'C10-1065'
p196
(dp197
g4
S'Evaluating N-gram based Evaluation Metrics for Automatic Keyphrase Extraction'
p198
sg6
S'2010'
p199
sg8
g196
sg9
S'evalu n gram base evalu metric automat keyphras extract'
p200
ssS'W10-0728'
p201
(dp202
g4
S'Preliminary Experiments with Amazon&rsquo;s Mechanical Turk for Annotating Medical Named Entities'
p203
sg6
S'2010'
p204
sg8
g201
sg9
S'preliminari experi amazon rsquo s mechan turk annot medic name entiti'
p205
ssS'C10-1059'
p206
(dp207
g4
S'Reranking Models in Fine-grained Opinion Analysis'
p208
sg6
S'2010'
p209
sg8
g206
sg9
S'rerank model fine grain opinion analysi'
p210
ssS'S10-1087'
p211
(dp212
g4
S'IIITH: Domain Specific Word Sense Disambiguation'
p213
sg6
S'2010'
p214
sg8
g211
sg9
S'iiith domain specif word sens disambigu'
p215
ssS'C10-1066'
p216
(dp217
g4
S'Improving the Quality of Text Understanding by Delaying Ambiguity Resolution'
p218
sg6
S'2010'
p219
sg8
g216
sg9
S'improv qualiti text understand delai ambigu resolut'
p220
ssS'C10-1058'
p221
(dp222
g4
S'Open Entity Extraction from Web Search Query Logs'
p223
sg6
S'2010'
p224
sg8
g221
sg9
S'open entiti extract web search queri log'
p225
ssS'W10-0720'
p226
(dp227
g4
S'Not-So-Latent Dirichlet Allocation: Collapsed Gibbs Sampling Using Human Judgments'
p228
sg6
S'2010'
p229
sg8
g226
sg9
S'latent dirichlet alloc collaps gibb sampl us human judgment'
p230
ssS'C10-2064'
p231
(dp232
g4
S'A Logistic Regression Model of Determiner Omission in PPs'
p233
sg6
S'2010'
p234
sg8
g231
sg9
S'logist regress model determin omiss pp'
p235
ssS'W10-0722'
p236
(dp237
g4
S'Non-Expert Evaluation of Summarization Systems is Risky'
p238
sg6
S'2010'
p239
sg8
g236
sg9
S'non expert evalu summar system riski'
p240
ssS'C10-1067'
p241
(dp242
g4
S'Automatic generation of inter-passage links based on semantic similarity'
p243
sg6
S'2010'
p244
sg8
g241
sg9
S'automat gener inter passag link base semant similar'
p245
ssS'W10-0724'
p246
(dp247
g4
S'Evaluation of Commonsense Knowledge with Mechanical Turk'
p248
sg6
S'2010'
p249
sg8
g246
sg9
S'evalu commonsens knowledg mechan turk'
p250
ssS'W10-0725'
p251
(dp252
g4
S'Cheap Facts and Counter-Facts'
p253
sg6
S'2010'
p254
sg8
g251
sg9
S'cheap fact counter fact'
p255
ssS'W10-0726'
p256
(dp257
g4
S'The Wisdom of the Crowd&acirc;s Ear: Speech Accent Rating and Annotation with Amazon Mechanical Turk'
p258
sg6
S'2010'
p259
sg8
g256
sg9
S'wisdom crowd acirc s ear speech accent rate annot amazon mechan turk'
p260
ssS'W10-0727'
p261
(dp262
g4
S'Crowdsourcing Document Relevance Assessment with Mechanical Turk'
p263
sg6
S'2010'
p264
sg8
g261
sg9
S'crowdsourc document relev assess mechan turk'
p265
ssS'D11-1084'
p266
(dp267
g4
S'Cache-based Document-level Statistical Machine Translation'
p268
sg6
S'2011'
p269
sg8
g266
sg9
S'cach base document level statist machin translat'
p270
ssS'D11-1085'
p271
(dp272
g4
S'Minimum Imputed-Risk: Unsupervised Discriminative Training for Machine Translation'
p273
sg6
S'2011'
p274
sg8
g271
sg9
S'minimum imput risk unsupervis discrimin train machin translat'
p275
ssS'D11-1086'
p276
(dp277
g4
S'Improving Bilingual Projections via Sparse Covariance Matrices'
p278
sg6
S'2011'
p279
sg8
g276
sg9
S'improv bilingu project via spars covari matric'
p280
ssS'D11-1087'
p281
(dp282
g4
S'Entire Relaxation Path for Maximum Entropy Problems'
p283
sg6
S'2011'
p284
sg8
g281
sg9
S'entir relax path maximum entropi problem'
p285
ssS'D11-1080'
p286
(dp287
g4
S'Statistical Machine Translation with Local Language Models'
p288
sg6
S'2011'
p289
sg8
g286
sg9
S'statist machin translat local languag model'
p290
ssS'D11-1081'
p291
(dp292
g4
S'Fast Generation of Translation Forest for Large-Scale SMT Discriminative Training'
p293
sg6
S'2011'
p294
sg8
g291
sg9
S'fast gener translat forest larg scale smt discrimin train'
p295
ssS'D11-1082'
p296
(dp297
g4
S'A Correction Model for Word Alignments'
p298
sg6
S'2011'
p299
sg8
g296
sg9
S'correct model word align'
p300
ssS'D11-1083'
p301
(dp302
g4
S'Heuristic Search for Non-Bottom-Up Tree Structure Prediction'
p303
sg6
S'2011'
p304
sg8
g301
sg9
S'heurist search non bottom tree structur predict'
p305
ssS'C10-1138'
p306
(dp307
g4
S'Contextual Modeling for Meeting Translation Using Unsupervised Word Sense Disambiguation'
p308
sg6
S'2010'
p309
sg8
g306
sg9
S'contextu model meet translat us unsupervis word sens disambigu'
p310
ssS'C10-1083'
p311
(dp312
g4
S'Exploiting Structured Ontology to Organize Scattered Online Opinions'
p313
sg6
S'2010'
p314
sg8
g311
sg9
S'exploit structur ontolog organ scatter onlin opinion'
p315
ssS'D11-1088'
p316
(dp317
g4
S'A Non-negative Matrix Factorization Based Approach for Active Dual Supervision from Document and Word Labels'
p318
sg6
S'2011'
p319
sg8
g316
sg9
S'non neg matrix factor base approach activ dual supervis document word label'
p320
ssS'D11-1089'
p321
(dp322
g4
S'Splitting Noun Compounds via Monolingual and Bilingual Paraphrasing: A Study on Japanese Katakana Words'
p323
sg6
S'2011'
p324
sg8
g321
sg9
S'split noun compound via monolingu bilingu paraphras studi japanes katakana word'
p325
ssS'C10-4001'
p326
(dp327
g4
S'Paraphrases and Applications'
p328
sg6
S'2010'
p329
sg8
g326
sg9
S'paraphras applic'
p330
ssS'C10-2147'
p331
(dp332
g4
S'Urdu and Hindi: Translation and sharing of linguistic resources'
p333
sg6
S'2010'
p334
sg8
g331
sg9
S'urdu hindi translat share linguist resourc'
p335
ssS'C10-1051'
p336
(dp337
g4
S'A Novel Reordering Model Based on Multi-layer Phrase for Statistical Machine Translation'
p338
sg6
S'2010'
p339
sg8
g336
sg9
S'novel reorder model base multi layer phrase statist machin translat'
p340
ssS'S10-1081'
p341
(dp342
g4
S'Duluth-WSI: SenseClusters Applied to the Sense Induction Task of SemEval-2'
p343
sg6
S'2010'
p344
sg8
g341
sg9
S'duluth wsi senseclust appli sens induct task semev 2'
p345
ssS'W10-0508'
p346
(dp347
g4
S'Intelligent Linux Information Access by Data Mining: the ILIAD Project'
p348
sg6
S'2010'
p349
sg8
g346
sg9
S'intellig linux inform access data mine iliad project'
p350
ssS'W10-0509'
p351
(dp352
g4
S'Mining User Experiences from Online Forums: An Exploration'
p353
sg6
S'2010'
p354
sg8
g351
sg9
S'mine user experi onlin forum explor'
p355
ssS'C10-1050'
p356
(dp357
g4
S'Hierarchical Phrase-based Machine Translation with Word-based Reordering Model'
p358
sg6
S'2010'
p359
sg8
g356
sg9
S'hierarch phrase base machin translat word base reorder model'
p360
ssS'W10-0504'
p361
(dp362
g4
S'An Information-Retrieval Approach to Language Modeling: Applications to Social Data'
p363
sg6
S'2010'
p364
sg8
g361
sg9
S'inform retriev approach languag model applic social data'
p365
ssS'W10-0505'
p366
(dp367
g4
S'Towards Automatic Question Answering over Social Media by Learning Question Equivalence Patterns'
p368
sg6
S'2010'
p369
sg8
g366
sg9
S'toward automat question answer social media learn question equival pattern'
p370
ssS'W10-0506'
p371
(dp372
g4
S'Modeling Message Roles and Influence in Q&#x26;A Forums'
p373
sg6
S'2010'
p374
sg8
g371
sg9
S'model messag role influenc q x26 forum'
p375
ssS'C10-1077'
p376
(dp377
g4
S'Filtered Ranking for Bootstrapping in Event Extraction'
p378
sg6
S'2010'
p379
sg8
g376
sg9
S'filter rank bootstrap event extract'
p380
ssS'C10-1053'
p381
(dp382
g4
S'Normal-form parsing for Combinatory Categorial Grammars with generalized composition and type-raising'
p383
sg6
S'2010'
p384
sg8
g381
sg9
S'normal form pars combinatori categori grammar gener composit type rais'
p385
ssS'S10-1085'
p386
(dp387
g4
S'JAIST: Clustering and Classification Based Approaches for Japanese WSD'
p388
sg6
S'2010'
p389
sg8
g386
sg9
S'jaist cluster classif base approach japanes wsd'
p390
ssS'W10-0503'
p391
(dp392
g4
S'Detecting Word Misuse in Chinese'
p393
sg6
S'2010'
p394
sg8
g391
sg9
S'detect word misus chines'
p395
ssS'D10-1090'
p396
(dp397
g4
S'PEM: A Paraphrase Evaluation Metric Exploiting Parallel Texts'
p398
sg6
S'2010'
p399
sg8
g396
sg9
S'pem paraphras evalu metric exploit parallel text'
p400
ssS'D10-1091'
p401
(dp402
g4
S'Assessing Phrase-Based Translation Models with Oracle Decoding'
p403
sg6
S'2010'
p404
sg8
g401
sg9
S'assess phrase base translat model oracl decod'
p405
ssS'D10-1092'
p406
(dp407
g4
S'Automatic Evaluation of Translation Quality for Distant Language Pairs'
p408
sg6
S'2010'
p409
sg8
g406
sg9
S'automat evalu translat qualiti distant languag pair'
p410
ssS'D10-1093'
p411
(dp412
g4
S'An Approach of Generating Personalized Views from Normalized Electronic Dictionaries : A Practical Experiment on Arabic Language'
p413
sg6
S'2010'
p414
sg8
g411
sg9
S'approach gener person view normal electron dictionari practic experi arab languag'
p415
ssS'D10-1094'
p416
(dp417
g4
S'Generating Confusion Sets for Context-Sensitive Error Correction'
p418
sg6
S'2010'
p419
sg8
g416
sg9
S'gener confus set context sensit error correct'
p420
ssS'D10-1095'
p421
(dp422
g4
S'Confidence in Structured-Prediction Using Confidence-Weighted Models'
p423
sg6
S'2010'
p424
sg8
g421
sg9
S'confid structur predict us confid weight model'
p425
ssS'D10-1096'
p426
(dp427
g4
S'Evaluating the Impact of Alternative Dependency Graph Encodings on Solving Event Extraction Tasks'
p428
sg6
S'2010'
p429
sg8
g426
sg9
S'evalu impact altern depend graph encod solv event extract task'
p430
ssS'D10-1097'
p431
(dp432
g4
S'Enhancing Mention Detection Using Projection via Aligned Corpora'
p433
sg6
S'2010'
p434
sg8
g431
sg9
S'enhanc mention detect us project via align corpora'
p435
ssS'D10-1098'
p436
(dp437
g4
S'Domain Adaptation of Rule-Based Annotators for Named-Entity Recognition Tasks'
p438
sg6
S'2010'
p439
sg8
g436
sg9
S'domain adapt rule base annot name entiti recognit task'
p440
ssS'D10-1099'
p441
(dp442
g4
S'Collective Cross-Document Relation Extraction Without Labelled Data'
p443
sg6
S'2010'
p444
sg8
g441
sg9
S'collect cross document relat extract without label data'
p445
ssS'C10-1054'
p446
(dp447
g4
S'An Empirical Study on Web Mining of Parallel Data'
p448
sg6
S'2010'
p449
sg8
g446
sg9
S'empir studi web mine parallel data'
p450
ssS'C10-2140'
p451
(dp452
g4
S'Confidence Measures for Error Discrimination in an Interactive Predictive Parsing Framework'
p453
sg6
S'2010'
p454
sg8
g451
sg9
S'confid measur error discrimin interact predict pars framework'
p455
ssS'C10-1057'
p456
(dp457
g4
S'FactRank: Random Walks on a Web of Facts'
p458
sg6
S'2010'
p459
sg8
g456
sg9
S'factrank random walk web fact'
p460
ssS'C10-1071'
p461
(dp462
g4
S'Constituent Reordering and Syntax Models for English-to-Japanese Statistical Machine Translation'
p463
sg6
S'2010'
p464
sg8
g461
sg9
S'constitu reorder syntax model english japanes statist machin translat'
p465
ssS'C10-1076'
p466
(dp467
g4
S'Learning the Scope of Negation via Shallow Semantic Parsing'
p468
sg6
S'2010'
p469
sg8
g466
sg9
S'learn scope negat via shallow semant pars'
p470
ssS'C10-1056'
p471
(dp472
g4
S'Feature-Rich Discriminative Phrase Rescoring for SMT'
p473
sg6
S'2010'
p474
sg8
g471
sg9
S'featur rich discrimin phrase rescor smt'
p475
ssS'C10-1084'
p476
(dp477
g4
S'Enhancing Morphological Alignment for Translating Highly Inflected Languages'
p478
sg6
S'2010'
p479
sg8
g476
sg9
S'enhanc morpholog align translat highli inflect languag'
p480
ssS'S10-1002'
p481
(dp482
g4
S'SemEval-2010 Task 2: Cross-Lingual Lexical Substitution'
p483
sg6
S'2010'
p484
sg8
g481
sg9
S'semev 2010 task 2 cross lingual lexic substitut'
p485
ssS'S10-1003'
p486
(dp487
g4
S'SemEval-2010 Task 3: Cross-Lingual Word Sense Disambiguation'
p488
sg6
S'2010'
p489
sg8
g486
sg9
S'semev 2010 task 3 cross lingual word sens disambigu'
p490
ssS'S10-1001'
p491
(dp492
g4
S'SemEval-2010 Task 1: Coreference Resolution in Multiple Languages'
p493
sg6
S'2010'
p494
sg8
g491
sg9
S'semev 2010 task 1 corefer resolut multipl languag'
p495
ssS'S10-1006'
p496
(dp497
g4
S'SemEval-2010 Task 8: Multi-Way Classification of Semantic Relations between Pairs of Nominals'
p498
sg6
S'2010'
p499
sg8
g496
sg9
S'semev 2010 task 8 multi wai classif semant relat pair nomin'
p500
ssS'S10-1007'
p501
(dp502
g4
S'SemEval-2 Task 9: The Interpretation of Noun Compounds Using Paraphrasing Verbs and Prepositions'
p503
sg6
S'2010'
p504
sg8
g501
sg9
S'semev 2 task 9 interpret noun compound us paraphras verb preposit'
p505
ssS'S10-1004'
p506
(dp507
g4
S'SemEval-2010 Task 5 : Automatic Keyphrase Extraction from Scientific Articles'
p508
sg6
S'2010'
p509
sg8
g506
sg9
S'semev 2010 task 5 automat keyphras extract scientif articl'
p510
ssS'S10-1005'
p511
(dp512
g4
S'SemEval-2010 Task 7: Argument Selection and Coercion'
p513
sg6
S'2010'
p514
sg8
g511
sg9
S'semev 2010 task 7 argument select coercion'
p515
ssS'S10-1008'
p516
(dp517
g4
S'SemEval-2010 Task 10: Linking Events and Their Participants in Discourse'
p518
sg6
S'2010'
p519
sg8
g516
sg9
S'semev 2010 task 10 link event particip discours'
p520
ssS'S10-1009'
p521
(dp522
g4
S'SemEval-2010 Task 12: Parser Evaluation Using Textual Entailments'
p523
sg6
S'2010'
p524
sg8
g521
sg9
S'semev 2010 task 12 parser evalu us textual entail'
p525
ssS'C10-1144'
p526
(dp527
g4
S'Forest-guided Supertagger Training'
p528
sg6
S'2010'
p529
sg8
g526
sg9
S'forest guid supertagg train'
p530
ssS'W11-2129'
p531
(dp532
g4
S'Productive Generation of Compound Words in Statistical Machine Translation'
p533
sg6
S'2011'
p534
sg8
g531
sg9
S'product gener compound word statist machin translat'
p535
ssS'W11-2128'
p536
(dp537
g4
S'Filtering Antonymous, Trend-Contrasting, and Polarity-Dissimilar Distributional Paraphrases for Improving Statistical Machine Translation'
p538
sg6
S'2011'
p539
sg8
g536
sg9
S'filter antonym trend contrast polar dissimilar distribut paraphras improv statist machin translat'
p540
ssS'W11-2127'
p541
(dp542
g4
S'Fuzzy Syntactic Reordering for Phrase-based Statistical Machine Translation'
p543
sg6
S'2011'
p544
sg8
g541
sg9
S'fuzzi syntact reorder phrase base statist machin translat'
p545
ssS'W11-2126'
p546
(dp547
g4
S'Agreement Constraints for Statistical Machine Translation into German'
p548
sg6
S'2011'
p549
sg8
g546
sg9
S'agreement constraint statist machin translat german'
p550
ssS'W11-2125'
p551
(dp552
g4
S'A Minimally Supervised Approach for Detecting and Ranking Document Translation Pairs'
p553
sg6
S'2011'
p554
sg8
g551
sg9
S'minim supervis approach detect rank document translat pair'
p555
ssS'W11-2124'
p556
(dp557
g4
S'Wider Context by Using Bilingual Language Models in Machine Translation'
p558
sg6
S'2011'
p559
sg8
g556
sg9
S'wider context us bilingu languag model machin translat'
p560
ssS'W11-2123'
p561
(dp562
g4
S'KenLM: Faster and Smaller Language Model Queries'
p563
sg6
S'2011'
p564
sg8
g561
sg9
S'kenlm faster smaller languag model queri'
p565
ssS'W11-2122'
p566
(dp567
g4
S'Multiple-stream Language Models for Statistical Machine Translation'
p568
sg6
S'2011'
p569
sg8
g566
sg9
S'multipl stream languag model statist machin translat'
p570
ssS'W11-2121'
p571
(dp572
g4
S'Description of the JHU System Combination Scheme for WMT 2011'
p573
sg6
S'2011'
p574
sg8
g571
sg9
S'descript jhu system combin scheme wmt 2011'
p575
ssS'W11-2120'
p576
(dp577
g4
S'The UZH System Combination System for WMT 2011'
p578
sg6
S'2011'
p579
sg8
g576
sg9
S'uzh system combin system wmt 2011'
p580
ssS'W10-0210'
p581
(dp582
g4
S'@AM: Textual Attitude Analysis Model'
p583
sg6
S'2010'
p584
sg8
g581
sg9
S'textual attitud analysi model'
p585
ssS'D11-1149'
p586
(dp587
g4
S'A Probabilistic Forest-to-String Model for Language Generation from Typed Lambda Calculus Expressions'
p588
sg6
S'2011'
p589
sg8
g586
sg9
S'probabilist forest string model languag gener type lambda calculu express'
p590
ssS'W10-0212'
p591
(dp592
g4
S'Emotional Perception of Fairy Tales: Achieving Agreement in Emotion Annotation of Text'
p593
sg6
S'2010'
p594
sg8
g591
sg9
S'emot percept fairi tale achiev agreement emot annot text'
p595
ssS'C10-3004'
p596
(dp597
g4
S'LTP: A Chinese Language Technology Platform'
p598
sg6
S'2010'
p599
sg8
g596
sg9
S'ltp chines languag technolog platform'
p600
ssS'W10-0214'
p601
(dp602
g4
S'Recognizing Stances in Ideological On-Line Debates'
p603
sg6
S'2010'
p604
sg8
g601
sg9
S'recogn stanc ideolog line debat'
p605
ssS'W10-0215'
p606
(dp607
g4
S'NewsViz: Emotional Visualization of News Stories'
p608
sg6
S'2010'
p609
sg8
g606
sg9
S'newsviz emot visual new stori'
p610
ssS'W10-0216'
p611
(dp612
g4
S'Sentiment Classification using Automatically Extracted Subgraph Features'
p613
sg6
S'2010'
p614
sg8
g611
sg9
S'sentiment classif us automat extract subgraph featur'
p615
ssS'D11-1148'
p616
(dp617
g4
S'Exploiting Parse Structures for Native Language Identification'
p618
sg6
S'2011'
p619
sg8
g616
sg9
S'exploit pars structur nativ languag identif'
p620
ssS'S10-1088'
p621
(dp622
g4
S'UCF-WS: Domain Word Sense Disambiguation Using Web Selectors'
p623
sg6
S'2010'
p624
sg8
g621
sg9
S'ucf ws domain word sens disambigu us web selector'
p625
ssS'W11-2206'
p626
(dp627
g4
S'Unsupervised Language-Independent Name Translation Mining from Wikipedia Infoboxes'
p628
sg6
S'2011'
p629
sg8
g626
sg9
S'unsupervis languag independ name translat mine wikipedia infobox'
p630
ssS'D10-1009'
p631
(dp632
g4
S'Handling Noisy Queries in Cross Language FAQ Retrieval'
p633
sg6
S'2010'
p634
sg8
g631
sg9
S'handl noisi queri cross languag faq retriev'
p635
ssS'D10-1008'
p636
(dp637
g4
S'Automatically Producing Plot Unit Representations for Narrative Text'
p638
sg6
S'2010'
p639
sg8
g636
sg9
S'automat produc plot unit represent narr text'
p640
ssS'C10-1074'
p641
(dp642
g4
S'Structure-Aware Review Mining and Summarization'
p643
sg6
S'2010'
p644
sg8
g641
sg9
S'structur awar review mine summar'
p645
ssS'W11-2207'
p646
(dp647
g4
S'Twitter Polarity Classification with Label Propagation over Lexical Links and the Follower Graph'
p648
sg6
S'2011'
p649
sg8
g646
sg9
S'twitter polar classif label propag lexic link follow graph'
p650
ssS'D10-1003'
p651
(dp652
g4
S'Utilizing Extra-Sentential Context for Parsing'
p653
sg6
S'2010'
p654
sg8
g651
sg9
S'util extra sententi context pars'
p655
ssS'D10-1002'
p656
(dp657
g4
S'Self-Training with Products of Latent Variable Grammars'
p658
sg6
S'2010'
p659
sg8
g656
sg9
S'self train product latent variabl grammar'
p660
ssS'D10-1001'
p661
(dp662
g4
S'On Dual Decomposition and Linear Programming Relaxations for Natural Language Processing'
p663
sg6
S'2010'
p664
sg8
g661
sg9
S'dual decomposit linear program relax natur languag process'
p665
ssS'D10-1007'
p666
(dp667
g4
S'Summarizing Contrastive Viewpoints in Opinionated Text'
p668
sg6
S'2010'
p669
sg8
g666
sg9
S'summar contrast viewpoint opinion text'
p670
ssS'D10-1006'
p671
(dp672
g4
S'Jointly Modeling Aspects and Opinions with a MaxEnt-LDA Hybrid'
p673
sg6
S'2010'
p674
sg8
g671
sg9
S'jointli model aspect opinion maxent lda hybrid'
p675
ssS'D10-1005'
p676
(dp677
g4
S'Holistic Sentiment Analysis Across Languages: Multilingual Supervised Latent Dirichlet Allocation'
p678
sg6
S'2010'
p679
sg8
g676
sg9
S'holist sentiment analysi across languag multilingu supervis latent dirichlet alloc'
p680
ssS'D10-1004'
p681
(dp682
g4
S'Turbo Parsers: Dependency Parsing by Approximate Variational Inference'
p683
sg6
S'2010'
p684
sg8
g681
sg9
S'turbo parser depend pars approxim variat infer'
p685
ssS'C10-3005'
p686
(dp687
g4
S'Have2eat: a Restaurant Finder with Review Summarization for Mobile Phones'
p688
sg6
S'2010'
p689
sg8
g686
sg9
S'have2eat restaur finder review summar mobil phone'
p690
ssS'W11-2205'
p691
(dp692
g4
S'Evaluating unsupervised learning for natural language processing tasks'
p693
sg6
S'2011'
p694
sg8
g691
sg9
S'evalu unsupervis learn natur languag process task'
p695
ssS'C10-1004'
p696
(dp697
g4
S'Multilingual Subjectivity: Are More Languages Better?'
p698
sg6
S'2010'
p699
sg8
g696
sg9
S'multilingu subject languag better'
p700
ssS'W11-2202'
p701
(dp702
g4
S'Structured Databases of Named Entities from Bayesian Nonparametrics'
p703
sg6
S'2011'
p704
sg8
g701
sg9
S'structur databas name entiti bayesian nonparametr'
p705
ssS'C10-1005'
p706
(dp707
g4
S'Plagiarism Detection across Distant Language Pairs'
p708
sg6
S'2010'
p709
sg8
g706
sg9
S'plagiar detect across distant languag pair'
p710
ssS'W11-2203'
p711
(dp712
g4
S'Unsupervised Cross-Lingual Lexical Substitution'
p713
sg6
S'2011'
p714
sg8
g711
sg9
S'unsupervis cross lingual lexic substitut'
p715
ssS'D11-1035'
p716
(dp717
g4
S'Better Evaluation Metrics Lead to Better Machine Translation'
p718
sg6
S'2011'
p719
sg8
g716
sg9
S'better evalu metric lead better machin translat'
p720
ssS'D11-1034'
p721
(dp722
g4
S'Language Models for Machine Translation: Original vs. Translated Texts'
p723
sg6
S'2011'
p724
sg8
g721
sg9
S'languag model machin translat origin vs translat text'
p725
ssS'D11-1037'
p726
(dp727
g4
S'Parser Evaluation over Local and Non-Local Deep Dependencies in a Large Corpus'
p728
sg6
S'2011'
p729
sg8
g726
sg9
S'parser evalu local non local deep depend larg corpu'
p730
ssS'D11-1036'
p731
(dp732
g4
S'Evaluating Dependency Parsing: Robust and Heuristics-Free Cross-Annotation Evaluation'
p733
sg6
S'2011'
p734
sg8
g731
sg9
S'evalu depend pars robust heurist free cross annot evalu'
p735
ssS'D11-1138'
p736
(dp737
g4
S'Training dependency parsers by jointly optimizing multiple objectives'
p738
sg6
S'2011'
p739
sg8
g736
sg9
S'train depend parser jointli optim multipl object'
p740
ssS'D11-1139'
p741
(dp742
g4
S'Structured Sparsity in Structured Prediction'
p743
sg6
S'2011'
p744
sg8
g741
sg9
S'structur sparsiti structur predict'
p745
ssS'D11-1033'
p746
(dp747
g4
S'Domain Adaptation via Pseudo In-Domain Data Selection'
p748
sg6
S'2011'
p749
sg8
g746
sg9
S'domain adapt via pseudo domain data select'
p750
ssS'D11-1032'
p751
(dp752
g4
S'Large-Scale Cognate Recovery'
p753
sg6
S'2011'
p754
sg8
g751
sg9
S'larg scale cognat recoveri'
p755
ssS'D11-1134'
p756
(dp757
g4
S'Discovering Relations between Noun Categories'
p758
sg6
S'2011'
p759
sg8
g756
sg9
S'discov relat noun categori'
p760
ssS'D11-1135'
p761
(dp762
g4
S'Structured Relation Discovery using Generative Models'
p763
sg6
S'2011'
p764
sg8
g761
sg9
S'structur relat discoveri us gener model'
p765
ssS'D11-1136'
p766
(dp767
g4
S'Closing the Loop: Fast, Interactive Semi-Supervised Annotation With Queries on Features and Instances'
p768
sg6
S'2011'
p769
sg8
g766
sg9
S'close loop fast interact semi supervis annot queri featur instanc'
p770
ssS'D11-1137'
p771
(dp772
g4
S'Third-order Variational Reranking on Packed-Shared Dependency Forests'
p773
sg6
S'2011'
p774
sg8
g771
sg9
S'third order variat rerank pack share depend forest'
p775
ssS'D11-1130'
p776
(dp777
g4
S'Cross-Cutting Models of Lexical Semantics'
p778
sg6
S'2011'
p779
sg8
g776
sg9
S'cross cut model lexic semant'
p780
ssS'D11-1131'
p781
(dp782
g4
S'Reducing Grounded Learning Tasks To Grammatical Inference'
p783
sg6
S'2011'
p784
sg8
g781
sg9
S'reduc ground learn task grammat infer'
p785
ssS'D11-1132'
p786
(dp787
g4
S'Relation Extraction with Relation Topics'
p788
sg6
S'2011'
p789
sg8
g786
sg9
S'relat extract relat topic'
p790
ssS'D11-1133'
p791
(dp792
g4
S'Extreme Extraction &#8211; Machine Reading in a Week'
p793
sg6
S'2011'
p794
sg8
g791
sg9
S'extrem extract 8211 machin read week'
p795
ssS'D11-1142'
p796
(dp797
g4
S'Identifying Relations for Open Information Extraction'
p798
sg6
S'2011'
p799
sg8
g796
sg9
S'identifi relat open inform extract'
p800
ssS'S10-1086'
p801
(dp802
g4
S'MSS: Investigating the Effectiveness of Domain Combinations and Topic Features for Word Sense Disambiguation'
p803
sg6
S'2010'
p804
sg8
g801
sg9
S'mss investig effect domain combin topic featur word sens disambigu'
p805
ssS'C10-1085'
p806
(dp807
g4
S'Automatic analysis of semantic similarity in comparable text through syntactic tree matching'
p808
sg6
S'2010'
p809
sg8
g806
sg9
S'automat analysi semant similar compar text syntact tree match'
p810
ssS'C10-2164'
p811
(dp812
g4
S'Fusion of Multiple Features and Ranking SVM for Web-based English-Chinese OOV Term Translation'
p813
sg6
S'2010'
p814
sg8
g811
sg9
S'fusion multipl featur rank svm web base english chines oov term translat'
p815
ssS'C10-2165'
p816
(dp817
g4
S'Machine Transliteration: Leveraging on Third Languages'
p818
sg6
S'2010'
p819
sg8
g816
sg9
S'machin transliter leverag third languag'
p820
ssS'C10-2049'
p821
(dp822
g4
S'Towards Automated Related Work Summarization'
p823
sg6
S'2010'
p824
sg8
g821
sg9
S'toward autom relat work summar'
p825
ssS'C10-2048'
p826
(dp827
g4
S'Word Sense Disambiguation-based Sentence Similarity'
p828
sg6
S'2010'
p829
sg8
g826
sg9
S'word sens disambigu base sentenc similar'
p830
ssS'C10-1018'
p831
(dp832
g4
S'Exploiting Background Knowledge for Relation Extraction'
p833
sg6
S'2010'
p834
sg8
g831
sg9
S'exploit background knowledg relat extract'
p835
ssS'C10-2161'
p836
(dp837
g4
S'Accelerated Training of Maximum Margin Markov Models for Sequence Labeling: A Case Study of NP Chunking'
p838
sg6
S'2010'
p839
sg8
g836
sg9
S'acceler train maximum margin markov model sequenc label case studi np chunk'
p840
ssS'C10-2162'
p841
(dp842
g4
S'Semi-automatically Developing Chinese HPSG Grammar from the Penn Chinese Treebank for Deep Parsing'
p843
sg6
S'2010'
p844
sg8
g841
sg9
S'semi automat develop chines hpsg grammar penn chines treebank deep pars'
p845
ssS'C10-2163'
p846
(dp847
g4
S'Cross-Lingual Induction for Deep Broad-Coverage Syntax: A Case Study on German Participles'
p848
sg6
S'2010'
p849
sg8
g846
sg9
S'cross lingual induct deep broad coverag syntax case studi german participl'
p850
ssS'C10-2043'
p851
(dp852
g4
S'Integrating N-best SMT Outputs into a TM System'
p853
sg6
S'2010'
p854
sg8
g851
sg9
S'integr n best smt output tm system'
p855
ssS'C10-2042'
p856
(dp857
g4
S'Conundrums in Unsupervised Keyphrase Extraction: Making Sense of the State-of-the-Art'
p858
sg6
S'2010'
p859
sg8
g856
sg9
S'conundrum unsupervis keyphras extract make sens state art'
p860
ssS'C10-2041'
p861
(dp862
g4
S'A Semantic Network Approach to Measuring Relatedness'
p863
sg6
S'2010'
p864
sg8
g861
sg9
S'semant network approach measur related'
p865
ssS'C10-2040'
p866
(dp867
g4
S'Verbs are where all the action lies: Experiences of Shallow Parsing of a Morphologically Rich Language'
p868
sg6
S'2010'
p869
sg8
g866
sg9
S'verb action li experi shallow pars morpholog rich languag'
p870
ssS'C10-2047'
p871
(dp872
g4
S'Recognizing Relation Expression between Named Entities based on Inherent and Context-dependent Features of Relational words'
p873
sg6
S'2010'
p874
sg8
g871
sg9
S'recogn relat express name entiti base inher context depend featur relat word'
p875
ssS'C10-2046'
p876
(dp877
g4
S'Learning to Model Domain-Specific Utterance Sequences for Extractive Summarization of Contact Center Dialogues'
p878
sg6
S'2010'
p879
sg8
g876
sg9
S'learn model domain specif utter sequenc extract summar contact center dialogu'
p880
ssS'C10-2045'
p881
(dp882
g4
S'Learning Summary Content Units with Topic Modeling'
p883
sg6
S'2010'
p884
sg8
g881
sg9
S'learn summari content unit topic model'
p885
ssS'C10-2044'
p886
(dp887
g4
S'Learning Phrase Boundaries for Hierarchical Phrase-based Translation'
p888
sg6
S'2010'
p889
sg8
g886
sg9
S'learn phrase boundari hierarch phrase base translat'
p890
ssS'W10-0303'
p891
(dp892
g4
S'Comparing Semantic Role Labeling with Typed Dependency Parsing in Computational Metaphor Identification'
p893
sg6
S'2010'
p894
sg8
g891
sg9
S'compar semant role label type depend pars comput metaphor identif'
p895
ssS'C10-1070'
p896
(dp897
g4
S'Revisiting Context-based Projection Methods for Term-Translation Spotting in Comparable Corpora'
p898
sg6
S'2010'
p899
sg8
g896
sg9
S'revisit context base project method term translat spot compar corpora'
p900
ssS'C10-1079'
p901
(dp902
g4
S'Semantic Role Labeling for News Tweets'
p903
sg6
S'2010'
p904
sg8
g901
sg9
S'semant role label new tweet'
p905
ssS'D11-1040'
p906
(dp907
g4
S'Timeline Generation through Evolutionary Trans-Temporal Summarization'
p908
sg6
S'2011'
p909
sg8
g906
sg9
S'timelin gener evolutionari tran tempor summar'
p910
ssS'D11-1041'
p911
(dp912
g4
S'Corpus-Guided Sentence Generation of Natural Images'
p913
sg6
S'2011'
p914
sg8
g911
sg9
S'corpu guid sentenc gener natur imag'
p915
ssS'D11-1042'
p916
(dp917
g4
S'Corroborating Text Evaluation Results with Heterogeneous Measures'
p918
sg6
S'2011'
p919
sg8
g916
sg9
S'corrobor text evalu result heterogen measur'
p920
ssS'D11-1043'
p921
(dp922
g4
S'Ranking Human and Machine Summarization Systems'
p923
sg6
S'2011'
p924
sg8
g921
sg9
S'rank human machin summar system'
p925
ssS'D11-1044'
p926
(dp927
g4
S'Quasi-Synchronous Phrase Dependency Grammars for Machine Translation'
p928
sg6
S'2011'
p929
sg8
g926
sg9
S'quasi synchron phrase depend grammar machin translat'
p930
ssS'D11-1045'
p931
(dp932
g4
S'A Word Reordering Model for Improved Machine Translation'
p933
sg6
S'2011'
p934
sg8
g931
sg9
S'word reorder model improv machin translat'
p935
ssS'D11-1046'
p936
(dp937
g4
S'Feature-Rich Language-Independent Syntax-Based Alignment for Statistical Machine Translation'
p938
sg6
S'2011'
p939
sg8
g936
sg9
S'featur rich languag independ syntax base align statist machin translat'
p940
ssS'D11-1047'
p941
(dp942
g4
S'Efficient retrieval of tree translation examples for Syntax-Based Machine Translation'
p943
sg6
S'2011'
p944
sg8
g941
sg9
S'effici retriev tree translat exampl syntax base machin translat'
p945
ssS'D11-1048'
p946
(dp947
g4
S'A generative model for unsupervised discovery of relations and argument classes from clinical texts'
p948
sg6
S'2011'
p949
sg8
g946
sg9
S'gener model unsupervis discoveri relat argument class clinic text'
p950
ssS'D11-1049'
p951
(dp952
g4
S'Random Walk Inference and Learning in A Large Scale Knowledge Base'
p953
sg6
S'2011'
p954
sg8
g951
sg9
S'random walk infer learn larg scale knowledg base'
p955
ssS'W10-0904'
p956
(dp957
g4
S'Large Scale Relation Detection'
p958
sg6
S'2010'
p959
sg8
g956
sg9
S'larg scale relat detect'
p960
ssS'C10-1078'
p961
(dp962
g4
S'Exploring variation across biomedical subdomains'
p963
sg6
S'2010'
p964
sg8
g961
sg9
S'explor variat across biomed subdomain'
p965
ssS'S10-1070'
p966
(dp967
g4
S'ID 392:TERSEO + T2T3 Transducer. A systems for Recognizing and Normalizing TIMEX3'
p968
sg6
S'2010'
p969
sg8
g966
sg9
S'id 392 terseo t2t3 transduc system recogn normal timex3'
p970
ssS'C10-3001'
p971
(dp972
g4
S'A Paraphrasing System for Transforming Regular Expressions into Honorifics'
p973
sg6
S'2010'
p974
sg8
g971
sg9
S'paraphras system transform regular express honorif'
p975
ssS'W10-0301'
p976
(dp977
g4
S'Automatic conjugation and identification of regular and irregular verb neologisms in Spanish'
p978
sg6
S'2010'
p979
sg8
g976
sg9
S'automat conjug identif regular irregular verb neolog spanish'
p980
ssS'S10-1076'
p981
(dp982
g4
S'NCSU: Modeling Temporal Relations with Markov Logic and Lexical Ontology'
p983
sg6
S'2010'
p984
sg8
g981
sg9
S'ncsu model tempor relat markov logic lexic ontolog'
p985
ssS'S10-1075'
p986
(dp987
g4
S'USFD2: Annotating Temporal Expresions and TLINKs for TempEval-2'
p988
sg6
S'2010'
p989
sg8
g986
sg9
S'usfd2 annot tempor expres tlink tempev 2'
p990
ssS'S10-1074'
p991
(dp992
g4
S'Edinburgh-LTG: TempEval-2 System Description'
p993
sg6
S'2010'
p994
sg8
g991
sg9
S'edinburgh ltg tempev 2 system descript'
p995
ssS'C10-3002'
p996
(dp997
g4
S'PyCWN: a Python Module for Chinese Wordnet'
p998
sg6
S'2010'
p999
sg8
g996
sg9
S'pycwn python modul chines wordnet'
p1000
ssS'W10-0306'
p1001
(dp1002
g4
S'Representing Story Plans in SUMO'
p1003
sg6
S'2010'
p1004
sg8
g1001
sg9
S'repres stori plan sumo'
p1005
ssS'S10-1079'
p1006
(dp1007
g4
S'UoY: Graphs of Unambiguous Vertices for Word Sense Induction and Disambiguation'
p1008
sg6
S'2010'
p1009
sg8
g1006
sg9
S'uoi graph unambigu vertic word sens induct disambigu'
p1010
ssS'W11-2307'
p1011
(dp1012
g4
S'Indian Language Screen Readers and Syllable Based Festival Text-to-Speech Synthesis System'
p1013
sg6
S'2011'
p1014
sg8
g1011
sg9
S'indian languag screen reader syllabl base festiv text speech synthesi system'
p1015
ssS'W11-2306'
p1016
(dp1017
g4
S'Improving the Accessibility of Line Graphs in Multimodal Documents'
p1018
sg6
S'2011'
p1019
sg8
g1016
sg9
S'improv access line graph multimod document'
p1020
ssS'W11-2305'
p1021
(dp1022
g4
S'Asynchronous fixed-grid scanning with dynamic codes'
p1023
sg6
S'2011'
p1024
sg8
g1021
sg9
S'asynchron fix grid scan dynam code'
p1025
ssS'W11-2304'
p1026
(dp1027
g4
S'Trap Hunting: Finding Personal Data Management Issues in Next Generation AAC Devices'
p1028
sg6
S'2011'
p1029
sg8
g1026
sg9
S'trap hunt find person data manag issu next gener aac devic'
p1030
ssS'W11-2303'
p1031
(dp1032
g4
S'Towards technology-assisted co-construction with communication partners'
p1033
sg6
S'2011'
p1034
sg8
g1031
sg9
S'toward technolog assist co construct commun partner'
p1035
ssS'W11-2302'
p1036
(dp1037
g4
S'Acoustic transformations to improve the intelligibility of dysarthric speech'
p1038
sg6
S'2011'
p1039
sg8
g1036
sg9
S'acoust transform improv intellig dysarthr speech'
p1040
ssS'W11-2301'
p1041
(dp1042
g4
S'An on-line system for remote treatment of aphasia'
p1043
sg6
S'2011'
p1044
sg8
g1041
sg9
S'line system remot treatment aphasia'
p1045
ssS'C10-2110'
p1046
(dp1047
g4
S'The Role of Queries in Ranking Labeled Instances Extracted from Text'
p1048
sg6
S'2010'
p1049
sg8
g1046
sg9
S'role queri rank label instanc extract text'
p1050
ssS'W11-2309'
p1051
(dp1052
g4
S'Source Language Categorization for improving a Speech into Sign Language Translation System'
p1053
sg6
S'2011'
p1054
sg8
g1051
sg9
S'sourc languag categor improv speech sign languag translat system'
p1055
ssS'W11-2308'
p1056
(dp1057
g4
S'READ&#8211;IT: Assessing Readability of Italian Texts with a View to Text Simplification'
p1058
sg6
S'2011'
p1059
sg8
g1056
sg9
S'read 8211 assess readabl italian text view text simplif'
p1060
ssS'C10-3003'
p1061
(dp1062
g4
S'Annotation Tool for Discourse in PDT'
p1063
sg6
S'2010'
p1064
sg8
g1061
sg9
S'annot tool discours pdt'
p1065
ssS'S10-1072'
p1066
(dp1067
g4
S'KUL: Recognition and Normalization of Temporal Expressions'
p1068
sg6
S'2010'
p1069
sg8
g1066
sg9
S'kul recognit normal tempor express'
p1070
ssS'W10-0307'
p1071
(dp1072
g4
S'Computational Creativity Tools for Songwriters'
p1073
sg6
S'2010'
p1074
sg8
g1071
sg9
S'comput creativ tool songwrit'
p1075
ssS'J11-1014'
p1076
(dp1077
g4
S'Last Words: Improving Our Reviewing Processes'
p1078
sg6
S'2011'
p1079
sg8
g1076
sg9
S'last word improv review process'
p1080
ssS'C10-2148'
p1081
(dp1082
g4
S'Phrase Structure Parsing with Dependency Structure'
p1083
sg6
S'2010'
p1084
sg8
g1081
sg9
S'phrase structur pars depend structur'
p1085
ssS'W10-0305'
p1086
(dp1087
g4
S'An alternate approach towards meaningful lyric generation in Tamil'
p1088
sg6
S'2010'
p1089
sg8
g1086
sg9
S'altern approach toward meaning lyric gener tamil'
p1090
ssS'C10-2119'
p1091
(dp1092
g4
S'Designing Agreement Features for Realization Ranking'
p1093
sg6
S'2010'
p1094
sg8
g1091
sg9
S'design agreement featur realiz rank'
p1095
ssS'C10-2149'
p1096
(dp1097
g4
S'Automatic Generation of Semantic Fields for Annotating Web Images'
p1098
sg6
S'2010'
p1099
sg8
g1096
sg9
S'automat gener semant field annot web imag'
p1100
ssS'C10-2098'
p1101
(dp1102
g4
S'Imbalanced Classification Using Dictionary-based Prototypes and Hierarchical Decision Rules for Entity Sense Disambiguation'
p1103
sg6
S'2010'
p1104
sg8
g1101
sg9
S'imbalanc classif us dictionari base prototyp hierarch decis rule entiti sens disambigu'
p1105
ssS'C10-2099'
p1106
(dp1107
g4
S'A Vector Space Model for Subjectivity Classification in Urdu aided by Co-Training'
p1108
sg6
S'2010'
p1109
sg8
g1106
sg9
S'vector space model subject classif urdu aid co train'
p1110
ssS'C10-2118'
p1111
(dp1112
g4
S'Realization of Discourse Relations by Other Means: Alternative Lexicalizations'
p1113
sg6
S'2010'
p1114
sg8
g1111
sg9
S'realiz discours relat mean altern lexic'
p1115
ssS'C10-2094'
p1116
(dp1117
g4
S'Instance Sense Induction from Attribute Sets'
p1118
sg6
S'2010'
p1119
sg8
g1116
sg9
S'instanc sens induct attribut set'
p1120
ssS'C10-2095'
p1121
(dp1122
g4
S'A Power Mean Based Algorithm for Combining Multiple Alignment Tables'
p1123
sg6
S'2010'
p1124
sg8
g1121
sg9
S'power mean base algorithm combin multipl align tabl'
p1125
ssS'C10-2096'
p1126
(dp1127
g4
S'Machine Translation with Lattices and Forests'
p1128
sg6
S'2010'
p1129
sg8
g1126
sg9
S'machin translat lattic forest'
p1130
ssS'C10-2097'
p1131
(dp1132
g4
S'Automatic Persian WordNet Construction'
p1133
sg6
S'2010'
p1134
sg8
g1131
sg9
S'automat persian wordnet construct'
p1135
ssS'C10-2090'
p1136
(dp1137
g4
S'Opinion Target Extraction in Chinese News Comments'
p1138
sg6
S'2010'
p1139
sg8
g1136
sg9
S'opinion target extract chines new comment'
p1140
ssS'C10-2091'
p1141
(dp1142
g4
S'Finite-state Scriptural Translation'
p1143
sg6
S'2010'
p1144
sg8
g1141
sg9
S'finit state scriptur translat'
p1145
ssS'C10-2092'
p1146
(dp1147
g4
S'Dimensionality Reduction for Text using Domain Knowledge'
p1148
sg6
S'2010'
p1149
sg8
g1146
sg9
S'dimension reduct text us domain knowledg'
p1150
ssS'C10-2093'
p1151
(dp1152
g4
S'Varro: An Algorithm and Toolkit for Regular Structure Discovery in Treebanks'
p1153
sg6
S'2010'
p1154
sg8
g1151
sg9
S'varro algorithm toolkit regular structur discoveri treebank'
p1155
ssS'D10-1047'
p1156
(dp1157
g4
S'Multi-Document Summarization Using A* Search and Discriminative Learning'
p1158
sg6
S'2010'
p1159
sg8
g1156
sg9
S'multi document summar us search discrimin learn'
p1160
ssS'D10-1046'
p1161
(dp1162
g4
S'Fusing Eye Gaze with Speech Recognition Hypotheses to Resolve Exophoric References in Situated Dialogue'
p1163
sg6
S'2010'
p1164
sg8
g1161
sg9
S'fuse ey gaze speech recognit hypothes resolv exophor refer situat dialogu'
p1165
ssS'D10-1045'
p1166
(dp1167
g4
S'NLP on Spoken Documents Without ASR'
p1168
sg6
S'2010'
p1169
sg8
g1166
sg9
S'nlp spoken document without asr'
p1170
ssS'D10-1044'
p1171
(dp1172
g4
S'Discriminative Instance Weighting for Domain Adaptation in Statistical Machine Translation'
p1173
sg6
S'2010'
p1174
sg8
g1171
sg9
S'discrimin instanc weight domain adapt statist machin translat'
p1175
ssS'D10-1043'
p1176
(dp1177
g4
S'Non-Isomorphic Forest Pair Translation'
p1178
sg6
S'2010'
p1179
sg8
g1176
sg9
S'non isomorph forest pair translat'
p1180
ssS'D10-1042'
p1181
(dp1182
g4
S'Mining Name Translations from Entity Graph Mapping'
p1183
sg6
S'2010'
p1184
sg8
g1181
sg9
S'mine name translat entiti graph map'
p1185
ssS'D10-1041'
p1186
(dp1187
g4
S'Facilitating Translation Using Source Language Paraphrase Lattices'
p1188
sg6
S'2010'
p1189
sg8
g1186
sg9
S'facilit translat us sourc languag paraphras lattic'
p1190
ssS'D10-1040'
p1191
(dp1192
g4
S'A Game-Theoretic Approach to Generating Spatial Descriptions'
p1193
sg6
S'2010'
p1194
sg8
g1191
sg9
S'game theoret approach gener spatial descript'
p1195
ssS'W11-2401'
p1196
(dp1197
g4
S'Evaluating Answers to Reading Comprehension Questions in Context: Results for German and the Role of Information Structure'
p1198
sg6
S'2011'
p1199
sg8
g1196
sg9
S'evalu answer read comprehens question context result german role inform structur'
p1200
ssS'W11-2402'
p1201
(dp1202
g4
S'Towards a Probabilistic Model for Lexical Entailment'
p1203
sg6
S'2011'
p1204
sg8
g1201
sg9
S'toward probabilist model lexic entail'
p1205
ssS'W11-2403'
p1206
(dp1207
g4
S'Classification-based Contextual Preferences'
p1208
sg6
S'2011'
p1209
sg8
g1206
sg9
S'classif base contextu prefer'
p1210
ssS'W11-2404'
p1211
(dp1212
g4
S'Is it Worth Submitting this Run? Assess your RTE System with a Good Sparring Partner'
p1213
sg6
S'2011'
p1214
sg8
g1211
sg9
S'worth submit run assess rte system good spar partner'
p1215
ssS'W11-2405'
p1216
(dp1217
g4
S'Diversity-aware Evaluation for Paraphrase Patterns'
p1218
sg6
S'2011'
p1219
sg8
g1216
sg9
S'divers awar evalu paraphras pattern'
p1220
ssS'D10-1049'
p1221
(dp1222
g4
S'A Simple Domain-Independent Probabilistic Approach to Generation'
p1223
sg6
S'2010'
p1224
sg8
g1221
sg9
S'simpl domain independ probabilist approach gener'
p1225
ssS'D10-1048'
p1226
(dp1227
g4
S'A Multi-Pass Sieve for Coreference Resolution'
p1228
sg6
S'2010'
p1229
sg8
g1226
sg9
S'multi pass siev corefer resolut'
p1230
ssS'J10-4006'
p1231
(dp1232
g4
S'Distributional Memory: A General Framework for Corpus-Based Semantics'
p1233
sg6
S'2010'
p1234
sg8
g1231
sg9
S'distribut memori gener framework corpu base semant'
p1235
ssS'J10-4007'
p1236
(dp1237
g4
S'A Flexible, Corpus-Driven Model of Regular and Inverse Selectional Preferences'
p1238
sg6
S'2010'
p1239
sg8
g1236
sg9
S'flexibl corpu driven model regular invers select prefer'
p1240
ssS'J10-4004'
p1241
(dp1242
g4
S'Squibs: On Paraphrase and Coreference'
p1243
sg6
S'2010'
p1244
sg8
g1241
sg9
S'squib paraphras corefer'
p1245
ssS'J10-4005'
p1246
(dp1247
g4
S'String-to-Dependency Statistical Machine Translation'
p1248
sg6
S'2010'
p1249
sg8
g1246
sg9
S'string depend statist machin translat'
p1250
ssS'J10-4002'
p1251
(dp1252
g4
S'ACL Lifetime Achievement Award: The Right Tools: Reflections on Computation and Language'
p1253
sg6
S'2010'
p1254
sg8
g1251
sg9
S'acl lifetim achiev award right tool reflect comput languag'
p1255
ssS'J10-4003'
p1256
(dp1257
g4
S'Squibs: An Asymptotic Model for the English Hapax/Vocabulary Ratio'
p1258
sg6
S'2010'
p1259
sg8
g1256
sg9
S'squib asymptot model english hapax vocabulari ratio'
p1260
ssS'S10-1051'
p1261
(dp1262
g4
S'UCD-Goggle: A Hybrid System for Noun Compound Paraphrasing'
p1263
sg6
S'2010'
p1264
sg8
g1261
sg9
S'ucd goggl hybrid system noun compound paraphras'
p1265
ssS'C10-2146'
p1266
(dp1267
g4
S'A Multi-Domain Web-Based Algorithm for POS Tagging of Unknown Words'
p1268
sg6
S'2010'
p1269
sg8
g1266
sg9
S'multi domain web base algorithm po tag unknown word'
p1270
ssS'S10-1053'
p1271
(dp1272
g4
S'UvT-WSD1: A Cross-Lingual Word Sense Disambiguation System'
p1273
sg6
S'2010'
p1274
sg8
g1271
sg9
S'uvt wsd1 cross lingual word sens disambigu system'
p1275
ssS'S10-1052'
p1276
(dp1277
g4
S'UCD-PN: Selecting General Paraphrases Using Conditional Probability'
p1278
sg6
S'2010'
p1279
sg8
g1276
sg9
S'ucd pn select gener paraphras us condit probabl'
p1280
ssS'S10-1055'
p1281
(dp1282
g4
S'HUMB: Automatic Key Term Extraction from Scientific Articles in GROBID'
p1283
sg6
S'2010'
p1284
sg8
g1281
sg9
S'humb automat kei term extract scientif articl grobid'
p1285
ssS'C10-2105'
p1286
(dp1287
g4
S'Opinion Summarization with Integer Linear Programming Formulation for Sentence Extraction and Ordering'
p1288
sg6
S'2010'
p1289
sg8
g1286
sg9
S'opinion summar integ linear program formul sentenc extract order'
p1290
ssS'J10-4008'
p1291
(dp1292
g4
S'Book Review: Introduction to Linguistic Annotation and Text Analytics by Graham Wilcock'
p1293
sg6
S'2010'
p1294
sg8
g1291
sg9
S'book review introduct linguist annot text analyt graham wilcock'
p1295
ssS'J10-4009'
p1296
(dp1297
g4
S'Book Review: Natural Language Processing with Python by Steven Bird, Ewan Klein, and Edward Loper'
p1298
sg6
S'2010'
p1299
sg8
g1296
sg9
S'book review natur languag process python steven bird ewan klein edward loper'
p1300
ssS'W10-0913'
p1301
(dp1302
g4
S'A Hybrid Approach to Unsupervised Relation Discovery Based on Linguistic Analysis and Semantic Typing'
p1303
sg6
S'2010'
p1304
sg8
g1301
sg9
S'hybrid approach unsupervis relat discoveri base linguist analysi semant type'
p1305
ssS'W10-0912'
p1306
(dp1307
g4
S'Analogical Dialogue Acts: Supporting Learning by Reading Analogies'
p1308
sg6
S'2010'
p1309
sg8
g1306
sg9
S'analog dialogu act support learn read analog'
p1310
ssS'W10-0911'
p1311
(dp1312
g4
S'Machine Reading at the University of Washington'
p1313
sg6
S'2010'
p1314
sg8
g1311
sg9
S'machin read univers washington'
p1315
ssS'W10-0910'
p1316
(dp1317
g4
S'Unsupervised techniques for discovering ontology elements from Wikipedia article links'
p1318
sg6
S'2010'
p1319
sg8
g1316
sg9
S'unsupervis techniqu discov ontolog element wikipedia articl link'
p1320
ssS'C10-2144'
p1321
(dp1322
g4
S'Extraction of Multi-word Expressions from Small Parallel Corpora'
p1323
sg6
S'2010'
p1324
sg8
g1321
sg9
S'extract multi word express small parallel corpora'
p1325
ssS'W10-0915'
p1326
(dp1327
g4
S'PRISMATIC: Inducing Knowledge from a Large Scale Lexicalized Relation Resource'
p1328
sg6
S'2010'
p1329
sg8
g1326
sg9
S'prismat induc knowledg larg scale lexic relat resourc'
p1330
ssS'W10-0914'
p1331
(dp1332
g4
S'Supporting rule-based representations with corpus-derived lexical information.'
p1333
sg6
S'2010'
p1334
sg8
g1331
sg9
S'support rule base represent corpu deriv lexic inform'
p1335
ssS'C10-2145'
p1336
(dp1337
g4
S'Citation Author Topic Model in Expert Search'
p1338
sg6
S'2010'
p1339
sg8
g1336
sg9
S'citat author topic model expert search'
p1340
ssS'C10-1002'
p1341
(dp1342
g4
S'Identifying Multi-word Expressions by Leveraging Morphological and Syntactic Idiosyncrasy'
p1343
sg6
S'2010'
p1344
sg8
g1341
sg9
S'identifi multi word express leverag morpholog syntact idiosyncrasi'
p1345
ssS'W11-2156'
p1346
(dp1347
g4
S'The BM-I2R Haitian-Cr&#233;ole-to-English translation system description for the WMT 2011 evaluation campaign'
p1348
sg6
S'2011'
p1349
sg8
g1346
sg9
S'bm i2r haitian cr 233 ol english translat system descript wmt 2011 evalu campaign'
p1350
ssS'W11-2157'
p1351
(dp1352
g4
S"The Universitat d'Alacant hybrid machine translation system for WMT 2011"
p1353
sg6
S'2011'
p1354
sg8
g1351
sg9
S'universitat d alac hybrid machin translat system wmt 2011'
p1355
ssS'W11-2154'
p1356
(dp1357
g4
S'The LIGA (LIG/LIA) Machine Translation System for WMT 2011'
p1358
sg6
S'2011'
p1359
sg8
g1356
sg9
S'liga lig lia machin translat system wmt 2011'
p1360
ssS'W11-2155'
p1361
(dp1362
g4
S'Factored Translation with Unsupervised Word Clusters'
p1363
sg6
S'2011'
p1364
sg8
g1361
sg9
S'factor translat unsupervis word cluster'
p1365
ssS'W11-2152'
p1366
(dp1367
g4
S'Two-step translation with grammatical post-processing'
p1368
sg6
S'2011'
p1369
sg8
g1366
sg9
S'two step translat grammat post process'
p1370
ssS'W11-2153'
p1371
(dp1372
g4
S'Influence of Parser Choice on Dependency-Based MT'
p1373
sg6
S'2011'
p1374
sg8
g1371
sg9
S'influenc parser choic depend base mt'
p1375
ssS'W11-2150'
p1376
(dp1377
g4
S'ILLC-UvA translation system for EMNLP-WMT 2011'
p1378
sg6
S'2011'
p1379
sg8
g1376
sg9
S'illc uva translat system emnlp wmt 2011'
p1380
ssS'W11-2151'
p1381
(dp1382
g4
S'UPM system for the translation task'
p1383
sg6
S'2011'
p1384
sg8
g1381
sg9
S'upm system translat task'
p1385
ssS'C10-1129'
p1386
(dp1387
g4
S'"Got You!": Automatic Vandalism Detection in Wikipedia with Web-based Shallow Syntactic-Semantic Modeling'
p1388
sg6
S'2010'
p1389
sg8
g1386
sg9
S'got automat vandal detect wikipedia web base shallow syntact semant model'
p1390
ssS'C10-1128'
p1391
(dp1392
g4
S'Towards a Unified Approach to Simultaneous Single-Document and Multi-Document Summarizations'
p1393
sg6
S'2010'
p1394
sg8
g1391
sg9
S'toward unifi approach simultan singl document multi document summar'
p1395
ssS'W11-2158'
p1396
(dp1397
g4
S'LIUM&#8217;s SMT Machine Translation Systems for WMT 2011'
p1398
sg6
S'2011'
p1399
sg8
g1396
sg9
S'lium 8217 s smt machin translat system wmt 2011'
p1400
ssS'W11-2159'
p1401
(dp1402
g4
S'Spell Checking Techniques for Replacement of Unknown Words and Data Cleaning for Haitian Creole SMS Translation'
p1403
sg6
S'2011'
p1404
sg8
g1401
sg9
S'spell check techniqu replac unknown word data clean haitian creol sm translat'
p1405
ssS'C10-2007'
p1406
(dp1407
g4
S'Query Expansion based on Pseudo Relevance Feedback from Definition Clusters'
p1408
sg6
S'2010'
p1409
sg8
g1406
sg9
S'queri expans base pseudo relev feedback definit cluster'
p1410
ssS'C10-2006'
p1411
(dp1412
g4
S'Benchmarking for syntax-based sentential inference'
p1413
sg6
S'2010'
p1414
sg8
g1411
sg9
S'benchmark syntax base sententi infer'
p1415
ssS'C10-2005'
p1416
(dp1417
g4
S'Robust Sentiment Detection on Twitter from Biased and Noisy Data'
p1418
sg6
S'2010'
p1419
sg8
g1416
sg9
S'robust sentiment detect twitter bias noisi data'
p1420
ssS'C10-2004'
p1421
(dp1422
g4
S'Going Beyond Traditional QA Systems: Challenges and Keys in Opinion Question Answering'
p1423
sg6
S'2010'
p1424
sg8
g1421
sg9
S'go beyond tradit qa system challeng kei opinion question answer'
p1425
ssS'C10-2003'
p1426
(dp1427
g4
S'Cross-Market Model Adaptation with Pairwise Preference Data for Web Search Ranking'
p1428
sg6
S'2010'
p1429
sg8
g1426
sg9
S'cross market model adapt pairwis prefer data web search rank'
p1430
ssS'C10-2002'
p1431
(dp1432
g4
S'Document Expansion Based on WordNet for Robust IR'
p1433
sg6
S'2010'
p1434
sg8
g1431
sg9
S'document expans base wordnet robust ir'
p1435
ssS'C10-2001'
p1436
(dp1437
g4
S'Towards the Adequate Evaluation of Morphosyntactic Taggers'
p1438
sg6
S'2010'
p1439
sg8
g1436
sg9
S'toward adequ evalu morphosyntact tagger'
p1440
ssS'C10-2104'
p1441
(dp1442
g4
S'Kernel-based Reranking for Named-Entity Extraction'
p1443
sg6
S'2010'
p1444
sg8
g1441
sg9
S'kernel base rerank name entiti extract'
p1445
ssS'C10-1003'
p1446
(dp1447
g4
S'Robust Measurement and Comparison of Context Similarity for Finding Translation Pairs'
p1448
sg6
S'2010'
p1449
sg8
g1446
sg9
S'robust measur comparison context similar find translat pair'
p1450
ssS'C10-1148'
p1451
(dp1452
g4
S'Paraphrasing with Search Engine Query Logs'
p1453
sg6
S'2010'
p1454
sg8
g1451
sg9
S'paraphras search engin queri log'
p1455
ssS'C10-2009'
p1456
(dp1457
g4
S'Composition of Semantic Relations: Model and Applications'
p1458
sg6
S'2010'
p1459
sg8
g1456
sg9
S'composit semant relat model applic'
p1460
ssS'C10-2008'
p1461
(dp1462
g4
S'A Formal Scheme for Multimodal Grammars'
p1463
sg6
S'2010'
p1464
sg8
g1461
sg9
S'formal scheme multimod grammar'
p1465
ssS'W10-0729'
p1466
(dp1467
g4
S'Tools for Collecting Speech Corpora via Mechanical-Turk'
p1468
sg6
S'2010'
p1469
sg8
g1466
sg9
S'tool collect speech corpora via mechan turk'
p1470
ssS'D11-1008'
p1471
(dp1472
g4
S'Accurate Parsing with Compact Tree-Substitution Grammars: Double-DOP'
p1473
sg6
S'2011'
p1474
sg8
g1471
sg9
S'accur pars compact tree substitut grammar doubl dop'
p1475
ssS'D11-1009'
p1476
(dp1477
g4
S'A Generate and Rank Approach to Sentence Paraphrasing'
p1478
sg6
S'2011'
p1479
sg8
g1476
sg9
S'gener rank approach sentenc paraphras'
p1480
ssS'D11-1004'
p1481
(dp1482
g4
S'Optimal Search for Minimum Error Rate Training'
p1483
sg6
S'2011'
p1484
sg8
g1481
sg9
S'optim search minimum error rate train'
p1485
ssS'D11-1005'
p1486
(dp1487
g4
S'Unsupervised Structure Prediction with Non-Parallel Multilingual Guidance'
p1488
sg6
S'2011'
p1489
sg8
g1486
sg9
S'unsupervis structur predict non parallel multilingu guidanc'
p1490
ssS'D11-1006'
p1491
(dp1492
g4
S'Multi-Source Transfer of Delexicalized Dependency Parsers'
p1493
sg6
S'2011'
p1494
sg8
g1491
sg9
S'multi sourc transfer delexic depend parser'
p1495
ssS'D11-1007'
p1496
(dp1497
g4
S'SMT Helps Bitext Dependency Parsing'
p1498
sg6
S'2011'
p1499
sg8
g1496
sg9
S'smt help bitext depend pars'
p1500
ssS'C10-1020'
p1501
(dp1502
g4
S'Bipolar Person Name Identification of Topic Documents Using Principal Component Analysis'
p1503
sg6
S'2010'
p1504
sg8
g1501
sg9
S'bipolar person name identif topic document us princip compon analysi'
p1505
ssS'D11-1001'
p1506
(dp1507
g4
S'Fast and Robust Joint Models for Biomedical Event Extraction'
p1508
sg6
S'2011'
p1509
sg8
g1506
sg9
S'fast robust joint model biomed event extract'
p1510
ssS'D11-1002'
p1511
(dp1512
g4
S'Predicting Thread Discourse Structure over Technical Web Forums'
p1513
sg6
S'2011'
p1514
sg8
g1511
sg9
S'predict thread discours structur technic web forum'
p1515
ssS'D11-1003'
p1516
(dp1517
g4
S'Exact Decoding of Phrase-Based Translation Models through Lagrangian Relaxation'
p1518
sg6
S'2011'
p1519
sg8
g1516
sg9
S'exact decod phrase base translat model lagrangian relax'
p1520
ssS'W11-2703'
p1521
(dp1522
g4
S'A Corpus of Human-written Summaries of Line Graphs'
p1523
sg6
S'2011'
p1524
sg8
g1521
sg9
S'corpu human written summari line graph'
p1525
ssS'W11-2702'
p1526
(dp1527
g4
S'GRE3D7: A Corpus of Distinguishing Descriptions for Objects in Visual Scenes'
p1528
sg6
S'2011'
p1529
sg8
g1526
sg9
S'gre3d7 corpu distinguish descript object visual scene'
p1530
ssS'W11-2701'
p1531
(dp1532
g4
S'A New Sentence Compression Dataset and Its Use in an Abstractive Generate-and-Rank Sentence Compressor'
p1533
sg6
S'2011'
p1534
sg8
g1531
sg9
S'new sentenc compress dataset us abstract gener rank sentenc compressor'
p1535
ssS'W10-0604'
p1536
(dp1537
g4
S'Network Analysis of Korean Word Associations'
p1538
sg6
S'2010'
p1539
sg8
g1536
sg9
S'network analysi korean word associ'
p1540
ssS'W11-2707'
p1541
(dp1542
g4
S'Exciting and interesting: issues in the generation of binomials'
p1543
sg6
S'2011'
p1544
sg8
g1541
sg9
S'excit interest issu gener binomi'
p1545
ssS'W11-2706'
p1546
(dp1547
g4
S'Linguistically Motivated Complementizer Choice in Surface Realization'
p1548
sg6
S'2011'
p1549
sg8
g1546
sg9
S'linguist motiv complement choic surfac realiz'
p1550
ssS'W11-2705'
p1551
(dp1552
g4
S'Exploring linguistically-rich patterns for question generation'
p1553
sg6
S'2011'
p1554
sg8
g1551
sg9
S'explor linguist rich pattern question gener'
p1555
ssS'W11-2704'
p1556
(dp1557
g4
S'Task-Based Evaluation of NLG Systems: Control vs Real-World Context'
p1558
sg6
S'2011'
p1559
sg8
g1556
sg9
S'task base evalu nlg system control vs real world context'
p1560
ssS'W11-2708'
p1561
(dp1562
g4
S'Discriminative features in reversible stochastic attribute-value grammars'
p1563
sg6
S'2011'
p1564
sg8
g1561
sg9
S'discrimin featur revers stochast attribut valu grammar'
p1565
ssS'W10-0609'
p1566
(dp1567
g4
S'Using fMRI activation to conceptual stimuli to evaluate methods for extracting conceptual representations from corpora'
p1568
sg6
S'2010'
p1569
sg8
g1566
sg9
S'us fmri activ conceptu stimuli evalu method extract conceptu represent corpora'
p1570
ssS'W10-0304'
p1571
(dp1572
g4
S'Engineering Linguistic Creativity: Bird Flight and Jet Planes'
p1573
sg6
S'2010'
p1574
sg8
g1571
sg9
S'engin linguist creativ bird flight jet plane'
p1575
ssS'C10-2139'
p1576
(dp1577
g4
S'Word-based and Character-based Word Segmentation Models: Comparison and Combination'
p1578
sg6
S'2010'
p1579
sg8
g1576
sg9
S'word base charact base word segment model comparison combin'
p1580
ssS'C10-2102'
p1581
(dp1582
g4
S'A Learnable Constraint-based Grammar Formalism'
p1583
sg6
S'2010'
p1584
sg8
g1581
sg9
S'learnabl constraint base grammar formal'
p1585
ssS'S10-1078'
p1586
(dp1587
g4
S'KCDC: Word Sense Induction by Using Grammatical Dependencies and Sentence Phrase Structure'
p1588
sg6
S'2010'
p1589
sg8
g1586
sg9
S'kcdc word sens induct us grammat depend sentenc phrase structur'
p1590
ssS'C10-1001'
p1591
(dp1592
g4
S'Testing SDRT&rsquo;s Right Frontier'
p1593
sg6
S'2010'
p1594
sg8
g1591
sg9
S'test sdrt rsquo s right frontier'
p1595
ssS'W10-0721'
p1596
(dp1597
g4
S'Collecting Image Annotations Using Amazon&rsquo;s Mechanical Turk'
p1598
sg6
S'2010'
p1599
sg8
g1596
sg9
S'collect imag annot us amazon rsquo s mechan turk'
p1600
ssS'C10-2133'
p1601
(dp1602
g4
S'Shallow Information Extraction from Medical Forum Data'
p1603
sg6
S'2010'
p1604
sg8
g1601
sg9
S'shallow inform extract medic forum data'
p1605
ssS'C10-2132'
p1606
(dp1607
g4
S'Towards Automatic Building of Document Keywords'
p1608
sg6
S'2010'
p1609
sg8
g1606
sg9
S'toward automat build document keyword'
p1610
ssS'C10-2131'
p1611
(dp1612
g4
S'A Method for Automatically Generating a Mediatory Summary to Verify Credibility of Information on the Web'
p1613
sg6
S'2010'
p1614
sg8
g1611
sg9
S'method automat gener mediatori summari verifi credibl inform web'
p1615
ssS'C10-2130'
p1616
(dp1617
g4
S'Using Clustering to Improve Retrieval Evaluation without Relevance Judgments'
p1618
sg6
S'2010'
p1619
sg8
g1616
sg9
S'us cluster improv retriev evalu without relev judgment'
p1620
ssS'C10-2137'
p1621
(dp1622
g4
S'Semi-supervised Semantic Pattern Discovery with Guidance from Unsupervised Pattern Clusters'
p1623
sg6
S'2010'
p1624
sg8
g1621
sg9
S'semi supervis semant pattern discoveri guidanc unsupervis pattern cluster'
p1625
ssS'C10-2136'
p1626
(dp1627
g4
S'Dependency-Based Bracketing Transduction Grammar for Statistical Machine Translation'
p1628
sg6
S'2010'
p1629
sg8
g1626
sg9
S'depend base bracket transduct grammar statist machin translat'
p1630
ssS'C10-2135'
p1631
(dp1632
g4
S'Notes on the Evaluation of Dependency Parsers Obtained Through Cross-Lingual Projection'
p1633
sg6
S'2010'
p1634
sg8
g1631
sg9
S'note evalu depend parser obtain cross lingual project'
p1635
ssS'C10-2134'
p1636
(dp1637
g4
S'Bridging Topic Modeling and Personalized Search'
p1638
sg6
S'2010'
p1639
sg8
g1636
sg9
S'bridg topic model person search'
p1640
ssS'W10-0723'
p1641
(dp1642
g4
S'Shedding (a Thousand Points of) Light on Biased Language'
p1643
sg6
S'2010'
p1644
sg8
g1641
sg9
S'shed thousand point light bias languag'
p1645
ssS'C10-2103'
p1646
(dp1647
g4
S'Evaluating performance of grammatical error detection to maximize learning effect'
p1648
sg6
S'2010'
p1649
sg8
g1646
sg9
S'evalu perform grammat error detect maxim learn effect'
p1650
ssS'C10-1006'
p1651
(dp1652
g4
S'Automatic Detection of Non-deverbal Event Nouns for Quick Lexicon Production'
p1653
sg6
S'2010'
p1654
sg8
g1651
sg9
S'automat detect non deverb event noun quick lexicon product'
p1655
ssS'W10-0906'
p1656
(dp1657
g4
S'Open-domain Commonsense Reasoning Using Discourse Relations from a Corpus of Weblog Stories'
p1658
sg6
S'2010'
p1659
sg8
g1656
sg9
S'open domain commonsens reason us discours relat corpu weblog stori'
p1660
ssS'S10-1056'
p1661
(dp1662
g4
S'UTDMet: Combining WordNet and Corpus Data for Argument Coercion Detection'
p1663
sg6
S'2010'
p1664
sg8
g1661
sg9
S'utdmet combin wordnet corpu data argument coercion detect'
p1665
ssS'W10-0733'
p1666
(dp1667
g4
S'Using Mechanical Turk to Build Machine Translation Evaluation Sets'
p1668
sg6
S'2010'
p1669
sg8
g1666
sg9
S'us mechan turk build machin translat evalu set'
p1670
ssS'W10-0732'
p1671
(dp1672
g4
S'Non-Expert Correction of Automatically Generated Relation Annotations'
p1673
sg6
S'2010'
p1674
sg8
g1671
sg9
S'non expert correct automat gener relat annot'
p1675
ssS'W10-0731'
p1676
(dp1677
g4
S'Amazon Mechanical Turk for Subjectivity Word Sense Disambiguation'
p1678
sg6
S'2010'
p1679
sg8
g1676
sg9
S'amazon mechan turk subject word sens disambigu'
p1680
ssS'W10-0730'
p1681
(dp1682
g4
S'Measuring Transitivity Using Untrained Annotators'
p1683
sg6
S'2010'
p1684
sg8
g1681
sg9
S'measur transit us untrain annot'
p1685
ssS'W10-0735'
p1686
(dp1687
g4
S'Error Driven Paraphrase Annotation using Mechanical Turk'
p1688
sg6
S'2010'
p1689
sg8
g1686
sg9
S'error driven paraphras annot us mechan turk'
p1690
ssS'W10-0719'
p1691
(dp1692
g4
S'Crowdsourcing and language studies: the new generation of linguistic data'
p1693
sg6
S'2010'
p1694
sg8
g1691
sg9
S'crowdsourc languag studi new gener linguist data'
p1695
ssS'D11-1097'
p1696
(dp1697
g4
S'Probabilistic models of similarity in syntactic context'
p1698
sg6
S'2011'
p1699
sg8
g1696
sg9
S'probabilist model similar syntact context'
p1700
ssS'D11-1096'
p1701
(dp1702
g4
S'Structured Lexical Similarity via Convolution Kernels on Dependency Trees'
p1703
sg6
S'2011'
p1704
sg8
g1701
sg9
S'structur lexic similar via convolut kernel depend tree'
p1705
ssS'D11-1095'
p1706
(dp1707
g4
S'Hierarchical Verb Clustering Using Graph Factorization'
p1708
sg6
S'2011'
p1709
sg8
g1706
sg9
S'hierarch verb cluster us graph factor'
p1710
ssS'D11-1094'
p1711
(dp1712
g4
S'Latent Vector Weighting for Word Meaning in Context'
p1713
sg6
S'2011'
p1714
sg8
g1711
sg9
S'latent vector weight word mean context'
p1715
ssS'D11-1093'
p1716
(dp1717
g4
S'Refining the Notions of Depth and Density in WordNet-based Semantic Similarity Measures'
p1718
sg6
S'2011'
p1719
sg8
g1716
sg9
S'refin notion depth densiti wordnet base semant similar measur'
p1720
ssS'D11-1092'
p1721
(dp1722
g4
S'Harnessing different knowledge sources to measure semantic relatedness under a uniform model'
p1723
sg6
S'2011'
p1724
sg8
g1721
sg9
S'har differ knowledg sourc measur semant related uniform model'
p1725
ssS'D11-1091'
p1726
(dp1727
g4
S'Unsupervised Learning of Selectional Restrictions and Detection of Argument Coercions'
p1728
sg6
S'2011'
p1729
sg8
g1726
sg9
S'unsupervis learn select restrict detect argument coercion'
p1730
ssS'D11-1090'
p1731
(dp1732
g4
S'Enhancing Chinese Word Segmentation Using Unlabeled Data'
p1733
sg6
S'2011'
p1734
sg8
g1731
sg9
S'enhanc chines word segment us unlabel data'
p1735
ssS'C10-1040'
p1736
(dp1737
g4
S'EMDC: A Semi-supervised Approach for Word Alignment'
p1738
sg6
S'2010'
p1739
sg8
g1736
sg9
S'emdc semi supervis approach word align'
p1740
ssS'W10-0102'
p1741
(dp1742
g4
S'Active Semi-Supervised Learning for Improving Word Alignment'
p1743
sg6
S'2010'
p1744
sg8
g1741
sg9
S'activ semi supervis learn improv word align'
p1745
ssS'W10-0103'
p1746
(dp1747
g4
S'D-Confidence: An Active Learning Strategy which Efficiently Identifies Small Classes'
p1748
sg6
S'2010'
p1749
sg8
g1746
sg9
S'd confid activ learn strategi effici identifi small class'
p1750
ssS'W10-0104'
p1751
(dp1752
g4
S'Domain Adaptation meets Active Learning'
p1753
sg6
S'2010'
p1754
sg8
g1751
sg9
S'domain adapt meet activ learn'
p1755
ssS'W10-0105'
p1756
(dp1757
g4
S'Parallel Active Learning: Eliminating Wait Time with Minimal Staleness'
p1758
sg6
S'2010'
p1759
sg8
g1756
sg9
S'parallel activ learn elimin wait time minim stale'
p1760
ssS'D11-1099'
p1761
(dp1762
g4
S'Learning the Information Status of Noun Phrases in Spoken Dialogues'
p1763
sg6
S'2011'
p1764
sg8
g1761
sg9
S'learn inform statu noun phrase spoken dialogu'
p1765
ssS'D11-1098'
p1766
(dp1767
g4
S'Lexical Co-occurrence, Statistical Significance, and Word Association'
p1768
sg6
S'2011'
p1769
sg8
g1766
sg9
S'lexic co occurr statist signific word associ'
p1770
ssS'W10-0718'
p1771
(dp1772
g4
S'Opinion Mining of Spanish Customer Comments with Non-Expert Annotations on Mechanical Turk'
p1773
sg6
S'2010'
p1774
sg8
g1771
sg9
S'opinion mine spanish custom comment non expert annot mechan turk'
p1775
ssS'C10-1055'
p1776
(dp1777
g4
S'Enhancing Cross Document Coreference of Web Documents with Context Similarity and Very Large Scale Text Categorization'
p1778
sg6
S'2010'
p1779
sg8
g1776
sg9
S'enhanc cross document corefer web document context similar larg scale text categor'
p1780
ssS'W10-0507'
p1781
(dp1782
g4
S'Towards Modeling Social and Content Dynamics in Discussion Forums'
p1783
sg6
S'2010'
p1784
sg8
g1781
sg9
S'toward model social content dynam discuss forum'
p1785
ssS'C10-3006'
p1786
(dp1787
g4
S'COMUNICA - A Question Answering System for Brazilian Portuguese'
p1788
sg6
S'2010'
p1789
sg8
g1786
sg9
S'comunica question answer system brazilian portugues'
p1790
ssS'C10-2142'
p1791
(dp1792
g4
S'Semi-Supervised WSD in Selectional Preferences with Semantic Redundancy'
p1793
sg6
S'2010'
p1794
sg8
g1791
sg9
S'semi supervis wsd select prefer semant redund'
p1795
ssS'W10-0516'
p1796
(dp1797
g4
S'Detecting controversies in Twitter: a first study'
p1798
sg6
S'2010'
p1799
sg8
g1796
sg9
S'detect controversi twitter first studi'
p1800
ssS'W10-0515'
p1801
(dp1802
g4
S'Tracking Information Flow between Primary and Secondary News Sources'
p1803
sg6
S'2010'
p1804
sg8
g1801
sg9
S'track inform flow primari secondari new sourc'
p1805
ssS'W10-0514'
p1806
(dp1807
g4
S'Labelling and Spatio-Temporal Grounding of News Events'
p1808
sg6
S'2010'
p1809
sg8
g1806
sg9
S'label spatio tempor ground new event'
p1810
ssS'W10-0513'
p1811
(dp1812
g4
S'The Edinburgh Twitter Corpus'
p1813
sg6
S'2010'
p1814
sg8
g1811
sg9
S'edinburgh twitter corpu'
p1815
ssS'W10-0512'
p1816
(dp1817
g4
S'Twitter in Mass Emergency: What NLP Can Contribute'
p1818
sg6
S'2010'
p1819
sg8
g1816
sg9
S'twitter mass emerg nlp can contribut'
p1820
ssS'W10-0511'
p1821
(dp1822
g4
S'Automatic Detection of Tags for Political Blogs'
p1823
sg6
S'2010'
p1824
sg8
g1821
sg9
S'automat detect tag polit blog'
p1825
ssS'W10-0510'
p1826
(dp1827
g4
S'Social Links from Latent Topics in Microblogs'
p1828
sg6
S'2010'
p1829
sg8
g1826
sg9
S'social link latent topic microblog'
p1830
ssS'D10-1083'
p1831
(dp1832
g4
S'Simple Type-Level Unsupervised POS Tagging'
p1833
sg6
S'2010'
p1834
sg8
g1831
sg9
S'simpl type level unsupervis po tag'
p1835
ssS'D10-1082'
p1836
(dp1837
g4
S'A Fast Decoder for Joint Word Segmentation and POS-Tagging Using a Single Discriminative Model'
p1838
sg6
S'2010'
p1839
sg8
g1836
sg9
S'fast decod joint word segment po tag us singl discrimin model'
p1840
ssS'D10-1081'
p1841
(dp1842
g4
S'An Efficient Algorithm for Unsupervised Word Segmentation with Branching Entropy and MDL'
p1843
sg6
S'2010'
p1844
sg8
g1841
sg9
S'effici algorithm unsupervis word segment branch entropi mdl'
p1845
ssS'D10-1080'
p1846
(dp1847
g4
S'Lessons Learned in Part-of-Speech Tagging of Conversational Speech'
p1848
sg6
S'2010'
p1849
sg8
g1846
sg9
S'lesson learn part speech tag convers speech'
p1850
ssS'D10-1087'
p1851
(dp1852
g4
S'Automatic Comma Insertion for Japanese Text Generation'
p1853
sg6
S'2010'
p1854
sg8
g1851
sg9
S'automat comma insert japanes text gener'
p1855
ssS'D10-1086'
p1856
(dp1857
g4
S'A Tree Kernel-Based Unified Framework for Chinese Zero Anaphora Resolution'
p1858
sg6
S'2010'
p1859
sg8
g1856
sg9
S'tree kernel base unifi framework chines zero anaphora resolut'
p1860
ssS'D10-1085'
p1861
(dp1862
g4
S'Resolving Event Noun Phrases to Their Verbal Mentions'
p1863
sg6
S'2010'
p1864
sg8
g1861
sg9
S'resolv event noun phrase verbal mention'
p1865
ssS'D10-1084'
p1866
(dp1867
g4
S'Classifying Dialogue Acts in One-on-One Live Chats'
p1868
sg6
S'2010'
p1869
sg8
g1866
sg9
S'classifi dialogu act on on live chat'
p1870
ssS'D10-1089'
p1871
(dp1872
g4
S'WikiWars: A New Corpus for Research on Temporal Expressions'
p1873
sg6
S'2010'
p1874
sg8
g1871
sg9
S'wikiwar new corpu research tempor express'
p1875
ssS'D10-1088'
p1876
(dp1877
g4
S'Using Unknown Word Techniques to Learn Known Words'
p1878
sg6
S'2010'
p1879
sg8
g1876
sg9
S'us unknown word techniqu learn known word'
p1880
ssS'W10-0602'
p1881
(dp1882
g4
S'Concept Classification with Bayesian Multi-task Learning'
p1883
sg6
S'2010'
p1884
sg8
g1881
sg9
S'concept classif bayesian multi task learn'
p1885
ssS'D10-1111'
p1886
(dp1887
g4
S'Staying Informed: Supervised and Semi-Supervised Multi-View Topical Analysis of Ideological Perspective'
p1888
sg6
S'2010'
p1889
sg8
g1886
sg9
S'stai inform supervis semi supervis multi view topic analysi ideolog perspect'
p1890
ssS'C10-1095'
p1891
(dp1892
g4
S'Co-STAR: A Co-training Style Algorithm for Hyponymy Relation Acquisition from Structured and Unstructured Text'
p1893
sg6
S'2010'
p1894
sg8
g1891
sg9
S'co star co train style algorithm hyponymi relat acquisit structur unstructur text'
p1895
ssS'S10-1083'
p1896
(dp1897
g4
S'PengYuan@PKU: Extracting Infrequent Sense Instance with the Same N-Gram Pattern for the SemEval-2010 Task 15'
p1898
sg6
S'2010'
p1899
sg8
g1896
sg9
S'pengyuan pku extract infrequ sens instanc n gram pattern semev 2010 task 15'
p1900
ssS'C10-1094'
p1901
(dp1902
g4
S'Evaluation of Dependency Parsers on Unbounded Dependencies'
p1903
sg6
S'2010'
p1904
sg8
g1901
sg9
S'evalu depend parser unbound depend'
p1905
ssS'S10-1015'
p1906
(dp1907
g4
S'SemEval-2010 Task 11: Event Detection in Chinese News Sentences'
p1908
sg6
S'2010'
p1909
sg8
g1906
sg9
S'semev 2010 task 11 event detect chines new sentenc'
p1910
ssS'S10-1014'
p1911
(dp1912
g4
S'SemEval-2010 Task 18: Disambiguating Sentiment Ambiguous Adjectives'
p1913
sg6
S'2010'
p1914
sg8
g1911
sg9
S'semev 2010 task 18 disambigu sentiment ambigu adject'
p1915
ssS'S10-1017'
p1916
(dp1917
g4
S'RelaxCor: A Global Relaxation Labeling Approach to Coreference Resolution'
p1918
sg6
S'2010'
p1919
sg8
g1916
sg9
S'relaxcor global relax label approach corefer resolut'
p1920
ssS'S10-1016'
p1921
(dp1922
g4
S'SemEval-2 Task 15: Infrequent Sense Identification for Mandarin Text to Speech Systems'
p1923
sg6
S'2010'
p1924
sg8
g1921
sg9
S'semev 2 task 15 infrequ sens identif mandarin text speech system'
p1925
ssS'S10-1011'
p1926
(dp1927
g4
S'SemEval-2010 Task 14: Word Sense Induction &#x26;Disambiguation'
p1928
sg6
S'2010'
p1929
sg8
g1926
sg9
S'semev 2010 task 14 word sens induct x26 disambigu'
p1930
ssS'S10-1010'
p1931
(dp1932
g4
S'SemEval-2010 Task 13: TempEval-2'
p1933
sg6
S'2010'
p1934
sg8
g1931
sg9
S'semev 2010 task 13 tempev 2'
p1935
ssS'S10-1013'
p1936
(dp1937
g4
S'SemEval-2010 Task 17: All-Words Word Sense Disambiguation on a Specific Domain'
p1938
sg6
S'2010'
p1939
sg8
g1936
sg9
S'semev 2010 task 17 word word sens disambigu specif domain'
p1940
ssS'S10-1012'
p1941
(dp1942
g4
S'SemEval-2010 Task: Japanese WSD'
p1943
sg6
S'2010'
p1944
sg8
g1941
sg9
S'semev 2010 task japanes wsd'
p1945
ssS'C10-1091'
p1946
(dp1947
g4
S'Recognition of Affect, Judgment, and Appreciation in Text'
p1948
sg6
S'2010'
p1949
sg8
g1946
sg9
S'recognit affect judgment appreci text'
p1950
ssS'D10-1110'
p1951
(dp1952
g4
S'Learning Recurrent Event Queries for Web Search'
p1953
sg6
S'2010'
p1954
sg8
g1951
sg9
S'learn recurr event queri web search'
p1955
ssS'S10-1019'
p1956
(dp1957
g4
S'UBIU: A Language-Independent System for Coreference Resolution'
p1958
sg6
S'2010'
p1959
sg8
g1956
sg9
S'ubiu languag independ system corefer resolut'
p1960
ssS'S10-1018'
p1961
(dp1962
g4
S'SUCRE: A Modular System for Coreference Resolution'
p1963
sg6
S'2010'
p1964
sg8
g1961
sg9
S'sucr modular system corefer resolut'
p1965
ssS'C10-1075'
p1966
(dp1967
g4
S'Adaptive Development Data Selection for Log-linear Model in Statistical Machine Translation'
p1968
sg6
S'2010'
p1969
sg8
g1966
sg9
S'adapt develop data select log linear model statist machin translat'
p1970
ssS'C10-1090'
p1971
(dp1972
g4
S'Using Cross-Lingual Projections to Generate Semantic Role Labeled Annotated Corpus for Urdu - A Resource Poor Language'
p1973
sg6
S'2010'
p1974
sg8
g1971
sg9
S'us cross lingual project gener semant role label annot corpu urdu resourc poor languag'
p1975
ssS'W11-2112'
p1976
(dp1977
g4
S'TINE: A Metric to Assess MT Adequacy'
p1978
sg6
S'2011'
p1979
sg8
g1976
sg9
S'tine metric assess mt adequaci'
p1980
ssS'W11-2113'
p1981
(dp1982
g4
S'Regression and Ranking based Optimisation for Sentence Level MT Evaluation'
p1983
sg6
S'2011'
p1984
sg8
g1981
sg9
S'regress rank base optimis sentenc level mt evalu'
p1985
ssS'W11-2110'
p1986
(dp1987
g4
S'Morphemes and POS tags for n-gram based evaluation metrics'
p1988
sg6
S'2011'
p1989
sg8
g1986
sg9
S'morphem po tag n gram base evalu metric'
p1990
ssS'W11-2111'
p1991
(dp1992
g4
S'E-rating Machine Translation'
p1993
sg6
S'2011'
p1994
sg8
g1991
sg9
S'e rate machin translat'
p1995
ssS'W11-2116'
p1996
(dp1997
g4
S'The UPV-PRHLT combination system for WMT 2011'
p1998
sg6
S'2011'
p1999
sg8
g1996
sg9
S'upv prhlt combin system wmt 2011'
p2000
ssS'W11-2117'
p2001
(dp2002
g4
S'CMU System Combination in WMT 2011'
p2003
sg6
S'2011'
p2004
sg8
g2001
sg9
S'cmu system combin wmt 2011'
p2005
ssS'W11-2114'
p2006
(dp2007
g4
S'MAISE: A Flexible, Configurable, Extensible Open Source Package for Mass AI System Evaluation'
p2008
sg6
S'2011'
p2009
sg8
g2006
sg9
S'mais flexibl configur extens open sourc packag mass ai system evalu'
p2010
ssS'W11-2115'
p2011
(dp2012
g4
S"MANY improvements for WMT'11"
p2013
sg6
S'2011'
p2014
sg8
g2011
sg9
S'mani improv wmt 11'
p2015
ssS'W11-2118'
p2016
(dp2017
g4
S'The RWTH System Combination System for WMT 2011'
p2018
sg6
S'2011'
p2019
sg8
g2016
sg9
S'rwth system combin system wmt 2011'
p2020
ssS'W11-2119'
p2021
(dp2022
g4
S'Expected BLEU Training for Graphs: BBN System Description for WMT11 System Combination Task'
p2023
sg6
S'2011'
p2024
sg8
g2021
sg9
S'expect bleu train graph bbn system descript wmt11 system combin task'
p2025
ssS'W10-0203'
p2026
(dp2027
g4
S'Toward Plot Units: Automatic Affect State Analysis'
p2028
sg6
S'2010'
p2029
sg8
g2026
sg9
S'toward plot unit automat affect state analysi'
p2030
ssS'W10-0202'
p2031
(dp2032
g4
S'Emotion Detection in Email Customer Care'
p2033
sg6
S'2010'
p2034
sg8
g2031
sg9
S'emot detect email custom care'
p2035
ssS'W10-0201'
p2036
(dp2037
g4
S'Emotion Analysis Using Latent Affective Folding and Embedding'
p2038
sg6
S'2010'
p2039
sg8
g2036
sg9
S'emot analysi us latent affect fold embed'
p2040
ssS'W10-0207'
p2041
(dp2042
g4
S'Wishful Thinking - Finding suggestions and &rsquo;buy&rsquo; wishes from product reviews'
p2043
sg6
S'2010'
p2044
sg8
g2041
sg9
S'wish think find suggest rsquo bui rsquo wish product review'
p2045
ssS'W10-0206'
p2046
(dp2047
g4
S'A Text-driven Rule-based System for Emotion Cause Detection'
p2048
sg6
S'2010'
p2049
sg8
g2046
sg9
S'text driven rule base system emot caus detect'
p2050
ssS'W10-0205'
p2051
(dp2052
g4
S'A Corpus-based Method for Extracting Paraphrases of Emotion Terms'
p2053
sg6
S'2010'
p2054
sg8
g2051
sg9
S'corpu base method extract paraphras emot term'
p2055
ssS'W10-0204'
p2056
(dp2057
g4
S'Emotions Evoked by Common Words and Phrases: Using Mechanical Turk to Create an Emotion Lexicon'
p2058
sg6
S'2010'
p2059
sg8
g2056
sg9
S'emot evok common word phrase us mechan turk creat emot lexicon'
p2060
ssS'W10-0209'
p2061
(dp2062
g4
S'Identifying Emotions, Intentions, and Attitudes in Text Using a Game with a Purpose'
p2063
sg6
S'2010'
p2064
sg8
g2061
sg9
S'identifi emot intent attitud text us game purpos'
p2065
ssS'W10-0208'
p2066
(dp2067
g4
S'Evaluation of Unsupervised Emotion Models to Textual Affect Recognition'
p2068
sg6
S'2010'
p2069
sg8
g2066
sg9
S'evalu unsupervis emot model textual affect recognit'
p2070
ssS'W10-0907'
p2071
(dp2072
g4
S'Semantic Role Labeling for Open Information Extraction'
p2073
sg6
S'2010'
p2074
sg8
g2071
sg9
S'semant role label open inform extract'
p2075
ssS'C10-1019'
p2076
(dp2077
g4
S'Jointly Modeling WSD and SRL with Markov Logic'
p2078
sg6
S'2010'
p2079
sg8
g2076
sg9
S'jointli model wsd srl markov logic'
p2080
ssS'D10-1038'
p2081
(dp2082
g4
S'Exploiting Conversation Structure in Unsupervised Topic Segmentation for Emails'
p2083
sg6
S'2010'
p2084
sg8
g2081
sg9
S'exploit convers structur unsupervis topic segment email'
p2085
ssS'D10-1039'
p2086
(dp2087
g4
S'A Semi-Supervised Approach to Improve Classification of Infrequent Discourse Relations Using Feature Vector Extension'
p2088
sg6
S'2010'
p2089
sg8
g2086
sg9
S'semi supervis approach improv classif infrequ discours relat us featur vector extens'
p2090
ssS'D10-1036'
p2091
(dp2092
g4
S'Automatic Keyphrase Extraction via Topic Decomposition'
p2093
sg6
S'2010'
p2094
sg8
g2091
sg9
S'automat keyphras extract via topic decomposit'
p2095
ssS'D10-1037'
p2096
(dp2097
g4
S'Incorporating Content Structure into Text Analysis Applications'
p2098
sg6
S'2010'
p2099
sg8
g2096
sg9
S'incorpor content structur text analysi applic'
p2100
ssS'D10-1034'
p2101
(dp2102
g4
S'Clustering-Based Stratified Seed Sampling for Semi-Supervised Relation Classification'
p2103
sg6
S'2010'
p2104
sg8
g2101
sg9
S'cluster base stratifi seed sampl semi supervis relat classif'
p2105
ssS'D10-1035'
p2106
(dp2107
g4
S'Unsupervised Discovery of Negative Categories in Lexicon Bootstrapping'
p2108
sg6
S'2010'
p2109
sg8
g2106
sg9
S'unsupervis discoveri neg categori lexicon bootstrap'
p2110
ssS'D10-1032'
p2111
(dp2112
g4
S'Tense Sense Disambiguation: A New Syntactic Polysemy Task'
p2113
sg6
S'2010'
p2114
sg8
g2111
sg9
S'tens sens disambigu new syntact polysemi task'
p2115
ssS'D10-1033'
p2116
(dp2117
g4
S'Improving Mention Detection Robustness to Noisy Input'
p2118
sg6
S'2010'
p2119
sg8
g2116
sg9
S'improv mention detect robust noisi input'
p2120
ssS'D10-1030'
p2121
(dp2122
g4
S'Joint Inference for Bilingual Semantic Role Labeling'
p2123
sg6
S'2010'
p2124
sg8
g2121
sg9
S'joint infer bilingu semant role label'
p2125
ssS'D10-1031'
p2126
(dp2127
g4
S'Automatic Discovery of Manner Relations and its Applications'
p2128
sg6
S'2010'
p2129
sg8
g2126
sg9
S'automat discoveri manner relat applic'
p2130
ssS'D10-1115'
p2131
(dp2132
g4
S'Nouns are Vectors, Adjectives are Matrices: Representing Adjective-Noun Constructions in Semantic Space'
p2133
sg6
S'2010'
p2134
sg8
g2131
sg9
S'noun vector adject matric repres adject noun construct semant space'
p2135
ssS'C10-3015'
p2136
(dp2137
g4
S'Multiword Expressions in the wild? The mwetoolkit comes in handy'
p2138
sg6
S'2010'
p2139
sg8
g2136
sg9
S'multiword express wild mwetoolkit come handi'
p2140
ssS'C10-2111'
p2141
(dp2142
g4
S'Incremental Chinese Lexicon Extraction with Minimal Resources on a Domain-Specific Corpus'
p2143
sg6
S'2010'
p2144
sg8
g2141
sg9
S'increment chines lexicon extract minim resourc domain specif corpu'
p2145
ssS'D10-1114'
p2146
(dp2147
g4
S'A Mixture Model with Sharing for Lexical Semantics'
p2148
sg6
S'2010'
p2149
sg8
g2146
sg9
S'mixtur model share lexic semant'
p2150
ssS'C10-1008'
p2151
(dp2152
g4
S'A Hierarchical Classifier Applied to Multi-way Sentiment Detection'
p2153
sg6
S'2010'
p2154
sg8
g2151
sg9
S'hierarch classifi appli multi wai sentiment detect'
p2155
ssS'D10-1117'
p2156
(dp2157
g4
S'Unsupervised Induction of Tree Substitution Grammars for Dependency Parsing'
p2158
sg6
S'2010'
p2159
sg8
g2156
sg9
S'unsupervis induct tree substitut grammar depend pars'
p2160
ssS'S10-1060'
p2161
(dp2162
g4
S'Cambridge: Parser Evaluation Using Textual Entailment by Grammatical Relation Comparison'
p2163
sg6
S'2010'
p2164
sg8
g2161
sg9
S'cambridg parser evalu us textual entail grammat relat comparison'
p2165
ssS'S10-1061'
p2166
(dp2167
g4
S'MARS: A Specialized RTE System for Parser Evaluation'
p2168
sg6
S'2010'
p2169
sg8
g2166
sg9
S'mar special rte system parser evalu'
p2170
ssS'S10-1062'
p2171
(dp2172
g4
S'TRIPS and TRIOS System for TempEval-2: Extracting Temporal Information from Text'
p2173
sg6
S'2010'
p2174
sg8
g2171
sg9
S'trip trio system tempev 2 extract tempor inform text'
p2175
ssS'D10-1116'
p2176
(dp2177
g4
S'Practical Linguistic Steganography Using Contextual Synonym Substitution and Vertex Colour Coding'
p2178
sg6
S'2010'
p2179
sg8
g2176
sg9
S'practic linguist steganographi us contextu synonym substitut vertex colour code'
p2180
ssS'S10-1064'
p2181
(dp2182
g4
S'CityU-DAC: Disambiguating Sentiment-Ambiguous Adjectives within Context'
p2183
sg6
S'2010'
p2184
sg8
g2181
sg9
S'cityu dac disambigu sentiment ambigu adject within context'
p2185
ssS'S10-1065'
p2186
(dp2187
g4
S'VENSES++: Adapting a deep semantic processing system to the identification of null instantiations'
p2188
sg6
S'2010'
p2189
sg8
g2186
sg9
S'vens adapt deep semant process system identif null instanti'
p2190
ssS'D11-1129'
p2191
(dp2192
g4
S'Experimental Support for a Categorical Compositional Distributional Model of Meaning'
p2193
sg6
S'2011'
p2194
sg8
g2191
sg9
S'experiment support categor composit distribut model mean'
p2195
ssS'D11-1128'
p2196
(dp2197
g4
S'Improved Transliteration Mining Using Graph Reinforcement'
p2198
sg6
S'2011'
p2199
sg8
g2196
sg9
S'improv transliter mine us graph reinforc'
p2200
ssS'D11-1127'
p2201
(dp2202
g4
S'Hierarchical Phrase-based Translation Representations'
p2203
sg6
S'2011'
p2204
sg8
g2201
sg9
S'hierarch phrase base translat represent'
p2205
ssS'D11-1126'
p2206
(dp2207
g4
S'Watermarking the Outputs of Structured Prediction with an application in Statistical Machine Translation.'
p2208
sg6
S'2011'
p2209
sg8
g2206
sg9
S'watermark output structur predict applic statist machin translat'
p2210
ssS'D11-1125'
p2211
(dp2212
g4
S'Tuning as Ranking'
p2213
sg6
S'2011'
p2214
sg8
g2211
sg9
S'tune rank'
p2215
ssS'D11-1124'
p2216
(dp2217
g4
S'Summarize What You Are Interested In: An Optimization Framework for Interactive Personalized Summarization'
p2218
sg6
S'2011'
p2219
sg8
g2216
sg9
S'summar interest optim framework interact person summar'
p2220
ssS'D11-1123'
p2221
(dp2222
g4
S'Structural Opinion Mining for Graph-based Sentiment Representation'
p2223
sg6
S'2011'
p2224
sg8
g2221
sg9
S'structur opinion mine graph base sentiment represent'
p2225
ssS'D11-1122'
p2226
(dp2227
g4
S'Unsupervised Semantic Role Induction with Graph Partitioning'
p2228
sg6
S'2011'
p2229
sg8
g2226
sg9
S'unsupervis semant role induct graph partit'
p2230
ssS'D11-1121'
p2231
(dp2232
g4
S'Identifying and Following Expert Investors in Stock Microblogs'
p2233
sg6
S'2011'
p2234
sg8
g2231
sg9
S'identifi follow expert investor stock microblog'
p2235
ssS'D11-1120'
p2236
(dp2237
g4
S'Discriminating Gender on Twitter'
p2238
sg6
S'2011'
p2239
sg8
g2236
sg9
S'discrimin gender twitter'
p2240
ssS'C10-1118'
p2241
(dp2242
g4
S'Discriminative Induction of Sub-Tree Alignment using Limited Labeled Data'
p2243
sg6
S'2010'
p2244
sg8
g2241
sg9
S'discrimin induct sub tree align us limit label data'
p2245
ssS'C10-1119'
p2246
(dp2247
g4
S'Investigating the cross-linguistic potential of VerbNet-style classification'
p2248
sg6
S'2010'
p2249
sg8
g2246
sg9
S'investig cross linguist potenti verbnet style classif'
p2250
ssS'W10-0705'
p2251
(dp2252
g4
S'Rating Computer-Generated Questions with Mechanical Turk'
p2253
sg6
S'2010'
p2254
sg8
g2251
sg9
S'rate comput gener question mechan turk'
p2255
ssS'D10-1113'
p2256
(dp2257
g4
S'Measuring Distributional Similarity in Context'
p2258
sg6
S'2010'
p2259
sg8
g2256
sg9
S'measur distribut similar context'
p2260
ssS'C10-1009'
p2261
(dp2262
g4
S'Fluency Constraints for Minimum Bayes-Risk Decoding of Statistical Machine Translation Lattices'
p2263
sg6
S'2010'
p2264
sg8
g2261
sg9
S'fluenci constraint minimum bay risk decod statist machin translat lattic'
p2265
ssS'C10-1110'
p2266
(dp2267
g4
S'Weakly Supervised Morphology Learning for Agglutinating Languages Using Small Training Sets.'
p2268
sg6
S'2010'
p2269
sg8
g2266
sg9
S'weakli supervis morpholog learn agglutin languag us small train set'
p2270
ssS'C10-1111'
p2271
(dp2272
g4
S'Multi-Document Summarization via the Minimum Dominating Set'
p2273
sg6
S'2010'
p2274
sg8
g2271
sg9
S'multi document summar via minimum domin set'
p2275
ssS'C10-1112'
p2276
(dp2277
g4
S'Corpus-based Semantic Class Mining: Distributional vs. Pattern-Based Approaches'
p2278
sg6
S'2010'
p2279
sg8
g2276
sg9
S'corpu base semant class mine distribut vs pattern base approach'
p2280
ssS'D10-1112'
p2281
(dp2282
g4
S'Word-Based Dialect Identification with Georeferenced Rules'
p2283
sg6
S'2010'
p2284
sg8
g2281
sg9
S'word base dialect identif georeferenc rule'
p2285
ssS'C10-1114'
p2286
(dp2287
g4
S'Explore the Structure of Social Tags by Subsumption Relations'
p2288
sg6
S'2010'
p2289
sg8
g2286
sg9
S'explor structur social tag subsumpt relat'
p2290
ssS'C10-1115'
p2291
(dp2292
g4
S'Ukwabelana - An open-source morphological Zulu corpus'
p2293
sg6
S'2010'
p2294
sg8
g2291
sg9
S'ukwabelana open sourc morpholog zulu corpu'
p2295
ssS'C10-1116'
p2296
(dp2297
g4
S'EMMA: A novel Evaluation Metric for Morphological Analysis'
p2298
sg6
S'2010'
p2299
sg8
g2296
sg9
S'emma novel evalu metric morpholog analysi'
p2300
ssS'C10-1117'
p2301
(dp2302
g4
S'Modeling Socio-Cultural Phenomena in Discourse'
p2303
sg6
S'2010'
p2304
sg8
g2301
sg9
S'model socio cultur phenomena discours'
p2305
ssS'C10-2177'
p2306
(dp2307
g4
S'Imposing Hierarchical Browsing Structures onto Spoken Documents'
p2308
sg6
S'2010'
p2309
sg8
g2306
sg9
S'impos hierarch brows structur onto spoken document'
p2310
ssS'C10-2176'
p2311
(dp2312
g4
S'Automatic Treebank Conversion via Informed Decoding'
p2313
sg6
S'2010'
p2314
sg8
g2311
sg9
S'automat treebank convers via inform decod'
p2315
ssS'C10-2175'
p2316
(dp2317
g4
S'All in Strings: a Powerful String-based Automatic MT Evaluation Metric with Multiple Granularities'
p2318
sg6
S'2010'
p2319
sg8
g2316
sg9
S'string power string base automat mt evalu metric multipl granular'
p2320
ssS'C10-2174'
p2321
(dp2322
g4
S'Dual-Space Re-ranking Model for Document Retrieval'
p2323
sg6
S'2010'
p2324
sg8
g2321
sg9
S'dual space re rank model document retriev'
p2325
ssS'C10-2173'
p2326
(dp2327
g4
S'Active Deep Networks for Semi-Supervised Sentiment Classification'
p2328
sg6
S'2010'
p2329
sg8
g2326
sg9
S'activ deep network semi supervis sentiment classif'
p2330
ssS'C10-2172'
p2331
(dp2332
g4
S'Predicting Discourse Connectives for Implicit Discourse Relation Recognition'
p2333
sg6
S'2010'
p2334
sg8
g2331
sg9
S'predict discours connect implicit discours relat recognit'
p2335
ssS'C10-2078'
p2336
(dp2337
g4
S'Linguistic Cues for Distinguishing Literal and Non-Literal Usages'
p2338
sg6
S'2010'
p2339
sg8
g2336
sg9
S'linguist cue distinguish liter non liter usag'
p2340
ssS'C10-2079'
p2341
(dp2342
g4
S'Contextual Recommendation based on Text Mining'
p2343
sg6
S'2010'
p2344
sg8
g2341
sg9
S'contextu recommend base text mine'
p2345
ssS'C10-2076'
p2346
(dp2347
g4
S'Combining Constituent and Dependency Syntactic Views for Chinese Semantic Role Labeling'
p2348
sg6
S'2010'
p2349
sg8
g2346
sg9
S'combin constitu depend syntact view chines semant role label'
p2350
ssS'C10-2077'
p2351
(dp2352
g4
S'Chinese Frame Identification using T-CRF Model'
p2353
sg6
S'2010'
p2354
sg8
g2351
sg9
S'chines frame identif us t crf model'
p2355
ssS'C10-2074'
p2356
(dp2357
g4
S'Text Mining for Automatic Image Tagging'
p2358
sg6
S'2010'
p2359
sg8
g2356
sg9
S'text mine automat imag tag'
p2360
ssS'C10-2075'
p2361
(dp2362
g4
S'Unsupervised Discriminative Language Model Training for Machine Translation using Simulated Confusion Sets'
p2363
sg6
S'2010'
p2364
sg8
g2361
sg9
S'unsupervis discrimin languag model train machin translat us simul confus set'
p2365
ssS'C10-2072'
p2366
(dp2367
g4
S'Enhancing Multi-lingual Information Extraction via Cross-Media Inference and Fusion'
p2368
sg6
S'2010'
p2369
sg8
g2366
sg9
S'enhanc multi lingual inform extract via cross media infer fusion'
p2370
ssS'C10-2073'
p2371
(dp2372
g4
S'EM-based Hybrid Model for Bilingual Terminology Extraction from Comparable Corpora'
p2373
sg6
S'2010'
p2374
sg8
g2371
sg9
S'em base hybrid model bilingu terminolog extract compar corpora'
p2375
ssS'C10-2070'
p2376
(dp2377
g4
S'A Linguistically Grounded Graph Model for Bilingual Lexicon Extraction'
p2378
sg6
S'2010'
p2379
sg8
g2376
sg9
S'linguist ground graph model bilingu lexicon extract'
p2380
ssS'C10-2071'
p2381
(dp2382
g4
S'A Post-processing Approach to Statistical Word Alignment Reflecting Alignment Tendency between Part-of-speeches'
p2383
sg6
S'2010'
p2384
sg8
g2381
sg9
S'post process approach statist word align reflect align tendenc part speech'
p2385
ssS'C10-1068'
p2386
(dp2387
g4
S'Dependency-driven Anaphoricity Determination for Coreference Resolution'
p2388
sg6
S'2010'
p2389
sg8
g2386
sg9
S'depend driven anaphor determin corefer resolut'
p2390
ssS'W10-0902'
p2391
(dp2392
g4
S'Building an end-to-end text reading system based on a packed representation'
p2393
sg6
S'2010'
p2394
sg8
g2391
sg9
S'build end end text read system base pack represent'
p2395
ssS'C10-1039'
p2396
(dp2397
g4
S'Opinosis: A Graph Based Approach to Abstractive Summarization of Highly Redundant Opinions'
p2398
sg6
S'2010'
p2399
sg8
g2396
sg9
S'opinosi graph base approach abstract summar highli redund opinion'
p2400
ssS'C10-1038'
p2401
(dp2402
g4
S'Enriching Dictionaries with Images from the Internet - Targeting Wikipedia and a Japanese Semantic Lexicon: Lexeed -'
p2403
sg6
S'2010'
p2404
sg8
g2401
sg9
S'enrich dictionari imag internet target wikipedia japanes semant lexicon lexe'
p2405
ssS'C10-1037'
p2406
(dp2407
g4
S'Multi-Sentence Compression: Finding Shortest Paths in Word Graphs'
p2408
sg6
S'2010'
p2409
sg8
g2406
sg9
S'multi sentenc compress find shortest path word graph'
p2410
ssS'C10-1048'
p2411
(dp2412
g4
S'Detection of Simple Plagiarism in Computer Science Papers'
p2413
sg6
S'2010'
p2414
sg8
g2411
sg9
S'detect simpl plagiar comput scienc paper'
p2415
ssS'C10-1036'
p2416
(dp2417
g4
S'Mixture Model-based Minimum Bayes Risk Decoding using Multiple Machine Translation Systems'
p2418
sg6
S'2010'
p2419
sg8
g2416
sg9
S'mixtur model base minimum bay risk decod us multipl machin translat system'
p2420
ssS'C10-1049'
p2421
(dp2422
g4
S'A Structured Vector Space Model for Hidden Attribute Meaning in Adjective-Noun Phrases'
p2423
sg6
S'2010'
p2424
sg8
g2421
sg9
S'structur vector space model hidden attribut mean adject noun phrase'
p2425
ssS'C10-1035'
p2426
(dp2427
g4
S'Translation Model Generalization using Probability Averaging for Machine Translation'
p2428
sg6
S'2010'
p2429
sg8
g2426
sg9
S'translat model gener us probabl averag machin translat'
p2430
ssS'W10-0715'
p2431
(dp2432
g4
S'An Enriched MT Grammar for Under $100'
p2433
sg6
S'2010'
p2434
sg8
g2431
sg9
S'enrich mt grammar 100'
p2435
ssS'C10-1069'
p2436
(dp2437
g4
S'Phrase Clustering for Smoothing TM Probabilities - or, How to Extract Paraphrases from Phrase Tables'
p2438
sg6
S'2010'
p2439
sg8
g2436
sg9
S'phrase cluster smooth tm probabl extract paraphras phrase tabl'
p2440
ssS'D10-1102'
p2441
(dp2442
g4
S'Multi-Level Structured Models for Document-Level Sentiment Classification'
p2443
sg6
S'2010'
p2444
sg8
g2441
sg9
S'multi level structur model document level sentiment classif'
p2445
ssS'D10-1103'
p2446
(dp2447
g4
S'Cross Language Text Classification by Model Translation and Semi-Supervised Learning'
p2448
sg6
S'2010'
p2449
sg8
g2446
sg9
S'cross languag text classif model translat semi supervis learn'
p2450
ssS'D10-1100'
p2451
(dp2452
g4
S'Automatic Detection and Classification of Social Events'
p2453
sg6
S'2010'
p2454
sg8
g2451
sg9
S'automat detect classif social event'
p2455
ssS'D10-1101'
p2456
(dp2457
g4
S'Extracting Opinion Targets in a Single and Cross-Domain Setting with Conditional Random Fields'
p2458
sg6
S'2010'
p2459
sg8
g2456
sg9
S'extract opinion target singl cross domain set condit random field'
p2460
ssS'D10-1106'
p2461
(dp2462
g4
S'Learning First-Order Horn Clauses from Web Text'
p2463
sg6
S'2010'
p2464
sg8
g2461
sg9
S'learn first order horn claus web text'
p2465
ssS'D10-1107'
p2466
(dp2467
g4
S'Constraints Based Taxonomic Relation Classification'
p2468
sg6
S'2010'
p2469
sg8
g2466
sg9
S'constraint base taxonom relat classif'
p2470
ssS'D10-1104'
p2471
(dp2472
g4
S'SRL-Based Verb Selection for ESL'
p2473
sg6
S'2010'
p2474
sg8
g2471
sg9
S'srl base verb select esl'
p2475
ssS'D10-1105'
p2476
(dp2477
g4
S'Context Comparison of Bursty Events in Web Search and Online Media'
p2478
sg6
S'2010'
p2479
sg8
g2476
sg9
S'context comparison bursti event web search onlin media'
p2480
ssS'C10-1033'
p2481
(dp2482
g4
S'A Discriminative Latent Variable-Based "DE" Classifier for Chinese-English SMT'
p2483
sg6
S'2010'
p2484
sg8
g2481
sg9
S'discrimin latent variabl base de classifi chines english smt'
p2485
ssS'D10-1108'
p2486
(dp2487
g4
S'A Semi-Supervised Method to Learn and Construct Taxonomies Using the Web'
p2488
sg6
S'2010'
p2489
sg8
g2486
sg9
S'semi supervis method learn construct taxonomi us web'
p2490
ssS'D11-1058'
p2491
(dp2492
g4
S'Multilayer Sequence Labeling'
p2493
sg6
S'2011'
p2494
sg8
g2491
sg9
S'multilay sequenc label'
p2495
ssS'C10-1032'
p2496
(dp2497
g4
S'Entity Disambiguation for Knowledge Base Population'
p2498
sg6
S'2010'
p2499
sg8
g2496
sg9
S'entiti disambigu knowledg base popul'
p2500
ssS'W10-0501'
p2501
(dp2502
g4
S'The &#x201C;Nays&#x201D; Have It: Exploring Effects of Sentiment in Collaborative Knowledge Sharing'
p2503
sg6
S'2010'
p2504
sg8
g2501
sg9
S'x201c nai x201d explor effect sentiment collabor knowledg share'
p2505
ssS'C10-1031'
p2506
(dp2507
g4
S'Resolving Object and Attribute Coreference in Opinion Mining'
p2508
sg6
S'2010'
p2509
sg8
g2506
sg9
S'resolv object attribut corefer opinion mine'
p2510
ssS'C10-1030'
p2511
(dp2512
g4
S'Generating Learner-Like Morphological Errors in Russian'
p2513
sg6
S'2010'
p2514
sg8
g2511
sg9
S'gener learner like morpholog error russian'
p2515
ssS'W10-0714'
p2516
(dp2517
g4
S'MTurk Crowdsourcing: A Viable Method for Rapid Discovery of Arabic Nicknames?'
p2518
sg6
S'2010'
p2519
sg8
g2516
sg9
S'mturk crowdsourc viabl method rapid discoveri arab nicknam'
p2520
ssS'W10-0502'
p2521
(dp2522
g4
S'An Analysis of Verbs in Financial News Articles and their Impact on Stock Price'
p2523
sg6
S'2010'
p2524
sg8
g2521
sg9
S'analysi verb financi new articl impact stock price'
p2525
ssS'C10-1052'
p2526
(dp2527
g4
S'Standardizing Wordnets in the ISO Standard LMF: Wordnet-LMF for GermaNet'
p2528
sg6
S'2010'
p2529
sg8
g2526
sg9
S'standard wordnet iso standard lmf wordnet lmf germanet'
p2530
ssS'S10-1063'
p2531
(dp2532
g4
S'TIPSem (English and Spanish): Evaluating CRFs and Semantic Roles in TempEval-2'
p2533
sg6
S'2010'
p2534
sg8
g2531
sg9
S'tipsem english spanish evalu crf semant role tempev 2'
p2535
ssS'W11-2406'
p2536
(dp2537
g4
S'Representing and resolving ambiguities in ontology-based question answering'
p2538
sg6
S'2011'
p2539
sg8
g2536
sg9
S'repres resolv ambigu ontolog base question answer'
p2540
ssS'W10-0702'
p2541
(dp2542
g4
S'Corpus Creation for New Genres: A Crowdsourced Approach to PP Attachment'
p2543
sg6
S'2010'
p2544
sg8
g2541
sg9
S'corpu creation new genr crowdsourc approach pp attach'
p2545
ssS'W11-2407'
p2546
(dp2547
g4
S'Strings over intervals'
p2548
sg6
S'2011'
p2549
sg8
g2546
sg9
S'string interv'
p2550
ssS'W11-2408'
p2551
(dp2552
g4
S'Discovering Commonsense Entailment Rules Implicit in Sentences'
p2553
sg6
S'2011'
p2554
sg8
g2551
sg9
S'discov commonsens entail rule implicit sentenc'
p2555
ssS'S10-1059'
p2556
(dp2557
g4
S'SEMAFOR: Frame Argument Resolution with Log-Linear Models'
p2558
sg6
S'2010'
p2559
sg8
g2556
sg9
S'semafor frame argument resolut log linear model'
p2560
ssS'S10-1066'
p2561
(dp2562
g4
S'CLR: Linking Events and Their Participants in Discourse Using a Comprehensive FrameNet Dictionary'
p2563
sg6
S'2010'
p2564
sg8
g2561
sg9
S'clr link event particip discours us comprehens framenet dictionari'
p2565
ssS'S10-1058'
p2566
(dp2567
g4
S'UvT: Memory-Based Pairwise Ranking of Paraphrasing Verbs'
p2568
sg6
S'2010'
p2569
sg8
g2566
sg9
S'uvt memori base pairwis rank paraphras verb'
p2570
ssS'S10-1067'
p2571
(dp2572
g4
S'PKU_HIT: An Event Detection System Based on Instances Expansion and Rich Syntactic Features'
p2573
sg6
S'2010'
p2574
sg8
g2571
sg9
S'pku hit event detect system base instanc expans rich syntact featur'
p2575
ssS'S10-1068'
p2576
(dp2577
g4
S'372:Comparing the Benefit of Different Dependency Parsers for Textual Entailment Using Syntactic Constraints Only'
p2578
sg6
S'2010'
p2579
sg8
g2576
sg9
S'372 compar benefit differ depend parser textual entail us syntact constraint'
p2580
ssS'C10-2154'
p2581
(dp2582
g4
S'An Empirical Study of Translation Rule Extraction with Multiple Parsers'
p2583
sg6
S'2010'
p2584
sg8
g2581
sg9
S'empir studi translat rule extract multipl parser'
p2585
ssS'C10-2089'
p2586
(dp2587
g4
S'Connective-Based Measuring of the Inter-Annotator Agreement in the Annotation of Discourse in PDT'
p2588
sg6
S'2010'
p2589
sg8
g2586
sg9
S'connect base measur inter annot agreement annot discours pdt'
p2590
ssS'C10-2088'
p2591
(dp2592
g4
S'A Review Selection Approach for Accurate Feature Rating Estimation'
p2593
sg6
S'2010'
p2594
sg8
g2591
sg9
S'review select approach accur featur rate estim'
p2595
ssS'C10-2087'
p2596
(dp2597
g4
S'Dependency-Driven Feature-based Learning for Extracting Protein-Protein Interactions from Biomedical Text'
p2598
sg6
S'2010'
p2599
sg8
g2596
sg9
S'depend driven featur base learn extract protein protein interact biomed text'
p2600
ssS'C10-2086'
p2601
(dp2602
g4
S'Head-modifier Relation based Non-lexical Reordering Model for Phrase-Based Translation'
p2603
sg6
S'2010'
p2604
sg8
g2601
sg9
S'head modifi relat base non lexic reorder model phrase base translat'
p2605
ssS'C10-2085'
p2606
(dp2607
g4
S'Visually and Phonologically Similar Characters in Incorrect Simplified Chinese Words'
p2608
sg6
S'2010'
p2609
sg8
g2606
sg9
S'visual phonolog similar charact incorrect simplifi chines word'
p2610
ssS'C10-2084'
p2611
(dp2612
g4
S'Improved Discriminative ITG Alignment using Hierarchical Phrase Pairs and Semi-supervised Training'
p2613
sg6
S'2010'
p2614
sg8
g2611
sg9
S'improv discrimin itg align us hierarch phrase pair semi supervis train'
p2615
ssS'C10-2083'
p2616
(dp2617
g4
S'Collective Semantic Role Labeling on Open News Corpus by Leveraging Redundancy'
p2618
sg6
S'2010'
p2619
sg8
g2616
sg9
S'collect semant role label open new corpu leverag redund'
p2620
ssS'C10-2022'
p2621
(dp2622
g4
S'Unsupervised cleansing of noisy text'
p2623
sg6
S'2010'
p2624
sg8
g2621
sg9
S'unsupervis cleans noisi text'
p2625
ssS'C10-2081'
p2626
(dp2627
g4
S'Fast-Champollion: A Fast and Robust Sentence Alignment Algorithm'
p2628
sg6
S'2010'
p2629
sg8
g2626
sg9
S'fast champollion fast robust sentenc align algorithm'
p2630
ssS'C10-2080'
p2631
(dp2632
g4
S'Reexamination on Potential for Personalization in Web Search'
p2633
sg6
S'2010'
p2634
sg8
g2631
sg9
S'reexamin potenti person web search'
p2635
ssS'D10-1078'
p2636
(dp2637
g4
S'Latent-Descriptor Clustering for Unsupervised POS Induction'
p2638
sg6
S'2010'
p2639
sg8
g2636
sg9
S'latent descriptor cluster unsupervis po induct'
p2640
ssS'D10-1079'
p2641
(dp2642
g4
S'A Probabilistic Morphological Analyzer for Syriac'
p2643
sg6
S'2010'
p2644
sg8
g2641
sg9
S'probabilist morpholog analyz syriac'
p2645
ssS'S10-1096'
p2646
(dp2647
g4
S'HR-WSD: System Description for All-Words Word Sense Disambiguation on a Specific Domain at SemEval-2010'
p2648
sg6
S'2010'
p2649
sg8
g2646
sg9
S'hr wsd system descript word word sens disambigu specif domain semev 2010'
p2650
ssS'W11-2208'
p2651
(dp2652
g4
S'Unsupervised Bilingual POS Tagging with Markov Random Fields'
p2653
sg6
S'2011'
p2654
sg8
g2651
sg9
S'unsupervis bilingu po tag markov random field'
p2655
ssS'W11-2209'
p2656
(dp2657
g4
S'Unsupervised Concept Annotation using Latent Dirichlet Allocation and Segmental Methods'
p2658
sg6
S'2011'
p2659
sg8
g2656
sg9
S'unsupervis concept annot us latent dirichlet alloc segment method'
p2660
ssS'D10-1072'
p2661
(dp2662
g4
S'What a Parser Can Learn from a Semantic Role Labeler and Vice Versa'
p2663
sg6
S'2010'
p2664
sg8
g2661
sg9
S'parser can learn semant role label vice versa'
p2665
ssS'D10-1073'
p2666
(dp2667
g4
S'Word Sense Induction Disambiguation Using Hierarchical Random Graphs'
p2668
sg6
S'2010'
p2669
sg8
g2666
sg9
S'word sens induct disambigu us hierarch random graph'
p2670
ssS'D10-1070'
p2671
(dp2672
g4
S'A Unified Framework for Scope Learning via Simplified Shallow Semantic Parsing'
p2673
sg6
S'2010'
p2674
sg8
g2671
sg9
S'unifi framework scope learn via simplifi shallow semant pars'
p2675
ssS'D10-1071'
p2676
(dp2677
g4
S'A New Approach to Lexical Disambiguation of Arabic Text'
p2678
sg6
S'2010'
p2679
sg8
g2676
sg9
S'new approach lexic disambigu arab text'
p2680
ssS'D10-1076'
p2681
(dp2682
g4
S'Training Continuous Space Language Models: Some Practical Issues'
p2683
sg6
S'2010'
p2684
sg8
g2681
sg9
S'train continu space languag model practic issu'
p2685
ssS'D10-1077'
p2686
(dp2687
g4
S'Enhancing Domain Portability of Chinese Segmentation Model Using Chi-Square Statistics and Bootstrapping'
p2688
sg6
S'2010'
p2689
sg8
g2686
sg9
S'enhanc domain portabl chines segment model us chi squar statist bootstrap'
p2690
ssS'D10-1074'
p2691
(dp2692
g4
S'Towards Conversation Entailment: An Empirical Investigation'
p2693
sg6
S'2010'
p2694
sg8
g2691
sg9
S'toward convers entail empir investig'
p2695
ssS'D10-1075'
p2696
(dp2697
g4
S'The Necessity of Combining Adaptation Methods'
p2698
sg6
S'2010'
p2699
sg8
g2696
sg9
S'necess combin adapt method'
p2700
ssS'C10-2157'
p2701
(dp2702
g4
S'Syntax-Driven Machine Translation as a Model of ESL Revision'
p2703
sg6
S'2010'
p2704
sg8
g2701
sg9
S'syntax driven machin translat model esl revis'
p2705
ssS'W10-0404'
p2706
(dp2707
g4
S'The Design of a Proofreading Software Service'
p2708
sg6
S'2010'
p2709
sg8
g2706
sg9
S'design proofread softwar servic'
p2710
ssS'S10-1050'
p2711
(dp2712
g4
S'ECNU: Effective Semantic Relations Classification without Complicated Features or Multiple External Corpora'
p2713
sg6
S'2010'
p2714
sg8
g2711
sg9
S'ecnu effect semant relat classif without complic featur multipl extern corpora'
p2715
ssS'S10-1028'
p2716
(dp2717
g4
S'OWNS: Cross-lingual Word Sense Disambiguation Using Weighted Overlap Counts and Wordnet Based Similarity Measures'
p2718
sg6
S'2010'
p2719
sg8
g2716
sg9
S'own cross lingual word sens disambigu us weight overlap count wordnet base similar measur'
p2720
ssS'S10-1029'
p2721
(dp2722
g4
S'273. Task 5. Keyphrase Extraction Based on Core Word Identification and Word Expansion'
p2723
sg6
S'2010'
p2724
sg8
g2721
sg9
S'273 task 5 keyphras extract base core word identif word expans'
p2725
ssS'S10-1024'
p2726
(dp2727
g4
S'Combining Dictionaries and Contextual Information for Cross-Lingual Lexical Substitution'
p2728
sg6
S'2010'
p2729
sg8
g2726
sg9
S'combin dictionari contextu inform cross lingual lexic substitut'
p2730
ssS'S10-1025'
p2731
(dp2732
g4
S'SWAT: Cross-Lingual Lexical Substitution using Local Context Matching, Bilingual Dictionaries and Machine Translation'
p2733
sg6
S'2010'
p2734
sg8
g2731
sg9
S'swat cross lingual lexic substitut us local context match bilingu dictionari machin translat'
p2735
ssS'S10-1026'
p2736
(dp2737
g4
S'COLEPL and COLSLM: An Unsupervised WSD Approach to Multilingual Lexical Substitution, Tasks 2 and 3 SemEval 2010'
p2738
sg6
S'2010'
p2739
sg8
g2736
sg9
S'colepl colslm unsupervis wsd approach multilingu lexic substitut task 2 3 semev 2010'
p2740
ssS'S10-1027'
p2741
(dp2742
g4
S'UHD: Cross-Lingual Word Sense Disambiguation Using Multilingual Co-Occurrence Graphs'
p2743
sg6
S'2010'
p2744
sg8
g2741
sg9
S'uhd cross lingual word sens disambigu us multilingu co occurr graph'
p2745
ssS'S10-1020'
p2746
(dp2747
g4
S'Corry: A System for Coreference Resolution'
p2748
sg6
S'2010'
p2749
sg8
g2746
sg9
S'corri system corefer resolut'
p2750
ssS'S10-1021'
p2751
(dp2752
g4
S'BART: A Multilingual Anaphora Resolution System'
p2753
sg6
S'2010'
p2754
sg8
g2751
sg9
S'bart multilingu anaphora resolut system'
p2755
ssS'S10-1022'
p2756
(dp2757
g4
S'TANL-1: Coreference Resolution by Parse Analysis and Similarity Clustering'
p2758
sg6
S'2010'
p2759
sg8
g2756
sg9
S'tanl 1 corefer resolut pars analysi similar cluster'
p2760
ssS'C10-2156'
p2761
(dp2762
g4
S'Applying Syntactic, Semantic and Discourse Constraints in Chinese Temporal Annotation'
p2763
sg6
S'2010'
p2764
sg8
g2761
sg9
S'appli syntact semant discours constraint chines tempor annot'
p2765
ssS'W11-2149'
p2766
(dp2767
g4
S'The RWTH Aachen Machine Translation System for WMT 2011'
p2768
sg6
S'2011'
p2769
sg8
g2766
sg9
S'rwth aachen machin translat system wmt 2011'
p2770
ssS'W11-2148'
p2771
(dp2772
g4
S'The Value of Monolingual Crowdsourcing in a Real-World Translation Scenario: Simulation using Haitian Creole Emergency SMS Messages'
p2773
sg6
S'2011'
p2774
sg8
g2771
sg9
S'valu monolingu crowdsourc real world translat scenario simul us haitian creol emerg sm messag'
p2775
ssS'S10-1057'
p2776
(dp2777
g4
S'UTD: Classifying Semantic Relations by Combining Lexical and Semantic Resources'
p2778
sg6
S'2010'
p2779
sg8
g2776
sg9
S'utd classifi semant relat combin lexic semant resourc'
p2780
ssS'C10-2107'
p2781
(dp2782
g4
S'Evaluating FrameNet-style semantic parsing: the role of coverage gaps in FrameNet'
p2783
sg6
S'2010'
p2784
sg8
g2781
sg9
S'evalu framenet style semant pars role coverag gap framenet'
p2785
ssS'W11-2141'
p2786
(dp2787
g4
S'Stochastic Parse Tree Selection for an Existing RBMT System'
p2788
sg6
S'2011'
p2789
sg8
g2786
sg9
S'stochast pars tree select exist rbmt system'
p2790
ssS'W11-2140'
p2791
(dp2792
g4
S'Noisy SMS Machine Translation in Low-Density Languages'
p2793
sg6
S'2011'
p2794
sg8
g2791
sg9
S'noisi sm machin translat low densiti languag'
p2795
ssS'W11-2143'
p2796
(dp2797
g4
S'CMU Syntax-Based Machine Translation at WMT 2011'
p2798
sg6
S'2011'
p2799
sg8
g2796
sg9
S'cmu syntax base machin translat wmt 2011'
p2800
ssS'W11-2142'
p2801
(dp2802
g4
S'Joint WMT Submission of the QUAERO Project'
p2803
sg6
S'2011'
p2804
sg8
g2801
sg9
S'joint wmt submiss quaero project'
p2805
ssS'W11-2145'
p2806
(dp2807
g4
S'The Karlsruhe Institute of Technology Translation Systems for the WMT 2011'
p2808
sg6
S'2011'
p2809
sg8
g2806
sg9
S'karlsruh institut technolog translat system wmt 2011'
p2810
ssS'W11-2144'
p2811
(dp2812
g4
S'The Uppsala-FBK systems at WMT 2011'
p2813
sg6
S'2011'
p2814
sg8
g2811
sg9
S'uppsala fbk system wmt 2011'
p2815
ssS'W11-2147'
p2816
(dp2817
g4
S'Experiments with word alignment, normalization and clause reordering for SMT between English and German'
p2818
sg6
S'2011'
p2819
sg8
g2816
sg9
S'experi word align normal claus reorder smt english german'
p2820
ssS'W11-2146'
p2821
(dp2822
g4
S'CMU Haitian Creole-English Translation System for WMT 2011'
p2823
sg6
S'2011'
p2824
sg8
g2821
sg9
S'cmu haitian creol english translat system wmt 2011'
p2825
ssS'C10-1154'
p2826
(dp2827
g4
S'Detecting Speech Repairs Incrementally Using a Noisy Channel Approach'
p2828
sg6
S'2010'
p2829
sg8
g2826
sg9
S'detect speech repair increment us noisi channel approach'
p2830
ssS'C10-1155'
p2831
(dp2832
g4
S'Syntactic Scope Resolution in Uncertainty Analysis'
p2833
sg6
S'2010'
p2834
sg8
g2831
sg9
S'syntact scope resolut uncertainti analysi'
p2835
ssS'C10-2038'
p2836
(dp2837
g4
S'Utilizing User-input Contextual Terms for Query Disambiguation'
p2838
sg6
S'2010'
p2839
sg8
g2836
sg9
S'util user input contextu term queri disambigu'
p2840
ssS'C10-2039'
p2841
(dp2842
g4
S'Comparing the performance of two TAG-based surface realisers using controlled grammar traversal'
p2843
sg6
S'2010'
p2844
sg8
g2841
sg9
S'compar perform two tag base surfac realis us control grammar travers'
p2845
ssS'C10-1150'
p2846
(dp2847
g4
S'Resolving Surface Forms to Wikipedia Topics'
p2848
sg6
S'2010'
p2849
sg8
g2846
sg9
S'resolv surfac form wikipedia topic'
p2850
ssS'C10-1151'
p2851
(dp2852
g4
S'Heterogeneous Parsing via Collaborative Decoding'
p2853
sg6
S'2010'
p2854
sg8
g2851
sg9
S'heterogen pars via collabor decod'
p2855
ssS'C10-1152'
p2856
(dp2857
g4
S'A Monolingual Tree-based Translation Model for Sentence Simplification'
p2858
sg6
S'2010'
p2859
sg8
g2856
sg9
S'monolingu tree base translat model sentenc simplif'
p2860
ssS'C10-1153'
p2861
(dp2862
g4
S'A Minimum Error Weighting Combination Strategy for Chinese Semantic Role Labeling'
p2863
sg6
S'2010'
p2864
sg8
g2861
sg9
S'minimum error weight combin strategi chines semant role label'
p2865
ssS'C10-2032'
p2866
(dp2867
g4
S'A Comparison of Features for Automatic Readability Assessment'
p2868
sg6
S'2010'
p2869
sg8
g2866
sg9
S'comparison featur automat readabl assess'
p2870
ssS'C10-2033'
p2871
(dp2872
g4
S'An Efficient Shift-Reduce Decoding Algorithm for Phrased-Based Machine Translation'
p2873
sg6
S'2010'
p2874
sg8
g2871
sg9
S'effici shift reduc decod algorithm phrase base machin translat'
p2875
ssS'C10-2030'
p2876
(dp2877
g4
S'Recognizing Medication related Entities in Hospital Discharge Summaries using Support Vector Machine'
p2878
sg6
S'2010'
p2879
sg8
g2876
sg9
S'recogn medic relat entiti hospit discharg summari us support vector machin'
p2880
ssS'C10-2031'
p2881
(dp2882
g4
S'Exploring the Data-Driven Prediction of Prepositions in English'
p2883
sg6
S'2010'
p2884
sg8
g2881
sg9
S'explor data driven predict preposit english'
p2885
ssS'C10-2036'
p2886
(dp2887
g4
S'Chinese Sentence-Level Sentiment Classification Based on Fuzzy Sets'
p2888
sg6
S'2010'
p2889
sg8
g2886
sg9
S'chines sentenc level sentiment classif base fuzzi set'
p2890
ssS'C10-2037'
p2891
(dp2892
g4
S'Monolingual Distributional Profiles for Word Substitution in Machine Translation'
p2893
sg6
S'2010'
p2894
sg8
g2891
sg9
S'monolingu distribut profil word substitut machin translat'
p2895
ssS'C10-2034'
p2896
(dp2897
g4
S'A Novel Method for Bilingual Web Page Acquisition from Search Engine Web Records'
p2898
sg6
S'2010'
p2899
sg8
g2896
sg9
S'novel method bilingu web page acquisit search engin web record'
p2900
ssS'C10-2035'
p2901
(dp2902
g4
S'Building Systematic Reviews Using Automatic Text Classification Techniques'
p2903
sg6
S'2010'
p2904
sg8
g2901
sg9
S'build systemat review us automat text classif techniqu'
p2905
ssS'C10-2100'
p2906
(dp2907
g4
S'Support or Oppose? Classifying Positions in Online Debates from Reply Activities and Opinion Expressions'
p2908
sg6
S'2010'
p2909
sg8
g2906
sg9
S'support oppos classifi posit onlin debat repli activ opinion express'
p2910
ssS'C10-2101'
p2911
(dp2912
g4
S'Semantic Classification of Automatically Acquired Nouns using Lexico-Syntactic Clues'
p2913
sg6
S'2010'
p2914
sg8
g2911
sg9
S'semant classif automat acquir noun us lexico syntact clue'
p2915
ssS'C10-1113'
p2916
(dp2917
g4
S'Metaphor Identification Using Verb and Noun Clustering'
p2918
sg6
S'2010'
p2919
sg8
g2916
sg9
S'metaphor identif us verb noun cluster'
p2920
ssS'W10-0402'
p2921
(dp2922
g4
S'Scientific Authoring Support: A Tool to Navigate in Typed Citation Graphs'
p2923
sg6
S'2010'
p2924
sg8
g2921
sg9
S'scientif author support tool navig type citat graph'
p2925
ssS'W10-0703'
p2926
(dp2927
g4
S'Clustering dictionary definitions using Amazon Mechanical Turk'
p2928
sg6
S'2010'
p2929
sg8
g2926
sg9
S'cluster dictionari definit us amazon mechan turk'
p2930
ssS'D11-1019'
p2931
(dp2932
g4
S'Augmenting String-to-Tree Translation Models with Fuzzy Use of Source-side Syntax'
p2933
sg6
S'2011'
p2934
sg8
g2931
sg9
S'augment string tree translat model fuzzi us sourc side syntax'
p2935
ssS'D11-1018'
p2936
(dp2937
g4
S'Inducing Sentence Structure from Parallel Corpora for Reordering'
p2938
sg6
S'2011'
p2939
sg8
g2936
sg9
S'induc sentenc structur parallel corpora reorder'
p2940
ssS'D11-1017'
p2941
(dp2942
g4
S'Training a Parser for Machine Translation Reordering'
p2943
sg6
S'2011'
p2944
sg8
g2941
sg9
S'train parser machin translat reorder'
p2945
ssS'D11-1016'
p2946
(dp2947
g4
S'Compositional Matrix-Space Models for Sentiment Analysis'
p2948
sg6
S'2011'
p2949
sg8
g2946
sg9
S'composit matrix space model sentiment analysi'
p2950
ssS'D11-1015'
p2951
(dp2952
g4
S'Unsupervised Discovery of Discourse Relations for Eliminating Intra-sentence Polarity Ambiguities'
p2953
sg6
S'2011'
p2954
sg8
g2951
sg9
S'unsupervis discoveri discours relat elimin intra sentenc polar ambigu'
p2955
ssS'D11-1014'
p2956
(dp2957
g4
S'Semi-Supervised Recursive Autoencoders for Predicting Sentiment Distributions'
p2958
sg6
S'2011'
p2959
sg8
g2956
sg9
S'semi supervis recurs autoencod predict sentiment distribut'
p2960
ssS'D11-1013'
p2961
(dp2962
g4
S'Domain-Assisted Product Aspect Hierarchy Generation: Towards Hierarchical Organization of Unstructured Consumer Reviews'
p2963
sg6
S'2011'
p2964
sg8
g2961
sg9
S'domain assist product aspect hierarchi gener toward hierarch organ unstructur consum review'
p2965
ssS'D11-1012'
p2966
(dp2967
g4
S'A Joint Model for Extended Semantic Role Labeling'
p2968
sg6
S'2011'
p2969
sg8
g2966
sg9
S'joint model extend semant role label'
p2970
ssS'D11-1011'
p2971
(dp2972
g4
S'Class Label Enhancement via Related Instances'
p2973
sg6
S'2011'
p2974
sg8
g2971
sg9
S'class label enhanc via relat instanc'
p2975
ssS'D11-1010'
p2976
(dp2977
g4
S'Correcting Semantic Collocation Errors with L1-induced Paraphrases'
p2978
sg6
S'2011'
p2979
sg8
g2976
sg9
S'correct semant colloc error l1 induc paraphras'
p2980
ssS'C10-5001'
p2981
(dp2982
g4
S'Kernel Engineering for Fast and Easy Design of Natural Language Applications'
p2983
sg6
S'2010'
p2984
sg8
g2981
sg9
S'kernel engin fast easi design natur languag applic'
p2985
ssS'W10-0408'
p2986
(dp2987
g4
S'Exploring Individual Differences in Student Writing with a Narrative Composition Support Environment'
p2988
sg6
S'2010'
p2989
sg8
g2986
sg9
S'explor individu differ student write narr composit support environ'
p2990
ssS'J10-4018'
p2991
(dp2992
g4
S'Last Words: Are We Near the End of the Journal?'
p2993
sg6
S'2010'
p2994
sg8
g2991
sg9
S'last word near end journal'
p2995
ssS'C10-2108'
p2996
(dp2997
g4
S'Word Space Modeling for Measuring Semantic Specificity in Chinese'
p2998
sg6
S'2010'
p2999
sg8
g2996
sg9
S'word space model measur semant specif chines'
p3000
ssS'C10-2109'
p3001
(dp3002
g4
S'MT Error Detection for Cross-Lingual Question Answering'
p3003
sg6
S'2010'
p3004
sg8
g3001
sg9
S'mt error detect cross lingual question answer'
p3005
ssS'J10-4011'
p3006
(dp3007
g4
S'Book Review: Introduction to Chinese Natural Language Processing by Kam-Fai Wong, Wenjie Li, Ruifeng Xu, and Zheng-sheng Zhang'
p3008
sg6
S'2010'
p3009
sg8
g3006
sg9
S'book review introduct chines natur languag process kam fai wong wenji li ruifeng xu zheng sheng zhang'
p3010
ssS'J10-4010'
p3011
(dp3012
g4
S'Book Review: Statistical Machine Translation by Philipp Koehn'
p3013
sg6
S'2010'
p3014
sg8
g3011
sg9
S'book review statist machin translat philipp koehn'
p3015
ssS'J10-4013'
p3016
(dp3017
g4
S'Book Review: Machine-Aided Linguistic Discovery: An Introduction and Some Examples by Vladimir Pericliev'
p3018
sg6
S'2010'
p3019
sg8
g3016
sg9
S'book review machin aid linguist discoveri introduct exampl vladimir pericliev'
p3020
ssS'J10-4012'
p3021
(dp3022
g4
S'Book Review: Spoken Dialogue Systems by Kristiina Jokinen and Michael McTear'
p3023
sg6
S'2010'
p3024
sg8
g3021
sg9
S'book review spoken dialogu system kristiina jokinen michael mctear'
p3025
ssS'J10-4015'
p3026
(dp3027
g4
S'Commentary and Discussion: A Response to Richard Sproat on Random Systems, Writing, and Entropy'
p3028
sg6
S'2010'
p3029
sg8
g3026
sg9
S'commentari discuss respons richard sproat random system write entropi'
p3030
ssS'J10-4014'
p3031
(dp3032
g4
S'Briefly Noted: Essential Programming for Linguistics'
p3033
sg6
S'2010'
p3034
sg8
g3031
sg9
S'briefli note essenti program linguist'
p3035
ssS'J10-4017'
p3036
(dp3037
g4
S'Commentary and Discussion: Reply to Rao et al. and Lee et al.'
p3038
sg6
S'2010'
p3039
sg8
g3036
sg9
S'commentari discuss repli rao et al lee et al'
p3040
ssS'J10-4016'
p3041
(dp3042
g4
S'Commentary and Discussion: Entropy, the Indus Script, and Language: A Reply to R. Sproat'
p3043
sg6
S'2010'
p3044
sg8
g3041
sg9
S'commentari discuss entropi indu script languag repli r sproat'
p3045
ssS'C10-1121'
p3046
(dp3047
g4
S'SemanticRank: Ranking Keywords and Sentences Using Semantic Graphs'
p3048
sg6
S'2010'
p3049
sg8
g3046
sg9
S'semanticrank rank keyword sentenc us semant graph'
p3050
ssS'C10-2171'
p3051
(dp3052
g4
S'Automatic Temporal Expression Normalization with Reference Time Dynamic-Choosing'
p3053
sg6
S'2010'
p3054
sg8
g3051
sg9
S'automat tempor express normal refer time dynam choos'
p3055
ssS'C10-1120'
p3056
(dp3057
g4
S'Semi-supervised dependency parsing using generalized tri-training'
p3058
sg6
S'2010'
p3059
sg8
g3056
sg9
S'semi supervis depend pars us gener tri train'
p3060
ssS'C10-2170'
p3061
(dp3062
g4
S'Sentence Ordering with Event-Enriched Semantics and Two-Layered Clustering for Multi-Document News Summarization'
p3063
sg6
S'2010'
p3064
sg8
g3061
sg9
S'sentenc order event enrich semant two layer cluster multi document new summar'
p3065
ssS'S10-1038'
p3066
(dp3067
g4
S'UNPMC: Naive Approach to Extract Keyphrases from Scientific Articles'
p3068
sg6
S'2010'
p3069
sg8
g3066
sg9
S'unpmc naiv approach extract keyphras scientif articl'
p3070
ssS'C10-1123'
p3071
(dp3072
g4
S'Dependency Forest for Statistical Machine Translation'
p3073
sg6
S'2010'
p3074
sg8
g3071
sg9
S'depend forest statist machin translat'
p3075
ssS'C10-1122'
p3076
(dp3077
g4
S'Chinese CCGbank: extracting CCG derivations from the Penn Chinese Treebank'
p3078
sg6
S'2010'
p3079
sg8
g3076
sg9
S'chines ccgbank extract ccg deriv penn chines treebank'
p3080
ssS'C10-3011'
p3081
(dp3082
g4
S'Antelogue: Pronoun Resolution for Text and Dialogue'
p3083
sg6
S'2010'
p3084
sg8
g3081
sg9
S'antelogu pronoun resolut text dialogu'
p3085
ssS'C10-1125'
p3086
(dp3087
g4
S'Hungarian Corpus of Light Verb Constructions'
p3088
sg6
S'2010'
p3089
sg8
g3086
sg9
S'hungarian corpu light verb construct'
p3090
ssS'C10-1124'
p3091
(dp3092
g4
S'Large Scale Parallel Document Mining for Machine Translation'
p3093
sg6
S'2010'
p3094
sg8
g3091
sg9
S'larg scale parallel document mine machin translat'
p3095
ssS'W11-2608'
p3096
(dp3097
g4
S'Phone set selection for HMM-based dialect speech synthesis'
p3098
sg6
S'2011'
p3099
sg8
g3096
sg9
S'phone set select hmm base dialect speech synthesi'
p3100
ssS'W11-2609'
p3101
(dp3102
g4
S'WordNet.PT global &#8211; Extending WordNet.PT to Portuguese varieties'
p3103
sg6
S'2011'
p3104
sg8
g3101
sg9
S'wordnetpt global 8211 extend wordnetpt portugues varieti'
p3105
ssS'C10-1127'
p3106
(dp3107
g4
S'Efficient Statement Identification for Automatic Market Forecasting'
p3108
sg6
S'2010'
p3109
sg8
g3106
sg9
S'effici statement identif automat market forecast'
p3110
ssS'S10-1099'
p3111
(dp3112
g4
S'OpAL: Applying Opinion Mining Techniques for the Disambiguation of Sentiment Ambiguous Adjectives in SemEval-2 Task 18'
p3113
sg6
S'2010'
p3114
sg8
g3111
sg9
S'opal appli opinion mine techniqu disambigu sentiment ambigu adject semev 2 task 18'
p3115
ssS'W10-0213'
p3116
(dp3117
g4
S'Experiments on Summary-based Opinion Classification'
p3118
sg6
S'2010'
p3119
sg8
g3116
sg9
S'experi summari base opinion classif'
p3120
ssS'W11-2602'
p3121
(dp3122
g4
S'Dialectal to Standard Arabic Paraphrasing to Improve Arabic-English Statistical Machine Translation'
p3123
sg6
S'2011'
p3124
sg8
g3121
sg9
S'dialect standard arab paraphras improv arab english statist machin translat'
p3125
ssS'W11-2603'
p3126
(dp3127
g4
S'PaddyWaC: A Minimally-Supervised Web-Corpus of Hiberno-English'
p3128
sg6
S'2011'
p3129
sg8
g3126
sg9
S'paddywac minim supervis web corpu hiberno english'
p3130
ssS'C10-1080'
p3131
(dp3132
g4
S'Joint Parsing and Translation'
p3133
sg6
S'2010'
p3134
sg8
g3131
sg9
S'joint pars translat'
p3135
ssS'W11-2601'
p3136
(dp3137
g4
S'Dialect Translation: Integrating Bayesian Co-segmentation Models with Pivot-based SMT'
p3138
sg6
S'2011'
p3139
sg8
g3136
sg9
S'dialect translat integr bayesian co segment model pivot base smt'
p3140
ssS'W11-2606'
p3141
(dp3142
g4
S'Modeling of Stylistic Variation in Social Media with Stretchy Patterns'
p3143
sg6
S'2011'
p3144
sg8
g3141
sg9
S'model stylist variat social media stretchi pattern'
p3145
ssS'W11-2607'
p3146
(dp3147
g4
S'Adapting Slovak ASR for native Germans speaking Slovak'
p3148
sg6
S'2011'
p3149
sg8
g3146
sg9
S'adapt slovak asr nativ german speak slovak'
p3150
ssS'W11-2604'
p3151
(dp3152
g4
S'Syntactic transformations for Swiss German dialects'
p3153
sg6
S'2011'
p3154
sg8
g3151
sg9
S'syntact transform swiss german dialect'
p3155
ssS'W11-2605'
p3156
(dp3157
g4
S'Learning word-level dialectal variation as phonological replacement rules using a limited parallel corpus'
p3158
sg6
S'2011'
p3159
sg8
g3156
sg9
S'learn word level dialect variat phonolog replac rule us limit parallel corpu'
p3160
ssS'C10-2178'
p3161
(dp3162
g4
S'Interpreting Pointing Gestures and Spoken Requests &#x2013; A Probabilistic, Salience-based Approach'
p3163
sg6
S'2010'
p3164
sg8
g3161
sg9
S'interpret point gestur spoken request x2013 probabilist salienc base approach'
p3165
ssS'W10-0709'
p3166
(dp3167
g4
S'Exploring Normalization Techniques for Human Judgments of Machine Translation Adequacy Collected Using Amazon Mechanical Turk'
p3168
sg6
S'2010'
p3169
sg8
g3166
sg9
S'explor normal techniqu human judgment machin translat adequaci collect us amazon mechan turk'
p3170
ssS'S10-1098'
p3171
(dp3172
g4
S'YSC-DSAA: An Approach to Disambiguate Sentiment Ambiguous Adjectives Based on SAAOL'
p3173
sg6
S'2010'
p3174
sg8
g3171
sg9
S'ysc dsaa approach disambigu sentiment ambigu adject base saaol'
p3175
ssS'W10-0706'
p3176
(dp3177
g4
S'Crowdsourced Accessibility: Elicitation of Wikipedia Articles'
p3178
sg6
S'2010'
p3179
sg8
g3176
sg9
S'crowdsourc access elicit wikipedia articl'
p3180
ssS'W10-0707'
p3181
(dp3182
g4
S'Document Image Collection Using Amazon&rsquo;s Mechanical Turk'
p3183
sg6
S'2010'
p3184
sg8
g3181
sg9
S'document imag collect us amazon rsquo s mechan turk'
p3185
ssS'W10-0211'
p3186
(dp3187
g4
S'Generating Shifting Sentiment for a Conversational Agent'
p3188
sg6
S'2010'
p3189
sg8
g3186
sg9
S'gener shift sentiment convers agent'
p3190
ssS'W10-0801'
p3191
(dp3192
g4
S'Towards a Domain Independent Semantics: Enhancing Semantic Representation with Construction Grammar'
p3193
sg6
S'2010'
p3194
sg8
g3191
sg9
S'toward domain independ semant enhanc semant represent construct grammar'
p3195
ssS'C10-2024'
p3196
(dp3197
g4
S'Comparing Sanskrit Texts for Critical Editions'
p3198
sg6
S'2010'
p3199
sg8
g3196
sg9
S'compar sanskrit text critic edit'
p3200
ssS'W10-0803'
p3201
(dp3202
g4
S'Identifying Assertions in Text and Discourse: The Presentational Relative Clause Construction'
p3203
sg6
S'2010'
p3204
sg8
g3201
sg9
S'identifi assert text discours present rel claus construct'
p3205
ssS'W10-0802'
p3206
(dp3207
g4
S'Towards an Inventory of English Verb Argument Constructions'
p3208
sg6
S'2010'
p3209
sg8
g3206
sg9
S'toward inventori english verb argument construct'
p3210
ssS'C10-2082'
p3211
(dp3212
g4
S'Tibetan Number Identification Based on Classification of Number Components in Tibetan Word Segmentation'
p3213
sg6
S'2010'
p3214
sg8
g3211
sg9
S'tibetan number identif base classif number compon tibetan word segment'
p3215
ssS'C10-1088'
p3216
(dp3217
g4
S'Evaluating Dependency Representations for Event Extraction'
p3218
sg6
S'2010'
p3219
sg8
g3216
sg9
S'evalu depend represent event extract'
p3220
ssS'W10-0806'
p3221
(dp3222
g4
S'Automatic Extraction of Constructional Schemas'
p3223
sg6
S'2010'
p3224
sg8
g3221
sg9
S'automat extract construct schema'
p3225
ssS'W11-2105'
p3226
(dp3227
g4
S'AMBER: A Modified BLEU, Enhanced Ranking Metric'
p3228
sg6
S'2011'
p3229
sg8
g3226
sg9
S'amber modifi bleu enhanc rank metric'
p3230
ssS'W11-2104'
p3231
(dp3232
g4
S'Evaluate with Confidence Estimation: Machine ranking of translation outputs using grammatical features'
p3233
sg6
S'2011'
p3234
sg8
g3231
sg9
S'evalu confid estim machin rank translat output us grammat featur'
p3235
ssS'W11-2107'
p3236
(dp3237
g4
S'Meteor 1.3: Automatic Metric for Reliable Optimization and Evaluation of Machine Translation Systems'
p3238
sg6
S'2011'
p3239
sg8
g3236
sg9
S'meteor 13 automat metric reliabl optim evalu machin translat system'
p3240
ssS'W11-2106'
p3241
(dp3242
g4
S'TESLA at WMT 2011: Translation Evaluation and Tunable Metric'
p3243
sg6
S'2011'
p3244
sg8
g3241
sg9
S'tesla wmt 2011 translat evalu tunabl metric'
p3245
ssS'W11-2101'
p3246
(dp3247
g4
S'A Grain of Salt for the WMT Manual Evaluation'
p3248
sg6
S'2011'
p3249
sg8
g3246
sg9
S'grain salt wmt manual evalu'
p3250
ssS'W11-2103'
p3251
(dp3252
g4
S'Findings of the 2011 Workshop on Statistical Machine Translation'
p3253
sg6
S'2011'
p3254
sg8
g3251
sg9
S'find 2011 workshop statist machin translat'
p3255
ssS'W11-2102'
p3256
(dp3257
g4
S'A Lightweight Evaluation Framework for Machine Translation Reordering'
p3258
sg6
S'2011'
p3259
sg8
g3256
sg9
S'lightweight evalu framework machin translat reorder'
p3260
ssS'W11-2109'
p3261
(dp3262
g4
S'Evaluation without references: IBM1 scores as evaluation metrics'
p3263
sg6
S'2011'
p3264
sg8
g3261
sg9
S'evalu without refer ibm1 score evalu metric'
p3265
ssS'W11-2108'
p3266
(dp3267
g4
S'Approximating a Deep-Syntactic Metric for MT Evaluation and Tuning'
p3268
sg6
S'2011'
p3269
sg8
g3266
sg9
S'approxim deep syntact metric mt evalu tune'
p3270
ssS'S10-1044'
p3271
(dp3272
g4
S'FBK_NK: A WordNet-Based System for Multi-Way Classification of Semantic Relations'
p3273
sg6
S'2010'
p3274
sg8
g3271
sg9
S'fbk nk wordnet base system multi wai classif semant relat'
p3275
ssS'W10-0708'
p3276
(dp3277
g4
S'Using Amazon Mechanical Turk for Transcription of Non-Native Speech'
p3278
sg6
S'2010'
p3279
sg8
g3276
sg9
S'us amazon mechan turk transcript non nativ speech'
p3280
ssS'W10-0217'
p3281
(dp3282
g4
S'Hierarchical versus Flat Classification of Emotions in Text'
p3283
sg6
S'2010'
p3284
sg8
g3281
sg9
S'hierarch versu flat classif emot text'
p3285
ssS'D10-1021'
p3286
(dp3287
g4
S'Improving Gender Classification of Blog Authors'
p3288
sg6
S'2010'
p3289
sg8
g3286
sg9
S'improv gender classif blog author'
p3290
ssS'D10-1020'
p3291
(dp3292
g4
S'Crouching Dirichlet, Hidden Markov Model: Unsupervised POS Tagging with Context Local Tag Generation'
p3293
sg6
S'2010'
p3294
sg8
g3291
sg9
S'crouch dirichlet hidden markov model unsupervis po tag context local tag gener'
p3295
ssS'D10-1023'
p3296
(dp3297
g4
S'Modeling Organization in Student Essays'
p3298
sg6
S'2010'
p3299
sg8
g3296
sg9
S'model organ student essai'
p3300
ssS'D10-1022'
p3301
(dp3302
g4
S'Negative Training Data Can be Harmful to Text Classification'
p3303
sg6
S'2010'
p3304
sg8
g3301
sg9
S'neg train data can harm text classif'
p3305
ssS'D10-1025'
p3306
(dp3307
g4
S'Translingual Document Representations from Discriminative Projections'
p3308
sg6
S'2010'
p3309
sg8
g3306
sg9
S'translingu document represent discrimin project'
p3310
ssS'D10-1024'
p3311
(dp3312
g4
S'Evaluating Models of Latent Document Semantics in the Presence of OCR Errors'
p3313
sg6
S'2010'
p3314
sg8
g3311
sg9
S'evalu model latent document semant presenc ocr error'
p3315
ssS'D10-1027'
p3316
(dp3317
g4
S'Efficient Incremental Decoding for Tree-to-String Translation'
p3318
sg6
S'2010'
p3319
sg8
g3316
sg9
S'effici increment decod tree string translat'
p3320
ssS'D10-1026'
p3321
(dp3322
g4
S'Storing the Web in Memory: Space Efficient Language Models with Constant Time Retrieval'
p3323
sg6
S'2010'
p3324
sg8
g3321
sg9
S'store web memori space effici languag model constant time retriev'
p3325
ssS'D10-1029'
p3326
(dp3327
g4
S'Predicting the Semantic Compositionality of Prefix Verbs'
p3328
sg6
S'2010'
p3329
sg8
g3326
sg9
S'predict semant composition prefix verb'
p3330
ssS'D10-1028'
p3331
(dp3332
g4
S'Modeling Perspective Using Adaptor Grammars'
p3333
sg6
S'2010'
p3334
sg8
g3331
sg9
S'model perspect us adaptor grammar'
p3335
ssS'W10-0704'
p3336
(dp3337
g4
S'Semi-supervised Word Alignment with Mechanical Turk'
p3338
sg6
S'2010'
p3339
sg8
g3336
sg9
S'semi supervis word align mechan turk'
p3340
ssS'S10-1045'
p3341
(dp3342
g4
S'JU: A Supervised Approach to Identify Semantic Relations from Paired Nominals'
p3343
sg6
S'2010'
p3344
sg8
g3341
sg9
S'ju supervis approach identifi semant relat pair nomin'
p3345
ssS'C10-1081'
p3346
(dp3347
g4
S'Semantic Role Features for Machine Translation'
p3348
sg6
S'2010'
p3349
sg8
g3346
sg9
S'semant role featur machin translat'
p3350
ssS'C10-1086'
p3351
(dp3352
g4
S'Controlling Listening-oriented Dialogue using Partially Observable Markov Decision Processes'
p3353
sg6
S'2010'
p3354
sg8
g3351
sg9
S'control listen orient dialogu us partial observ markov decis process'
p3355
ssS'C10-1087'
p3356
(dp3357
g4
S'Recognising Entailment within Discourse'
p3358
sg6
S'2010'
p3359
sg8
g3356
sg9
S'recognis entail within discours'
p3360
ssS'D11-1112'
p3361
(dp3362
g4
S'Computation of Infix Probabilities for Probabilistic Context-Free Grammars'
p3363
sg6
S'2011'
p3364
sg8
g3361
sg9
S'comput infix probabl probabilist context free grammar'
p3365
ssS'D11-1113'
p3366
(dp3367
g4
S'Parse Correction with Specialized Models for Difficult Attachment Types'
p3368
sg6
S'2011'
p3369
sg8
g3366
sg9
S'pars correct special model difficult attach type'
p3370
ssS'D11-1110'
p3371
(dp3372
g4
S'Relaxed Cross-lingual Projection of Constituent Syntax'
p3373
sg6
S'2011'
p3374
sg8
g3371
sg9
S'relax cross lingual project constitu syntax'
p3375
ssS'D11-1111'
p3376
(dp3377
g4
S'Computing Logical Form on Regulatory Texts'
p3378
sg6
S'2011'
p3379
sg8
g3376
sg9
S'comput logic form regulatori text'
p3380
ssS'D11-1116'
p3381
(dp3382
g4
S'A Fast, Accurate, Non-Projective, Semantically-Enriched Parser'
p3383
sg6
S'2011'
p3384
sg8
g3381
sg9
S'fast accur non project semant enrich parser'
p3385
ssS'D11-1117'
p3386
(dp3387
g4
S'Lateen EM: Unsupervised Training with Multiple Objectives, Applied to Dependency Grammar Induction'
p3388
sg6
S'2011'
p3389
sg8
g3386
sg9
S'lateen em unsupervis train multipl object appli depend grammar induct'
p3390
ssS'D11-1114'
p3391
(dp3392
g4
S'Exact Inference for Generative Probabilistic Non-Projective Dependency Parsing'
p3393
sg6
S'2011'
p3394
sg8
g3391
sg9
S'exact infer gener probabilist non project depend pars'
p3395
ssS'D11-1115'
p3396
(dp3397
g4
S'Semi-supervised CCG Lexicon Extension'
p3398
sg6
S'2011'
p3399
sg8
g3396
sg9
S'semi supervis ccg lexicon extens'
p3400
ssS'D11-1118'
p3401
(dp3402
g4
S'Unsupervised Dependency Parsing without Gold Part-of-Speech Tags'
p3403
sg6
S'2011'
p3404
sg8
g3401
sg9
S'unsupervis depend pars without gold part speech tag'
p3405
ssS'D11-1119'
p3406
(dp3407
g4
S'Exploiting Syntactic and Distributional Information for Spelling Correction with Web-Scale N-gram Models'
p3408
sg6
S'2011'
p3409
sg8
g3406
sg9
S'exploit syntact distribut inform spell correct web scale n gram model'
p3410
ssS'S10-1042'
p3411
(dp3412
g4
S'UvT: The UvT Term Extraction System in the Keyphrase Extraction Task'
p3413
sg6
S'2010'
p3414
sg8
g3411
sg9
S'uvt uvt term extract system keyphras extract task'
p3415
ssS'C10-1109'
p3416
(dp3417
g4
S'A Multiple-Domain Ontology Builder'
p3418
sg6
S'2010'
p3419
sg8
g3416
sg9
S'multipl domain ontolog builder'
p3420
ssS'C10-1108'
p3421
(dp3422
g4
S'Computing EM-based Alignments of Routes and Route Directions as a Basis for Natural Language Generation'
p3423
sg6
S'2010'
p3424
sg8
g3421
sg9
S'comput em base align rout rout direct basi natur languag gener'
p3425
ssS'C10-3008'
p3426
(dp3427
g4
S'HCAMiner: Mining Concept Associations for Knowledge Discovery through Concept Chain Queries'
p3428
sg6
S'2010'
p3429
sg8
g3426
sg9
S'hcamin mine concept associ knowledg discoveri concept chain queri'
p3430
ssS'C10-3009'
p3431
(dp3432
g4
S'A High-Performance Syntactic and Semantic Dependency Parser'
p3433
sg6
S'2010'
p3434
sg8
g3431
sg9
S'high perform syntact semant depend parser'
p3435
ssS'C10-1103'
p3436
(dp3437
g4
S'The Bag-of-Opinions Method for Review Rating Prediction from Sparse Text Patterns'
p3438
sg6
S'2010'
p3439
sg8
g3436
sg9
S'bag opinion method review rate predict spars text pattern'
p3440
ssS'C10-1102'
p3441
(dp3442
g4
S'2D Trie for Fast Parsing'
p3443
sg6
S'2010'
p3444
sg8
g3441
sg9
S'2d trie fast pars'
p3445
ssS'C10-1101'
p3446
(dp3447
g4
S'Citation Summarization Through Keyphrase Extraction'
p3448
sg6
S'2010'
p3449
sg8
g3446
sg9
S'citat summar keyphras extract'
p3450
ssS'C10-1100'
p3451
(dp3452
g4
S'Using Web-scale N-grams to Improve Base NP Parsing Performance'
p3453
sg6
S'2010'
p3454
sg8
g3451
sg9
S'us web scale n gram improv base np pars perform'
p3455
ssS'C10-1107'
p3456
(dp3457
g4
S'Bringing Active Learning to Life'
p3458
sg6
S'2010'
p3459
sg8
g3456
sg9
S'bring activ learn life'
p3460
ssS'C10-1106'
p3461
(dp3462
g4
S'Fast, Greedy Model Minimization for Unsupervised Tagging'
p3463
sg6
S'2010'
p3464
sg8
g3461
sg9
S'fast greedi model minim unsupervis tag'
p3465
ssS'C10-1105'
p3466
(dp3467
g4
S'Inducing Fine-Grained Semantic Classes via Hierarchical and Collective Classification'
p3468
sg6
S'2010'
p3469
sg8
g3466
sg9
S'induc fine grain semant class via hierarch collect classif'
p3470
ssS'C10-1104'
p3471
(dp3472
g4
S'An Exploration of Features for Recognizing Word Emotion'
p3473
sg6
S'2010'
p3474
sg8
g3471
sg9
S'explor featur recogn word emot'
p3475
ssS'C10-2061'
p3476
(dp3477
g4
S'Identifying Contradictory and Contrastive Relations between Statements to Outline Web Information on a Given Topic'
p3478
sg6
S'2010'
p3479
sg8
g3476
sg9
S'identifi contradictori contrast relat statement outlin web inform given topic'
p3480
ssS'C10-2060'
p3481
(dp3482
g4
S'A Comparative Study on Ranking and Selection Strategies for Multi-Document Summarization'
p3483
sg6
S'2010'
p3484
sg8
g3481
sg9
S'compar studi rank select strategi multi document summar'
p3485
ssS'C10-2063'
p3486
(dp3487
g4
S'Local Space-Time Smoothing for Version Controlled Documents'
p3488
sg6
S'2010'
p3489
sg8
g3486
sg9
S'local space time smooth version control document'
p3490
ssS'C10-2062'
p3491
(dp3492
g4
S'Generative Alignment and Semantic Parsing for Learning from Ambiguous Supervision'
p3493
sg6
S'2010'
p3494
sg8
g3491
sg9
S'gener align semant pars learn ambigu supervis'
p3495
ssS'C10-2065'
p3496
(dp3497
g4
S'Using Syntactic and Semantic based Relations for Dialogue Act Recognition'
p3498
sg6
S'2010'
p3499
sg8
g3496
sg9
S'us syntact semant base relat dialogu act recognit'
p3500
ssS'C10-1046'
p3501
(dp3502
g4
S'Paraphrase Alignment for Synonym Evidence Discovery'
p3503
sg6
S'2010'
p3504
sg8
g3501
sg9
S'paraphras align synonym evid discoveri'
p3505
ssS'C10-2067'
p3506
(dp3507
g4
S'DL Meet FL: A Bidirectional Mapping between Ontologies and Linguistic Knowledge'
p3508
sg6
S'2010'
p3509
sg8
g3506
sg9
S'dl meet fl bidirect map ontolog linguist knowledg'
p3510
ssS'C10-2066'
p3511
(dp3512
g4
S'Automatic Allocation of Training Data for Rapid Prototyping of Speech Understanding based on Multiple Model Combination'
p3513
sg6
S'2010'
p3514
sg8
g3511
sg9
S'automat alloc train data rapid prototyp speech understand base multipl model combin'
p3515
ssS'C10-2069'
p3516
(dp3517
g4
S'Best Topic Word Selection for Topic Labelling'
p3518
sg6
S'2010'
p3519
sg8
g3516
sg9
S'best topic word select topic label'
p3520
ssS'C10-2068'
p3521
(dp3522
g4
S'Generating Simulated Relevance Feedback: A Prognostic Search approach'
p3523
sg6
S'2010'
p3524
sg8
g3521
sg9
S'gener simul relev feedback prognost search approach'
p3525
ssS'S10-1043'
p3526
(dp3527
g4
S'UNITN: Part-Of-Speech Counting in Relation Extraction'
p3528
sg6
S'2010'
p3529
sg8
g3526
sg9
S'unitn part speech count relat extract'
p3530
ssS'W10-0701'
p3531
(dp3532
g4
S'Creating Speech and Language Data With Amazon&rsquo;s Mechanical Turk'
p3533
sg6
S'2010'
p3534
sg8
g3531
sg9
S'creat speech languag data amazon rsquo s mechan turk'
p3535
ssS'W10-0734'
p3536
(dp3537
g4
S'Creating a Bi-lingual Entailment Corpus through Translations with Mechanical Turk: $100 for a 10-day Rush'
p3538
sg6
S'2010'
p3539
sg8
g3536
sg9
S'creat bi lingual entail corpu translat mechan turk 100 10 dai rush'
p3540
ssS'D11-1053'
p3541
(dp3542
g4
S'Personalized Recommendation of User Comments via Factor Models'
p3543
sg6
S'2011'
p3544
sg8
g3541
sg9
S'person recommend user comment via factor model'
p3545
ssS'D11-1052'
p3546
(dp3547
g4
S'Cooooooooooooooollllllllllllll!!!!!!!!!!!!!! Using Word Lengthening to Detect Sentiment in Microblogs'
p3548
sg6
S'2011'
p3549
sg8
g3546
sg9
S'cooooooooooooooollllllllllllll us word lengthen detect sentiment microblog'
p3550
ssS'D11-1051'
p3551
(dp3552
g4
S'Semantic Topic Models: Combining Word Distributional Statistics and Dictionary Definitions'
p3553
sg6
S'2011'
p3554
sg8
g3551
sg9
S'semant topic model combin word distribut statist dictionari definit'
p3555
ssS'D11-1050'
p3556
(dp3557
g4
S'Exploring Supervised LDA Models for Assigning Attributes to Adjective-Noun Phrases'
p3558
sg6
S'2011'
p3559
sg8
g3556
sg9
S'explor supervis lda model assign attribut adject noun phrase'
p3560
ssS'C10-1034'
p3561
(dp3562
g4
S'An Empirical Study on Learning to Rank of Tweets'
p3563
sg6
S'2010'
p3564
sg8
g3561
sg9
S'empir studi learn rank tweet'
p3565
ssS'S10-1091'
p3566
(dp3567
g4
S'HIT-CIR: An Unsupervised WSD System Based on Domain Most Frequent Sense Estimation'
p3568
sg6
S'2010'
p3569
sg8
g3566
sg9
S'hit cir unsupervis wsd system base domain frequent sens estim'
p3570
ssS'D11-1055'
p3571
(dp3572
g4
S"Predicting a Scientific Community's Response to an Article"
p3573
sg6
S'2011'
p3574
sg8
g3571
sg9
S'predict scientif commun s respons articl'
p3575
ssS'S10-1040'
p3576
(dp3577
g4
S'SZTERGAK : Feature Engineering for Keyphrase Extraction'
p3578
sg6
S'2010'
p3579
sg8
g3576
sg9
S'sztergak featur engin keyphras extract'
p3580
ssS'D11-1057'
p3581
(dp3582
g4
S'Discovering Morphological Paradigms from Plain Text Using a Dirichlet Process Mixture Model'
p3583
sg6
S'2011'
p3584
sg8
g3581
sg9
S'discov morpholog paradigm plain text us dirichlet process mixtur model'
p3585
ssS'D11-1056'
p3586
(dp3587
g4
S'Non-parametric Bayesian Segmentation of Japanese Noun Phrases'
p3588
sg6
S'2011'
p3589
sg8
g3586
sg9
S'non parametr bayesian segment japanes noun phrase'
p3590
ssS'D11-1066'
p3591
(dp3592
g4
S'Using Syntactic and Semantic Structural Kernels for Classifying Definition Questions in Jeopardy!'
p3593
sg6
S'2011'
p3594
sg8
g3591
sg9
S'us syntact semant structur kernel classifi definit question jeopardi'
p3595
ssS'D11-1067'
p3596
(dp3597
g4
S'Multiword Expression Identification with Tree Substitution Grammars: A Parsing tour de force with French'
p3598
sg6
S'2011'
p3599
sg8
g3596
sg9
S'multiword express identif tree substitut grammar pars tour de forc french'
p3600
ssS'D11-1064'
p3601
(dp3602
g4
S'Syntactic Decision Tree LMs: Random Selection or Intelligent Design?'
p3603
sg6
S'2011'
p3604
sg8
g3601
sg9
S'syntact decis tree lm random select intellig design'
p3605
ssS'D11-1065'
p3606
(dp3607
g4
S'The Imagination of Crowds: Conversational AAC Language Modeling using Crowdsourcing and Large Data Sources'
p3608
sg6
S'2011'
p3609
sg8
g3606
sg9
S'imagin crowd convers aac languag model us crowdsourc larg data sourc'
p3610
ssS'D11-1062'
p3611
(dp3612
g4
S'Divide and Conquer: Crowdsourcing the Creation of Cross-Lingual Textual Entailment Corpora'
p3613
sg6
S'2011'
p3614
sg8
g3611
sg9
S'divid conquer crowdsourc creation cross lingual textual entail corpora'
p3615
ssS'D11-1063'
p3616
(dp3617
g4
S'Literal and Metaphorical Sense Identification through Concrete and Abstract Context'
p3618
sg6
S'2011'
p3619
sg8
g3616
sg9
S'liter metaphor sens identif concret abstract context'
p3620
ssS'D11-1060'
p3621
(dp3622
g4
S'Large-Scale Noun Compound Interpretation Using Bootstrapping and the Web as a Corpus'
p3623
sg6
S'2011'
p3624
sg8
g3621
sg9
S'larg scale noun compound interpret us bootstrap web corpu'
p3625
ssS'D11-1061'
p3626
(dp3627
g4
S'Linguistic Redundancy in Twitter'
p3628
sg6
S'2011'
p3629
sg8
g3626
sg9
S'linguist redund twitter'
p3630
ssS'D11-1054'
p3631
(dp3632
g4
S'Data-Driven Response Generation in Social Media'
p3633
sg6
S'2011'
p3634
sg8
g3631
sg9
S'data driven respons gener social media'
p3635
ssS'D10-1119'
p3636
(dp3637
g4
S'Inducing Probabilistic CCG Grammars from Logical Form with Higher-Order Unification'
p3638
sg6
S'2010'
p3639
sg8
g3636
sg9
S'induc probabilist ccg grammar logic form higher order unif'
p3640
ssS'D10-1118'
p3641
(dp3642
g4
S'It Depends on the Translation: Unsupervised Dependency Parsing via Word Alignment'
p3643
sg6
S'2010'
p3644
sg8
g3641
sg9
S'depend translat unsupervis depend pars via word align'
p3645
ssS'D11-1068'
p3646
(dp3647
g4
S'Modelling Discourse Relations for Arabic'
p3648
sg6
S'2011'
p3649
sg8
g3646
sg9
S'model discours relat arab'
p3650
ssS'D11-1069'
p3651
(dp3652
g4
S'Classifying Sentences as Speech Acts in Message Board Posts'
p3653
sg6
S'2011'
p3654
sg8
g3651
sg9
S'classifi sentenc speech act messag board post'
p3655
ssS'C10-1044'
p3656
(dp3657
g4
S'Comparing Language Similarity across Genetic and Typologically-Based Groupings'
p3658
sg6
S'2010'
p3659
sg8
g3656
sg9
S'compar languag similar across genet typolog base group'
p3660
ssS'S10-1090'
p3661
(dp3662
g4
S'GPLSI-IXA: Using Semantic Classes to Acquire Monosemous Training Examples from Domain Texts'
p3663
sg6
S'2010'
p3664
sg8
g3661
sg9
S'gplsi ixa us semant class acquir monosem train exampl domain text'
p3665
ssS'S10-1041'
p3666
(dp3667
g4
S'KP-Miner: Participation in SemEval-2'
p3668
sg6
S'2010'
p3669
sg8
g3666
sg9
S'kp miner particip semev 2'
p3670
ssS'C10-1028'
p3671
(dp3672
g4
S'Automated Translation of Semantic Relationships'
p3673
sg6
S'2010'
p3674
sg8
g3671
sg9
S'autom translat semant relationship'
p3675
ssS'D11-1059'
p3676
(dp3677
g4
S'A Bayesian Mixture Model for PoS Induction Using Multiple Features'
p3678
sg6
S'2011'
p3679
sg8
g3676
sg9
S'bayesian mixtur model po induct us multipl featur'
p3680
ssS'C10-1029'
p3681
(dp3682
g4
S'Comparison of different algebras for inducing the temporal structure of texts'
p3683
sg6
S'2010'
p3684
sg8
g3681
sg9
S'comparison differ algebra induc tempor structur text'
p3685
ssS'D10-1109'
p3686
(dp3687
g4
S'Function-Based Question Classification for General QA'
p3688
sg6
S'2010'
p3689
sg8
g3686
sg9
S'function base question classif gener qa'
p3690
ssS'C10-2166'
p3691
(dp3692
g4
S'Discriminant Ranking for Efficient Treebanking'
p3693
sg6
S'2010'
p3694
sg8
g3691
sg9
S'discrimin rank effici treebank'
p3695
ssS'C10-1045'
p3696
(dp3697
g4
S'Better Arabic Parsing: Baselines, Evaluations, and Analysis'
p3698
sg6
S'2010'
p3699
sg8
g3696
sg9
S'better arab pars baselin evalu analysi'
p3700
ssS'W10-0405'
p3701
(dp3702
g4
S'A Toolkit to Assist L2 Learners Become Independent Writers'
p3703
sg6
S'2010'
p3704
sg8
g3701
sg9
S'toolkit assist l2 learner becom independ writer'
p3705
ssS'C10-1024'
p3706
(dp3707
g4
S'Simplicity is Better: Revisiting Single Kernel PPI Extraction'
p3708
sg6
S'2010'
p3709
sg8
g3706
sg9
S'simplic better revisit singl kernel ppi extract'
p3710
ssS'W10-0407'
p3711
(dp3712
g4
S'Questions Worth Asking: Intersections between Writing Research and Computational Linguistics'
p3713
sg6
S'2010'
p3714
sg8
g3711
sg9
S'question worth ask intersect write research comput linguist'
p3715
ssS'W10-0406'
p3716
(dp3717
g4
S'Learning Simple Wikipedia: A Cogitation in Ascertaining Abecedarian Language'
p3718
sg6
S'2010'
p3719
sg8
g3716
sg9
S'learn simpl wikipedia cogit ascertain abecedarian languag'
p3720
ssS'W10-0401'
p3721
(dp3722
g4
S'Computational Linguistics in the Translator&rsquo;s Workflow&#x2014;Combining Authoring Tools and Translation Memory Systems'
p3723
sg6
S'2010'
p3724
sg8
g3721
sg9
S'comput linguist translat rsquo s workflow x2014 combin author tool translat memori system'
p3725
ssS'W10-0403'
p3726
(dp3727
g4
S'Grammaticality Judgement in a Word Completion Task'
p3728
sg6
S'2010'
p3729
sg8
g3726
sg9
S'grammat judgement word complet task'
p3730
ssS'C10-1025'
p3731
(dp3732
g4
S'An ontology-driven system for detecting global health events'
p3733
sg6
S'2010'
p3734
sg8
g3731
sg9
S'ontolog driven system detect global health event'
p3735
ssS'S10-1100'
p3736
(dp3737
g4
S'HITSZ_CITYU: Combine Collocation, Context Words and Neighboring Sentence Sentiment in Sentiment Adjectives Disambiguation'
p3738
sg6
S'2010'
p3739
sg8
g3736
sg9
S'hitsz cityu combin colloc context word neighbor sentenc sentiment sentiment adject disambigu'
p3740
ssS'W10-0409'
p3741
(dp3742
g4
S'The Linguistics of Readability: The Next Step for Word Processing'
p3743
sg6
S'2010'
p3744
sg8
g3741
sg9
S'linguist readabl next step word process'
p3745
ssS'C10-1026'
p3746
(dp3747
g4
S'Constraining robust constructions for broad-coverage parsing with precision grammars'
p3748
sg6
S'2010'
p3749
sg8
g3746
sg9
S'constrain robust construct broad coverag pars precis grammar'
p3750
ssS'C10-1027'
p3751
(dp3752
g4
S'Local lexical adaptation in Machine Translation through triangulation: SMT helping SMT'
p3753
sg6
S'2010'
p3754
sg8
g3751
sg9
S'local lexic adapt machin translat triangul smt help smt'
p3755
ssS'C10-1126'
p3756
(dp3757
g4
S'Syntax Based Reordering with Automatically Derived Rules for Improved Statistical Machine Translation'
p3758
sg6
S'2010'
p3759
sg8
g3756
sg9
S'syntax base reorder automat deriv rule improv statist machin translat'
p3760
ssS'C10-1042'
p3761
(dp3762
g4
S'RTG based surface realisation for TAG'
p3763
sg6
S'2010'
p3764
sg8
g3761
sg9
S'rtg base surfac realis tag'
p3765
ssS'C10-1021'
p3766
(dp3767
g4
S'Emotion Cause Detection with Linguistic Constructions'
p3768
sg6
S'2010'
p3769
sg8
g3766
sg9
S'emot caus detect linguist construct'
p3770
ssS'S10-1092'
p3771
(dp3772
g4
S'RACAI: Unsupervised WSD Experiments @ SemEval-2, Task 17'
p3773
sg6
S'2010'
p3774
sg8
g3771
sg9
S'racai unsupervis wsd experi semev 2 task 17'
p3775
ssS'C10-1022'
p3776
(dp3777
g4
S'A Twin-Candidate Based Approach for Event Pronoun Resolution using Composite Kernel'
p3778
sg6
S'2010'
p3779
sg8
g3776
sg9
S'twin candid base approach event pronoun resolut us composit kernel'
p3780
ssS'C10-1023'
p3781
(dp3782
g4
S'Unsupervised Synthesis of Multilingual Wikipedia Articles'
p3783
sg6
S'2010'
p3784
sg8
g3781
sg9
S'unsupervis synthesi multilingu wikipedia articl'
p3785
ssS'W10-0607'
p3786
(dp3787
g4
S'An Investigation on Polysemy and Lexical Organization of Verbs'
p3788
sg6
S'2010'
p3789
sg8
g3786
sg9
S'investig polysemi lexic organ verb'
p3790
ssS'W10-0901'
p3791
(dp3792
g4
S'Machine Reading as a Process of Partial Question-Answering'
p3793
sg6
S'2010'
p3794
sg8
g3791
sg9
S'machin read process partial question answer'
p3795
ssS'W10-0606'
p3796
(dp3797
g4
S'Hemispheric processing of Chinese polysemy in the disyllabic verb/ noun compounds: an event-related potential study'
p3798
sg6
S'2010'
p3799
sg8
g3796
sg9
S'hemispher process chines polysemi disyllab verb noun compound event relat potenti studi'
p3800
ssS'C10-1043'
p3801
(dp3802
g4
S'Automatically Learning Source-side Reordering Rules for Large Scale Machine Translation'
p3803
sg6
S'2010'
p3804
sg8
g3801
sg9
S'automat learn sourc side reorder rule larg scale machin translat'
p3805
ssS'W10-0605'
p3806
(dp3807
g4
S'Detecting Semantic Category in Simultaneous EEG/MEG Recordings'
p3808
sg6
S'2010'
p3809
sg8
g3806
sg9
S'detect semant categori simultan eeg meg record'
p3810
ssS'S10-1069'
p3811
(dp3812
g4
S'SCHWA: PETE Using CCG Dependencies with the C&#x26;C Parser'
p3813
sg6
S'2010'
p3814
sg8
g3811
sg9
S'schwa pete us ccg depend c x26 c parser'
p3815
ssS'S10-1054'
p3816
(dp3817
g4
S'UBA: Using Automatic Translation and Wikipedia for Cross-Lingual Lexical Substitution'
p3818
sg6
S'2010'
p3819
sg8
g3816
sg9
S'uba us automat translat wikipedia cross lingual lexic substitut'
p3820
ssS'W10-0603'
p3821
(dp3822
g4
S'WordNet Based Features for Predicting Brain Activity associated with meanings of nouns'
p3823
sg6
S'2010'
p3824
sg8
g3821
sg9
S'wordnet base featur predict brain activ associ mean noun'
p3825
ssS'W11-2214'
p3826
(dp3827
g4
S'Measuring the Impact of Sense Similarity on Word Sense Induction'
p3828
sg6
S'2011'
p3829
sg8
g3826
sg9
S'measur impact sens similar word sens induct'
p3830
ssS'W11-2211'
p3831
(dp3832
g4
S'Lightly-Supervised Training for Hierarchical Phrase-Based Machine Translation'
p3833
sg6
S'2011'
p3834
sg8
g3831
sg9
S'lightli supervis train hierarch phrase base machin translat'
p3835
ssS'W11-2210'
p3836
(dp3837
g4
S'Unsupervised Mining of Lexical Variants from Noisy Text'
p3838
sg6
S'2011'
p3839
sg8
g3836
sg9
S'unsupervis mine lexic variant noisi text'
p3840
ssS'W11-2213'
p3841
(dp3842
g4
S'Unsupervised Name Ambiguity Resolution Using A Generative Model'
p3843
sg6
S'2011'
p3844
sg8
g3841
sg9
S'unsupervis name ambigu resolut us gener model'
p3845
ssS'W11-2212'
p3846
(dp3847
g4
S'Unsupervised Alignment for Segmental-based Language Understanding'
p3848
sg6
S'2011'
p3849
sg8
g3846
sg9
S'unsupervis align segment base languag understand'
p3850
ssS'D10-1069'
p3851
(dp3852
g4
S'Uptraining for Accurate Deterministic Question Parsing'
p3853
sg6
S'2010'
p3854
sg8
g3851
sg9
S'uptrain accur determinist question pars'
p3855
ssS'D10-1068'
p3856
(dp3857
g4
S'Unsupervised Parse Selection for HPSG'
p3858
sg6
S'2010'
p3859
sg8
g3856
sg9
S'unsupervis pars select hpsg'
p3860
ssS'C10-1014'
p3861
(dp3862
g4
S'Measuring the Non-compositionality of Multiword Expressions'
p3863
sg6
S'2010'
p3864
sg8
g3861
sg9
S'measur non composition multiword express'
p3865
ssS'D10-1065'
p3866
(dp3867
g4
S'Combining Unsupervised and Supervised Alignments for MT: An Empirical Study'
p3868
sg6
S'2010'
p3869
sg8
g3866
sg9
S'combin unsupervis supervis align mt empir studi'
p3870
ssS'D10-1064'
p3871
(dp3872
g4
S'Example-Based Paraphrasing for Improved Phrase-Based Statistical Machine Translation'
p3873
sg6
S'2010'
p3874
sg8
g3871
sg9
S'exampl base paraphras improv phrase base statist machin translat'
p3875
ssS'D10-1067'
p3876
(dp3877
g4
S'Improved Fully Unsupervised Parsing with Zoomed Learning'
p3878
sg6
S'2010'
p3879
sg8
g3876
sg9
S'improv fulli unsupervis pars zoom learn'
p3880
ssS'D10-1066'
p3881
(dp3882
g4
S'Top-Down Nearly-Context-Sensitive Parsing'
p3883
sg6
S'2010'
p3884
sg8
g3881
sg9
S'top nearli context sensit pars'
p3885
ssS'D10-1061'
p3886
(dp3887
g4
S'Discriminative Sample Selection for Statistical Machine Translation'
p3888
sg6
S'2010'
p3889
sg8
g3886
sg9
S'discrimin sampl select statist machin translat'
p3890
ssS'D10-1060'
p3891
(dp3892
g4
S'Statistical Machine Translation with a Factorized Grammar'
p3893
sg6
S'2010'
p3894
sg8
g3891
sg9
S'statist machin translat factor grammar'
p3895
ssS'D10-1063'
p3896
(dp3897
g4
S'SCFG Decoding Without Binarization'
p3898
sg6
S'2010'
p3899
sg8
g3896
sg9
S'scfg decod without binar'
p3900
ssS'D10-1062'
p3901
(dp3902
g4
S'Effects of Empty Categories on Machine Translation'
p3903
sg6
S'2010'
p3904
sg8
g3901
sg9
S'effect empti categori machin translat'
p3905
ssS'C10-1016'
p3906
(dp3907
g4
S'Simultaneous Ranking and Clustering of Sentences: A Reinforcement Approach to Multi-Document Summarization'
p3908
sg6
S'2010'
p3909
sg8
g3906
sg9
S'simultan rank cluster sentenc reinforc approach multi document summar'
p3910
ssS'D11-1031'
p3911
(dp3912
g4
S'Training a Log-Linear Parser with Loss Functions via Softmax-Margin'
p3913
sg6
S'2011'
p3914
sg8
g3911
sg9
S'train log linear parser loss function via softmax margin'
p3915
ssS'W10-0903'
p3916
(dp3917
g4
S'Semantic Enrichment of Text with Background Knowledge'
p3918
sg6
S'2010'
p3919
sg8
g3916
sg9
S'semant enrich text background knowledg'
p3920
ssS'D11-1030'
p3921
(dp3922
g4
S'Universal Morphological Analysis using Structured Nearest Neighbor Prediction'
p3923
sg6
S'2011'
p3924
sg8
g3921
sg9
S'univers morpholog analysi us structur nearest neighbor predict'
p3925
ssS'C10-2143'
p3926
(dp3927
g4
S'A Comparison of Models for Cost-Sensitive Active Learning'
p3928
sg6
S'2010'
p3929
sg8
g3926
sg9
S'comparison model cost sensit activ learn'
p3930
ssS'C10-1013'
p3931
(dp3932
g4
S'Towards an optimal weighting of context words based on distance'
p3933
sg6
S'2010'
p3934
sg8
g3931
sg9
S'toward optim weight context word base distanc'
p3935
ssS'S10-1039'
p3936
(dp3937
g4
S'SEERLAB: A System for Extracting Keyphrases from Scholarly Documents'
p3938
sg6
S'2010'
p3939
sg8
g3936
sg9
S'seerlab system extract keyphras scholarli document'
p3940
ssS'C10-1041'
p3941
(dp3942
g4
S'A Large Scale Ranker-Based System for Search Query Spelling Correction'
p3943
sg6
S'2010'
p3944
sg8
g3941
sg9
S'larg scale ranker base system search queri spell correct'
p3945
ssS'S10-1037'
p3946
(dp3947
g4
S'BUAP: An Unsupervised Approach to Automatic Keyphrase Extraction from Scientific Articles'
p3948
sg6
S'2010'
p3949
sg8
g3946
sg9
S'buap unsupervis approach automat keyphras extract scientif articl'
p3950
ssS'S10-1036'
p3951
(dp3952
g4
S'KX: A Flexible System for Keyphrase eXtraction'
p3953
sg6
S'2010'
p3954
sg8
g3951
sg9
S'kx flexibl system keyphras extract'
p3955
ssS'S10-1035'
p3956
(dp3957
g4
S'WINGNUS: Keyphrase Extraction Utilizing Document Logical Structure'
p3958
sg6
S'2010'
p3959
sg8
g3956
sg9
S'wingnu keyphras extract util document logic structur'
p3960
ssS'C10-1012'
p3961
(dp3962
g4
S'Broad Coverage Multilingual Deep Sentence Generation with a Stochastic Multi-Level Realizer'
p3963
sg6
S'2010'
p3964
sg8
g3961
sg9
S'broad coverag multilingu deep sentenc gener stochast multi level realiz'
p3965
ssS'S10-1033'
p3966
(dp3967
g4
S'SJTULTLAB: Chunk Based Method for Keyphrase Extraction'
p3968
sg6
S'2010'
p3969
sg8
g3966
sg9
S'sjtultlab chunk base method keyphras extract'
p3970
ssS'S10-1032'
p3971
(dp3972
g4
S'Single Document Keyphrase Extraction Using Sentence Clustering and Latent Dirichlet Allocation'
p3973
sg6
S'2010'
p3974
sg8
g3971
sg9
S'singl document keyphras extract us sentenc cluster latent dirichlet alloc'
p3975
ssS'S10-1031'
p3976
(dp3977
g4
S'DFKI KeyWE: Ranking Keyphrases Extracted from Scientific Articles'
p3978
sg6
S'2010'
p3979
sg8
g3976
sg9
S'dfki keyw rank keyphras extract scientif articl'
p3980
ssS'S10-1030'
p3981
(dp3982
g4
S'DERIUNLP: A Context Based Approach to Automatic Keyphrase Extraction'
p3983
sg6
S'2010'
p3984
sg8
g3981
sg9
S'deriunlp context base approach automat keyphras extract'
p3985
ssS'S10-1095'
p3986
(dp3987
g4
S'UMCC-DLSI: Integrative Resource for Disambiguation Task'
p3988
sg6
S'2010'
p3989
sg8
g3986
sg9
S'umcc dlsi integr resourc disambigu task'
p3990
ssS'W11-2138'
p3991
(dp3992
g4
S'Improving Translation Model by Monolingual Data'
p3993
sg6
S'2011'
p3994
sg8
g3991
sg9
S'improv translat model monolingu data'
p3995
ssS'W11-2139'
p3996
(dp3997
g4
S'The CMU-ARK German-English Translation System'
p3998
sg6
S'2011'
p3999
sg8
g3996
sg9
S'cmu ark german english translat system'
p4000
ssS'S10-1094'
p4001
(dp4002
g4
S'CFILT: Resource Conscious Approaches for All-Words Domain Specific WSD'
p4003
sg6
S'2010'
p4004
sg8
g4001
sg9
S'cfilt resourc consciou approach word domain specif wsd'
p4005
ssS'W11-2134'
p4006
(dp4007
g4
S'Personal Translator at WMT2011'
p4008
sg6
S'2011'
p4009
sg8
g4006
sg9
S'person translat wmt2011'
p4010
ssS'W11-2135'
p4011
(dp4012
g4
S'LIMSI @ WMT11'
p4013
sg6
S'2011'
p4014
sg8
g4011
sg9
S'limsi wmt11'
p4015
ssS'W11-2136'
p4016
(dp4017
g4
S'Shallow Semantic Trees for SMT'
p4018
sg6
S'2011'
p4019
sg8
g4016
sg9
S'shallow semant tree smt'
p4020
ssS'W11-2137'
p4021
(dp4022
g4
S'RegMT System for Machine Translation, System Combination, and Evaluation'
p4023
sg6
S'2011'
p4024
sg8
g4021
sg9
S'regmt system machin translat system combin evalu'
p4025
ssS'W11-2130'
p4026
(dp4027
g4
S'SampleRank Training for Phrase-Based Machine Translation'
p4028
sg6
S'2011'
p4029
sg8
g4026
sg9
S'samplerank train phrase base machin translat'
p4030
ssS'W11-2131'
p4031
(dp4032
g4
S'Instance Selection for Machine Translation using Feature Decay Algorithms'
p4033
sg6
S'2011'
p4034
sg8
g4031
sg9
S'instanc select machin translat us featur decai algorithm'
p4035
ssS'W11-2132'
p4036
(dp4037
g4
S'Investigations on Translation Model Adaptation Using Monolingual Data'
p4038
sg6
S'2011'
p4039
sg8
g4036
sg9
S'investig translat model adapt us monolingu data'
p4040
ssS'W11-2133'
p4041
(dp4042
g4
S'Topic Adaptation for Lecture Translation through Bilingual Latent Semantic Models'
p4043
sg6
S'2011'
p4044
sg8
g4041
sg9
S'topic adapt lectur translat bilingu latent semant model'
p4045
ssS'C10-1147'
p4046
(dp4047
g4
S'Maximum Metric Score Training for Coreference Resolution'
p4048
sg6
S'2010'
p4049
sg8
g4046
sg9
S'maximum metric score train corefer resolut'
p4050
ssS'C10-1146'
p4051
(dp4052
g4
S'A Rhetorical Syntax-Driven Model for Speech Summarization'
p4053
sg6
S'2010'
p4054
sg8
g4051
sg9
S'rhetor syntax driven model speech summar'
p4055
ssS'C10-1145'
p4056
(dp4057
g4
S'Entity Linking Leveraging Automatically Generated Annotation'
p4058
sg6
S'2010'
p4059
sg8
g4056
sg9
S'entiti link leverag automat gener annot'
p4060
ssS'C10-1093'
p4061
(dp4062
g4
S'Automatic Discovery of Feature Sets for Dependency Parsing'
p4063
sg6
S'2010'
p4064
sg8
g4061
sg9
S'automat discoveri featur set depend pars'
p4065
ssS'C10-1143'
p4066
(dp4067
g4
S'Grouping Product Features Using Semi-Supervised Learning with Soft-Constraints'
p4068
sg6
S'2010'
p4069
sg8
g4066
sg9
S'group product featur us semi supervis learn soft constraint'
p4070
ssS'C10-1142'
p4071
(dp4072
g4
S'Estimating Linear Models for Compositional Distributional Semantics'
p4073
sg6
S'2010'
p4074
sg8
g4071
sg9
S'estim linear model composit distribut semant'
p4075
ssS'C10-1141'
p4076
(dp4077
g4
S'Discriminative Training for Near-Synonym Substitution'
p4078
sg6
S'2010'
p4079
sg8
g4076
sg9
S'discrimin train near synonym substitut'
p4080
ssS'C10-1140'
p4081
(dp4082
g4
S'Kernel Slicing: Scalable Online Training with Conjunctive Features'
p4083
sg6
S'2010'
p4084
sg8
g4081
sg9
S'kernel slice scalabl onlin train conjunct featur'
p4085
ssS'C10-2025'
p4086
(dp4087
g4
S'Hybrid Decoding: Decoding with Partial Hypotheses Combination over Multiple SMT Systems'
p4088
sg6
S'2010'
p4089
sg8
g4086
sg9
S'hybrid decod decod partial hypothes combin multipl smt system'
p4090
ssS'D11-1039'
p4091
(dp4092
g4
S'Bootstrapping Semantic Parsers from Conversations'
p4093
sg6
S'2011'
p4094
sg8
g4091
sg9
S'bootstrap semant parser convers'
p4095
ssS'C10-2027'
p4096
(dp4097
g4
S'Topic-Based Bengali Opinion Summarization'
p4098
sg6
S'2010'
p4099
sg8
g4096
sg9
S'topic base bengali opinion summar'
p4100
ssS'C10-2026'
p4101
(dp4102
g4
S'Global Ranking via Data Fusion'
p4103
sg6
S'2010'
p4104
sg8
g4101
sg9
S'global rank via data fusion'
p4105
ssS'C10-2021'
p4106
(dp4107
g4
S'Two Methods for Extending Hierarchical Rules from the Bilingual Chart Parsing'
p4108
sg6
S'2010'
p4109
sg8
g4106
sg9
S'two method extend hierarch rule bilingu chart pars'
p4110
ssS'C10-2020'
p4111
(dp4112
g4
S'Exploiting Paraphrases and Deferred Sense Commitment to Interpret Questions more Reliably'
p4113
sg6
S'2010'
p4114
sg8
g4111
sg9
S'exploit paraphras defer sens commit interpret question reliabl'
p4115
ssS'C10-1149'
p4116
(dp4117
g4
S'Leveraging Multiple MT Engines for Paraphrase Generation'
p4118
sg6
S'2010'
p4119
sg8
g4116
sg9
S'leverag multipl mt engin paraphras gener'
p4120
ssS'D11-1038'
p4121
(dp4122
g4
S'Learning to Simplify Sentences with Quasi-Synchronous Grammar and Integer Programming'
p4123
sg6
S'2011'
p4124
sg8
g4121
sg9
S'learn simplifi sentenc quasi synchron grammar integ program'
p4125
ssS'D10-1018'
p4126
(dp4127
g4
S'Better Punctuation Prediction with Dynamic Conditional Random Fields'
p4128
sg6
S'2010'
p4129
sg8
g4126
sg9
S'better punctuat predict dynam condit random field'
p4130
ssS'D10-1019'
p4131
(dp4132
g4
S'Joint Training and Decoding Using Virtual Nodes for Cascaded Segmentation and Tagging Tasks'
p4133
sg6
S'2010'
p4134
sg8
g4131
sg9
S'joint train decod us virtual node cascad segment tag task'
p4135
ssS'C10-2138'
p4136
(dp4137
g4
S'Utilizing Variability of Time and Term Content, within and across Users in Session Detection'
p4138
sg6
S'2010'
p4139
sg8
g4136
sg9
S'util variabl time term content within across user session detect'
p4140
ssS'S10-1093'
p4141
(dp4142
g4
S'Kyoto: An Integrated System for Specific Domain WSD'
p4143
sg6
S'2010'
p4144
sg8
g4141
sg9
S'kyoto integr system specif domain wsd'
p4145
ssS'D10-1010'
p4146
(dp4147
g4
S'Learning the Relative Usefulness of Questions in Community QA'
p4148
sg6
S'2010'
p4149
sg8
g4146
sg9
S'learn rel us question commun qa'
p4150
ssS'D10-1011'
p4151
(dp4152
g4
S'Positional Language Models for Clinical Information Retrieval'
p4153
sg6
S'2010'
p4154
sg8
g4151
sg9
S'posit languag model clinic inform retriev'
p4155
ssS'D10-1012'
p4156
(dp4157
g4
S'Inducing Word Senses to Improve Web Search Result Clustering'
p4158
sg6
S'2010'
p4159
sg8
g4156
sg9
S'induc word sens improv web search result cluster'
p4160
ssS'D10-1013'
p4161
(dp4162
g4
S'Improving Translation via Targeted Paraphrasing'
p4163
sg6
S'2010'
p4164
sg8
g4161
sg9
S'improv translat via target paraphras'
p4165
ssS'D10-1014'
p4166
(dp4167
g4
S'Soft Syntactic Constraints for Hierarchical Phrase-Based Translation Using Latent Syntactic Distributions'
p4168
sg6
S'2010'
p4169
sg8
g4166
sg9
S'soft syntact constraint hierarch phrase base translat us latent syntact distribut'
p4170
ssS'D10-1015'
p4171
(dp4172
g4
S'A Hybrid Morpheme-Word Representation for Machine Translation of Morphologically Rich Languages'
p4173
sg6
S'2010'
p4174
sg8
g4171
sg9
S'hybrid morphem word represent machin translat morpholog rich languag'
p4175
ssS'D10-1016'
p4176
(dp4177
g4
S'"Poetic" Statistical Machine Translation: Rhyme and Meter'
p4178
sg6
S'2010'
p4179
sg8
g4176
sg9
S'poetic statist machin translat rhyme meter'
p4180
ssS'D10-1017'
p4181
(dp4182
g4
S'Efficient Graph-Based Semi-Supervised Learning of Structured Tagging Models'
p4183
sg6
S'2010'
p4184
sg8
g4181
sg9
S'effici graph base semi supervis learn structur tag model'
p4185
ssS'C10-1092'
p4186
(dp4187
g4
S'Nonparametric Word Segmentation for Machine Translation'
p4188
sg6
S'2010'
p4189
sg8
g4186
sg9
S'nonparametr word segment machin translat'
p4190
ssS'W10-0905'
p4191
(dp4192
g4
S'Mining Script-Like Structures from the Web'
p4193
sg6
S'2010'
p4194
sg8
g4191
sg9
S'mine script like structur web'
p4195
ssS'W10-0601'
p4196
(dp4197
g4
S'Learning semantic features for fMRI data from definitional text'
p4198
sg6
S'2010'
p4199
sg8
g4196
sg9
S'learn semant featur fmri data definit text'
p4200
ssS'C10-3014'
p4201
(dp4202
g4
S'HowNet and Its Computation of Meaning'
p4203
sg6
S'2010'
p4204
sg8
g4201
sg9
S'hownet comput mean'
p4205
ssS'D11-1022'
p4206
(dp4207
g4
S'Dual Decomposition with Many Overlapping Components'
p4208
sg6
S'2011'
p4209
sg8
g4206
sg9
S'dual decomposit mani overlap compon'
p4210
ssS'D11-1023'
p4211
(dp4212
g4
S'Approximate Scalable Bounded Space Sketch for Large Data NLP'
p4213
sg6
S'2011'
p4214
sg8
g4211
sg9
S'approxim scalabl bound space sketch larg data nlp'
p4215
ssS'D11-1020'
p4216
(dp4217
g4
S'A novel dependency-to-string model for statistical machine translation'
p4218
sg6
S'2011'
p4219
sg8
g4216
sg9
S'novel depend string model statist machin translat'
p4220
ssS'D11-1021'
p4221
(dp4222
g4
S'Bayesian Checking for Topic Models'
p4223
sg6
S'2011'
p4224
sg8
g4221
sg9
S'bayesian check topic model'
p4225
ssS'D11-1026'
p4226
(dp4227
g4
S'Linear Text Segmentation Using Affinity Propagation'
p4228
sg6
S'2011'
p4229
sg8
g4226
sg9
S'linear text segment us affin propag'
p4230
ssS'D11-1027'
p4231
(dp4232
g4
S'Minimally Supervised Event Causality Identification'
p4233
sg6
S'2011'
p4234
sg8
g4231
sg9
S'minim supervis event causal identif'
p4235
ssS'D11-1024'
p4236
(dp4237
g4
S'Optimizing Semantic Coherence in Topic Models'
p4238
sg6
S'2011'
p4239
sg8
g4236
sg9
S'optim semant coher topic model'
p4240
ssS'D11-1025'
p4241
(dp4242
g4
S'A Weakly-supervised Approach to Argumentative Zoning of Scientific Documents'
p4243
sg6
S'2011'
p4244
sg8
g4241
sg9
S'weakli supervis approach argument zone scientif document'
p4245
ssS'D11-1141'
p4246
(dp4247
g4
S'Named Entity Recognition in Tweets: An Experimental Study'
p4248
sg6
S'2011'
p4249
sg8
g4246
sg9
S'name entiti recognit tweet experiment studi'
p4250
ssS'D11-1140'
p4251
(dp4252
g4
S'Lexical Generalization in CCG Grammar Induction for Semantic Parsing'
p4253
sg6
S'2011'
p4254
sg8
g4251
sg9
S'lexic gener ccg grammar induct semant pars'
p4255
ssS'D11-1143'
p4256
(dp4257
g4
S'Active Learning with Amazon Mechanical Turk'
p4258
sg6
S'2011'
p4259
sg8
g4256
sg9
S'activ learn amazon mechan turk'
p4260
ssS'D11-1029'
p4261
(dp4262
g4
S'Simple Effective Decipherment via Combinatorial Optimization'
p4263
sg6
S'2011'
p4264
sg8
g4261
sg9
S'simpl effect decipher via combinatori optim'
p4265
ssS'D11-1145'
p4266
(dp4267
g4
S'Twitter Catches The Flu: Detecting Influenza Epidemics using Twitter'
p4268
sg6
S'2011'
p4269
sg8
g4266
sg9
S'twitter catch flu detect influenza epidem us twitter'
p4270
ssS'D11-1144'
p4271
(dp4272
g4
S'Bootstrapped Named Entity Recognition for Product Attribute Extraction'
p4273
sg6
S'2011'
p4274
sg8
g4271
sg9
S'bootstrap name entiti recognit product attribut extract'
p4275
ssS'D11-1147'
p4276
(dp4277
g4
S'Rumor has it: Identifying Misinformation in Microblogs'
p4278
sg6
S'2011'
p4279
sg8
g4276
sg9
S'rumor identifi misinform microblog'
p4280
ssS'D11-1146'
p4281
(dp4282
g4
S'A Simple Word Trigger Method for Social Tag Suggestion'
p4283
sg6
S'2011'
p4284
sg8
g4281
sg9
S'simpl word trigger method social tag suggest'
p4285
ssS'S10-1046'
p4286
(dp4287
g4
S'TUD: Semantic Relatedness for Relation Classification'
p4288
sg6
S'2010'
p4289
sg8
g4286
sg9
S'tud semant related relat classif'
p4290
ssS'S10-1047'
p4291
(dp4292
g4
S'FBK-IRST: Semantic Relation Extraction Using Cyc'
p4293
sg6
S'2010'
p4294
sg8
g4291
sg9
S'fbk irst semant relat extract us cyc'
p4295
ssS'W10-0302'
p4296
(dp4297
g4
S'Mining and Classification of Neologisms in Persian Blogs'
p4298
sg6
S'2010'
p4299
sg8
g4296
sg9
S'mine classif neolog persian blog'
p4300
ssS'C10-3013'
p4301
(dp4302
g4
S'Cloud Computing for Linguists'
p4303
sg6
S'2010'
p4304
sg8
g4301
sg9
S'cloud comput linguist'
p4305
ssS'C10-2058'
p4306
(dp4307
g4
S'Challenges from Information Extraction to Information Fusion'
p4308
sg6
S'2010'
p4309
sg8
g4306
sg9
S'challeng inform extract inform fusion'
p4310
ssS'C10-2059'
p4311
(dp4312
g4
S'Effective Constituent Projection across Languages'
p4313
sg6
S'2010'
p4314
sg8
g4311
sg9
S'effect constitu project across languag'
p4315
ssS'C10-2113'
p4316
(dp4317
g4
S'Filling Knowledge Gaps in Text for Machine Reading'
p4318
sg6
S'2010'
p4319
sg8
g4316
sg9
S'fill knowledg gap text machin read'
p4320
ssS'C10-2112'
p4321
(dp4322
g4
S'Improving Name Origin Recognition with Context Features and Unlabelled Data'
p4323
sg6
S'2010'
p4324
sg8
g4321
sg9
S'improv name origin recognit context featur unlabel data'
p4325
ssS'C10-2115'
p4326
(dp4327
g4
S'An Evaluation Framework for Plagiarism Detection'
p4328
sg6
S'2010'
p4329
sg8
g4326
sg9
S'evalu framework plagiar detect'
p4330
ssS'C10-2114'
p4331
(dp4332
g4
S'Dynamic Parameters for Cross Document Coreference'
p4333
sg6
S'2010'
p4334
sg8
g4331
sg9
S'dynam paramet cross document corefer'
p4335
ssS'C10-2117'
p4336
(dp4337
g4
S'Automatic Committed Belief Tagging'
p4338
sg6
S'2010'
p4339
sg8
g4336
sg9
S'automat commit belief tag'
p4340
ssS'C10-2116'
p4341
(dp4342
g4
S'Expressing OWL axioms by English sentences: dubious in theory, feasible in practice'
p4343
sg6
S'2010'
p4344
sg8
g4341
sg9
S'express owl axiom english sentenc dubiou theori feasibl practic'
p4345
ssS'C10-2050'
p4346
(dp4347
g4
S'Negative Feedback: The Forsaken Nature Available for Re-ranking'
p4348
sg6
S'2010'
p4349
sg8
g4346
sg9
S'neg feedback forsaken natur avail re rank'
p4350
ssS'C10-2051'
p4351
(dp4352
g4
S'Morphological Analysis Can Improve a CCG Parser for English'
p4353
sg6
S'2010'
p4354
sg8
g4351
sg9
S'morpholog analysi can improv ccg parser english'
p4355
ssS'C10-2052'
p4356
(dp4357
g4
S'What&rsquo;s in a Preposition? Dimensions of Sense Disambiguation for an Interesting Word Class'
p4358
sg6
S'2010'
p4359
sg8
g4356
sg9
S'rsquo s preposit dimens sens disambigu interest word class'
p4360
ssS'C10-2053'
p4361
(dp4362
g4
S'Learning to Annotate Scientific Publications'
p4363
sg6
S'2010'
p4364
sg8
g4361
sg9
S'learn annot scientif public'
p4365
ssS'C10-2054'
p4366
(dp4367
g4
S'Mining Large-scale Comparable Corpora from Chinese-English News Collections'
p4368
sg6
S'2010'
p4369
sg8
g4366
sg9
S'mine larg scale compar corpora chines english new collect'
p4370
ssS'C10-2055'
p4371
(dp4372
g4
S'Bilingual lexicon extraction from comparable corpora using in-domain terms'
p4373
sg6
S'2010'
p4374
sg8
g4371
sg9
S'bilingu lexicon extract compar corpora us domain term'
p4375
ssS'C10-2056'
p4376
(dp4377
g4
S'A framework for representing lexical resources'
p4378
sg6
S'2010'
p4379
sg8
g4376
sg9
S'framework repres lexic resourc'
p4380
ssS'C10-2057'
p4381
(dp4382
g4
S'Language-Specific Sentiment Analysis in Morphologically Rich Languages'
p4383
sg6
S'2010'
p4384
sg8
g4381
sg9
S'languag specif sentiment analysi morpholog rich languag'
p4385
ssS'J11-1006'
p4386
(dp4387
g4
S'Learning and Evaluation of Dialogue Strategies for New Applications: Empirical Methods for Optimization from Small Data Sets'
p4388
sg6
S'2011'
p4389
sg8
g4386
sg9
S'learn evalu dialogu strategi new applic empir method optim small data set'
p4390
ssS'J11-1007'
p4391
(dp4392
g4
S'Analyzing and Integrating Dependency Parsers'
p4393
sg6
S'2011'
p4394
sg8
g4391
sg9
S'analyz integr depend parser'
p4395
ssS'J11-1004'
p4396
(dp4397
g4
S'An Investigation of Interruptions and Resumptions in Multi-Tasking Dialogues'
p4398
sg6
S'2011'
p4399
sg8
g4396
sg9
S'investig interrupt resumpt multi task dialogu'
p4400
ssS'J11-1005'
p4401
(dp4402
g4
S'Syntactic Processing Using the Generalized Perceptron and Beam Search'
p4403
sg6
S'2011'
p4404
sg8
g4401
sg9
S'syntact process us gener perceptron beam search'
p4405
ssS'J11-1002'
p4406
(dp4407
g4
S'Opinion Word Expansion and Target Extraction through Double Propagation'
p4408
sg6
S'2011'
p4409
sg8
g4406
sg9
S'opinion word expans target extract doubl propag'
p4410
ssS'J11-1003'
p4411
(dp4412
g4
S'Towards Modular Development of Typed Unification Grammars'
p4413
sg6
S'2011'
p4414
sg8
g4411
sg9
S'toward modular develop type unif grammar'
p4415
ssS'J11-1001'
p4416
(dp4417
g4
S'Squibs: Nouveau-ROUGE: A Novelty Metric for Update Summarization'
p4418
sg6
S'2011'
p4419
sg8
g4416
sg9
S'squib nouveau roug novelti metric updat summar'
p4420
ssS'C10-3012'
p4421
(dp4422
g4
S'E-HowNet and Automatic Construction of a Lexical Ontology'
p4423
sg6
S'2010'
p4424
sg8
g4421
sg9
S'e hownet automat construct lexic ontolog'
p4425
ssS'J11-1008'
p4426
(dp4427
g4
S'Grammar Factorization by Tree Decomposition'
p4428
sg6
S'2011'
p4429
sg8
g4426
sg9
S'grammar factor tree decomposit'
p4430
ssS'S10-1084'
p4431
(dp4432
g4
S'RALI: Automatic Weighting of Text Window Distances'
p4433
sg6
S'2010'
p4434
sg8
g4431
sg9
S'rali automat weight text window distanc'
p4435
ssS'W10-0909'
p4436
(dp4437
g4
S'Learning Rules from Incomplete Examples: A Pragmatic Approach'
p4438
sg6
S'2010'
p4439
sg8
g4436
sg9
S'learn rule incomplet exampl pragmat approach'
p4440
ssS'W10-0711'
p4441
(dp4442
g4
S'Turker-Assisted Paraphrasing for English-Arabic Machine Translation'
p4443
sg6
S'2010'
p4444
sg8
g4441
sg9
S'turker assist paraphras english arab machin translat'
p4445
ssS'W10-0710'
p4446
(dp4447
g4
S'Can Crowds Build parallel corpora for Machine Translation Systems?'
p4448
sg6
S'2010'
p4449
sg8
g4446
sg9
S'can crowd build parallel corpora machin translat system'
p4450
ssS'W10-0713'
p4451
(dp4452
g4
S'Annotating Named Entities in Twitter Data with Crowdsourcing'
p4453
sg6
S'2010'
p4454
sg8
g4451
sg9
S'annot name entiti twitter data crowdsourc'
p4455
ssS'W10-0712'
p4456
(dp4457
g4
S'Annotating Large Email Datasets for Named Entity Recognition with Mechanical Turk'
p4458
sg6
S'2010'
p4459
sg8
g4456
sg9
S'annot larg email dataset name entiti recognit mechan turk'
p4460
ssS'C10-1099'
p4461
(dp4462
g4
S'Knowing What to Believe (when you already know something)'
p4463
sg6
S'2010'
p4464
sg8
g4461
sg9
S'know believ alreadi know someth'
p4465
ssS'C10-1098'
p4466
(dp4467
g4
S'Text Summarization of Turkish Texts using Latent Semantic Analysis'
p4468
sg6
S'2010'
p4469
sg8
g4466
sg9
S'text summar turkish text us latent semant analysi'
p4470
ssS'W10-0717'
p4471
(dp4472
g4
S'Using Mechanical Turk to Annotate Lexicons for Less Commonly Used Languages'
p4473
sg6
S'2010'
p4474
sg8
g4471
sg9
S'us mechan turk annot lexicon less commonli us languag'
p4475
ssS'W10-0716'
p4476
(dp4477
g4
S'Using the Amazon Mechanical Turk to Transcribe and Annotate Meeting Speech for Extractive Summarization'
p4478
sg6
S'2010'
p4479
sg8
g4476
sg9
S'us amazon mechan turk transcrib annot meet speech extract summar'
p4480
ssS'D10-1124'
p4481
(dp4482
g4
S'A Latent Variable Model for Geographic Lexical Variation'
p4483
sg6
S'2010'
p4484
sg8
g4481
sg9
S'latent variabl model geograph lexic variat'
p4485
ssS'D10-1125'
p4486
(dp4487
g4
S'Dual Decomposition for Parsing with Non-Projective Head Automata'
p4488
sg6
S'2010'
p4489
sg8
g4486
sg9
S'dual decomposit pars non project head automata'
p4490
ssS'C10-1097'
p4491
(dp4492
g4
S'Latent Mixture of Discriminative Experts for Multimodal Prediction Modeling'
p4493
sg6
S'2010'
p4494
sg8
g4491
sg9
S'latent mixtur discrimin expert multimod predict model'
p4495
ssS'C10-1096'
p4496
(dp4497
g4
S'Simple and Efficient Algorithm for Approximate Dictionary Matching'
p4498
sg6
S'2010'
p4499
sg8
g4496
sg9
S'simpl effici algorithm approxim dictionari match'
p4500
ssS'D10-1120'
p4501
(dp4502
g4
S'Using Universal Linguistic Knowledge to Guide Grammar Induction'
p4503
sg6
S'2010'
p4504
sg8
g4501
sg9
S'us univers linguist knowledg guid grammar induct'
p4505
ssS'D10-1121'
p4506
(dp4507
g4
S'What&rsquo;s with the Attitude? Identifying Sentences with Attitude in Online Discussions'
p4508
sg6
S'2010'
p4509
sg8
g4506
sg9
S'rsquo s attitud identifi sentenc attitud onlin discuss'
p4510
ssS'D10-1122'
p4511
(dp4512
g4
S'Hashing-Based Approaches to Spelling Correction of Personal Names'
p4513
sg6
S'2010'
p4514
sg8
g4511
sg9
S'hash base approach spell correct person name'
p4515
ssS'D10-1123'
p4516
(dp4517
g4
S'Identifying Functional Relations in Web Text'
p4518
sg6
S'2010'
p4519
sg8
g4516
sg9
S'identifi function relat web text'
p4520
ssS'C10-2167'
p4521
(dp4522
g4
S'Extracting and Ranking Product Features in Opinion Documents'
p4523
sg6
S'2010'
p4524
sg8
g4521
sg9
S'extract rank product featur opinion document'
p4525
ssS'S10-1089'
p4526
(dp4527
g4
S'TreeMatch: A Fully Unsupervised WSD System Using Dependency Knowledge on a Specific Domain'
p4528
sg6
S'2010'
p4529
sg8
g4526
sg9
S'treematch fulli unsupervis wsd system us depend knowledg specif domain'
p4530
ssS'C10-2160'
p4531
(dp4532
g4
S'Jointly Identifying Entities and Extracting Relations in Encyclopedia Text via A Graphical Model Approach'
p4533
sg6
S'2010'
p4534
sg8
g4531
sg9
S'jointli identifi entiti extract relat encyclopedia text via graphic model approach'
p4535
ssS'S10-1049'
p4536
(dp4537
g4
S'ISI: Automatic Classification of Relations Between Nominals Using a Maximum Entropy Classifier'
p4538
sg6
S'2010'
p4539
sg8
g4536
sg9
S'isi automat classif relat nomin us maximum entropi classifi'
p4540
ssS'S10-1034'
p4541
(dp4542
g4
S'Likey: Unsupervised Language-Independent Keyphrase Extraction'
p4543
sg6
S'2010'
p4544
sg8
g4541
sg9
S'likei unsupervis languag independ keyphras extract'
p4545
ssS'C10-3010'
p4546
(dp4547
g4
S'PanLex and LEXTRACT: Translating all Words of all Languages of the World'
p4548
sg6
S'2010'
p4549
sg8
g4546
sg9
S'panlex lextract translat word languag world'
p4550
ssS'C10-2141'
p4551
(dp4552
g4
S'Learning Web Query Patterns for Imitating Wikipedia Articles'
p4553
sg6
S'2010'
p4554
sg8
g4551
sg9
S'learn web queri pattern imit wikipedia articl'
p4555
ssS'C10-2159'
p4556
(dp4557
g4
S'Unsupervised Part of Speech Tagging Using Unambiguous Substitutes from a Statistical Language Model'
p4558
sg6
S'2010'
p4559
sg8
g4556
sg9
S'unsupervis part speech tag us unambigu substitut statist languag model'
p4560
ssS'C10-2158'
p4561
(dp4562
g4
S'Chasing the ghost: recovering empty categories in the Chinese Treebank'
p4563
sg6
S'2010'
p4564
sg8
g4561
sg9
S'chase ghost recov empti categori chines treebank'
p4565
ssS'W11-2314'
p4566
(dp4567
g4
S'Experimental Identification of the Use of Hedges in the Simplification of Numerical Expressions'
p4568
sg6
S'2011'
p4569
sg8
g4566
sg9
S'experiment identif us hedg simplif numer express'
p4570
ssS'W11-2315'
p4571
(dp4572
g4
S'Towards an on-demand Simple Portuguese Wikipedia'
p4573
sg6
S'2011'
p4574
sg8
g4571
sg9
S'toward demand simpl portugues wikipedia'
p4575
ssS'W11-2316'
p4576
(dp4577
g4
S'SLPAT Demo Session'
p4578
sg6
S'2011'
p4579
sg8
g4576
sg9
S'slpat demo session'
p4580
ssS'W11-2310'
p4581
(dp4582
g4
S'What does it mean to communicate (not) emotionally?'
p4583
sg6
S'2011'
p4584
sg8
g4581
sg9
S'mean commun emotion'
p4585
ssS'W11-2311'
p4586
(dp4587
g4
S'Arabic Text to Arabic Sign Language Translation System for the Deaf and Hearing-Impaired Community'
p4588
sg6
S'2011'
p4589
sg8
g4586
sg9
S'arab text arab sign languag translat system deaf hear impair commun'
p4590
ssS'W11-2312'
p4591
(dp4592
g4
S'Lekbot: A talking and playing robot for children with disabilities'
p4593
sg6
S'2011'
p4594
sg8
g4591
sg9
S'lekbot talk plai robot children disabl'
p4595
ssS'W11-2313'
p4596
(dp4597
g4
S'Using lexical and corpus resources for augmenting the AAC-lexicon'
p4598
sg6
S'2011'
p4599
sg8
g4596
sg9
S'us lexic corpu resourc augment aac lexicon'
p4600
ssS'C10-1007'
p4601
(dp4602
g4
S'Fast and Accurate Arc Filtering for Dependency Parsing'
p4603
sg6
S'2010'
p4604
sg8
g4601
sg9
S'fast accur arc filter depend pars'
p4605
ssS'C10-2168'
p4606
(dp4607
g4
S'Chart Pruning for Fast Lexicalised-Grammar Parsing'
p4608
sg6
S'2010'
p4609
sg8
g4606
sg9
S'chart prune fast lexicalis grammar pars'
p4610
ssS'C10-1139'
p4611
(dp4612
g4
S'A Working Report on Statistically Modeling Dative Variation in Mandarin Chinese'
p4613
sg6
S'2010'
p4614
sg8
g4611
sg9
S'work report statist model dativ variat mandarin chines'
p4615
ssS'C10-2169'
p4616
(dp4617
g4
S'Metaphor Interpretation and Context-based Affect Detection'
p4618
sg6
S'2010'
p4619
sg8
g4616
sg9
S'metaphor interpret context base affect detect'
p4620
ssS'W11-2501'
p4621
(dp4622
g4
S'How we BLESSed distributional semantic evaluation'
p4623
sg6
S'2011'
p4624
sg8
g4621
sg9
S'bless distribut semant evalu'
p4625
ssS'C10-2155'
p4626
(dp4627
g4
S'Boosting Relation Extraction with Limited Closed-World Knowledge'
p4628
sg6
S'2010'
p4629
sg8
g4626
sg9
S'boost relat extract limit close world knowledg'
p4630
ssS'W11-2503'
p4631
(dp4632
g4
S'Distributional semantics from text and images'
p4633
sg6
S'2011'
p4634
sg8
g4631
sg9
S'distribut semant text imag'
p4635
ssS'W11-2502'
p4636
(dp4637
g4
S'Comparison of the Baseline Knowledge-, Corpus-, and Web-based Similarity Measures for Semantic Relations Extraction'
p4638
sg6
S'2011'
p4639
sg8
g4636
sg9
S'comparison baselin knowledg corpu web base similar measur semant relat extract'
p4640
ssS'W11-2505'
p4641
(dp4642
g4
S'Encoding syntactic dependencies by vector permutation'
p4643
sg6
S'2011'
p4644
sg8
g4641
sg9
S'encod syntact depend vector permut'
p4645
ssS'W11-2504'
p4646
(dp4647
g4
S'Reranking Bilingually Extracted Paraphrases Using Monolingual Distributional Similarity'
p4648
sg6
S'2011'
p4649
sg8
g4646
sg9
S'rerank bilingu extract paraphras us monolingu distribut similar'
p4650
ssS'W11-2507'
p4651
(dp4652
g4
S'Experimenting with transitive verbs in a DisCoCat'
p4653
sg6
S'2011'
p4654
sg8
g4651
sg9
S'experi transit verb discocat'
p4655
ssS'W11-2506'
p4656
(dp4657
g4
S'Assessing Interpretable, Attribute-related Meaning Representations for Adjective-Noun Phrases in a Similarity Prediction Task'
p4658
sg6
S'2011'
p4659
sg8
g4656
sg9
S'assess interpret attribut relat mean represent adject noun phrase similar predict task'
p4660
ssS'W11-2508'
p4661
(dp4662
g4
S'A distributional similarity approach to the detection of semantic change in the Google Books Ngram corpus.'
p4663
sg6
S'2011'
p4664
sg8
g4661
sg9
S'distribut similar approach detect semant chang googl book ngram corpu'
p4665
ssS'C10-1134'
p4666
(dp4667
g4
S'Disambiguating Dynamic Sentiment Ambiguous Adjectives'
p4668
sg6
S'2010'
p4669
sg8
g4666
sg9
S'disambigu dynam sentiment ambigu adject'
p4670
ssS'C10-1135'
p4671
(dp4672
g4
S'Joint Tokenization and Translation'
p4673
sg6
S'2010'
p4674
sg8
g4671
sg9
S'joint token translat'
p4675
ssS'C10-2151'
p4676
(dp4677
g4
S'Search with Synonyms: Problems and Solutions'
p4678
sg6
S'2010'
p4679
sg8
g4676
sg9
S'search synonym problem solut'
p4680
ssS'C10-2150'
p4681
(dp4682
g4
S'Automatic Extraction of Cue Phrases for Cross-Corpus Dialogue Act Classification'
p4683
sg6
S'2010'
p4684
sg8
g4681
sg9
S'automat extract cue phrase cross corpu dialogu act classif'
p4685
ssS'S10-1073'
p4686
(dp4687
g4
S'UC3M System: Determining the Extent, Type and Value of Time Expressions in TempEval-2'
p4688
sg6
S'2010'
p4689
sg8
g4686
sg9
S'uc3m system determin extent type valu time express tempev 2'
p4690
ssS'W11-2204'
p4691
(dp4692
g4
S'Reducing the Size of the Representation for the uDOP-Estimate'
p4693
sg6
S'2011'
p4694
sg8
g4691
sg9
S'reduc size represent udop estim'
p4695
ssS'C10-2153'
p4696
(dp4697
g4
S'Exploring the Use of Word Relation Features for Sentiment Classification'
p4698
sg6
S'2010'
p4699
sg8
g4696
sg9
S'explor us word relat featur sentiment classif'
p4700
ssS'C10-2152'
p4701
(dp4702
g4
S'MIEA: a Mutual Iterative Enhancement Approach for Cross-Domain Sentiment Classification'
p4703
sg6
S'2010'
p4704
sg8
g4701
sg9
S'miea mutual iter enhanc approach cross domain sentiment classif'
p4705
ssS'S10-1097'
p4706
(dp4707
g4
S'Twitter Based System: Using Twitter for Disambiguating Sentiment Ambiguous Adjectives'
p4708
sg6
S'2010'
p4709
sg8
g4706
sg9
S'twitter base system us twitter disambigu sentiment ambigu adject'
p4710
ssS'C10-1015'
p4711
(dp4712
g4
S'A Utility-Driven Approach to Question Ranking in Social QA'
p4713
sg6
S'2010'
p4714
sg8
g4711
sg9
S'util driven approach question rank social qa'
p4715
ssS'D10-1054'
p4716
(dp4717
g4
S'Maximum Entropy Based Phrase Reordering for Hierarchical Phrase-Based Translation'
p4718
sg6
S'2010'
p4719
sg8
g4716
sg9
S'maximum entropi base phrase reorder hierarch phrase base translat'
p4720
ssS'D10-1055'
p4721
(dp4722
g4
S'Further Meta-Evaluation of Broad-Coverage Surface Realization'
p4723
sg6
S'2010'
p4724
sg8
g4721
sg9
S'meta evalu broad coverag surfac realiz'
p4725
ssS'D10-1056'
p4726
(dp4727
g4
S'Two Decades of Unsupervised POS Induction: How Far Have We Come?'
p4728
sg6
S'2010'
p4729
sg8
g4726
sg9
S'two decad unsupervis po induct far come'
p4730
ssS'D10-1057'
p4731
(dp4732
g4
S'We&rsquo;re Not in Kansas Anymore: Detecting Domain Changes in Streams'
p4733
sg6
S'2010'
p4734
sg8
g4731
sg9
S'rsquo re kansa anymor detect domain chang stream'
p4735
ssS'D10-1050'
p4736
(dp4737
g4
S'Title Generation with Quasi-Synchronous Grammar'
p4738
sg6
S'2010'
p4739
sg8
g4736
sg9
S'titl gener quasi synchron grammar'
p4740
ssS'D10-1051'
p4741
(dp4742
g4
S'Automatic Analysis of Rhythmic Poetry with Applications to Generation and Translation'
p4743
sg6
S'2010'
p4744
sg8
g4741
sg9
S'automat analysi rhythmic poetri applic gener translat'
p4745
ssS'D10-1052'
p4746
(dp4747
g4
S'Discriminative Word Alignment with a Function Word Reordering Model'
p4748
sg6
S'2010'
p4749
sg8
g4746
sg9
S'discrimin word align function word reorder model'
p4750
ssS'D10-1053'
p4751
(dp4752
g4
S'Hierarchical Phrase-Based Translation Grammars Extracted from Alignment Posterior Probabilities'
p4753
sg6
S'2010'
p4754
sg8
g4751
sg9
S'hierarch phrase base translat grammar extract align posterior probabl'
p4755
ssS'D10-1058'
p4756
(dp4757
g4
S'A Fast Fertility Hidden Markov Model for Word Alignment Using MCMC'
p4758
sg6
S'2010'
p4759
sg8
g4756
sg9
S'fast fertil hidden markov model word align us mcmc'
p4760
ssS'D10-1059'
p4761
(dp4762
g4
S'Minimum Error Rate Training by Sampling the Translation Lattice'
p4763
sg6
S'2010'
p4764
sg8
g4761
sg9
S'minimum error rate train sampl translat lattic'
p4765
ssS'C10-3007'
p4766
(dp4767
g4
S'YanFa: An Online Automatic Scoring and Intelligent Feedback System of Student English-Chinese Translation'
p4768
sg6
S'2010'
p4769
sg8
g4766
sg9
S'yanfa onlin automat score intellig feedback system student english chines translat'
p4770
ssS'C10-1089'
p4771
(dp4772
g4
S'Entity-Focused Sentence Simplification for Relation Extraction'
p4773
sg6
S'2010'
p4774
sg8
g4771
sg9
S'entiti focus sentenc simplif relat extract'
p4775
ssS'W10-0805'
p4776
(dp4777
g4
S'Syntactic Construct : An Aid for translating English Nominal Compound into Hindi'
p4778
sg6
S'2010'
p4779
sg8
g4776
sg9
S'syntact construct aid translat english nomin compound hindi'
p4780
ssS'C10-1047'
p4781
(dp4782
g4
S'Finding the Storyteller: Automatic Spoiler Tagging using Linguistic Cues'
p4783
sg6
S'2010'
p4784
sg8
g4781
sg9
S'find storytel automat spoiler tag us linguist cue'
p4785
ssS'S10-1082'
p4786
(dp4787
g4
S'KSU KDD: Word Sense Induction by Clustering in Topic Space'
p4788
sg6
S'2010'
p4789
sg8
g4786
sg9
S'ksu kdd word sens induct cluster topic space'
p4790
ssS'S10-1071'
p4791
(dp4792
g4
S'HeidelTime: High Quality Rule-Based Extraction and Normalization of Temporal Expressions'
p4793
sg6
S'2010'
p4794
sg8
g4791
sg9
S'heideltim high qualiti rule base extract normal tempor express'
p4795
ssS'W10-0804'
p4796
(dp4797
g4
S'StringNet as a Computational Resource for Discovering and Investigating Linguistic Constructions'
p4798
sg6
S'2010'
p4799
sg8
g4796
sg9
S'stringnet comput resourc discov investig linguist construct'
p4800
ssS'D11-1105'
p4801
(dp4802
g4
S'Generating Aspect-oriented Multi-Document Summarization with Event-aspect model'
p4803
sg6
S'2011'
p4804
sg8
g4801
sg9
S'gener aspect orient multi document summar event aspect model'
p4805
ssS'D11-1104'
p4806
(dp4807
g4
S'Efficient Subsampling for Training Complex Language Models'
p4808
sg6
S'2011'
p4809
sg8
g4806
sg9
S'effici subsampl train complex languag model'
p4810
ssS'D11-1107'
p4811
(dp4812
g4
S'Generating Subsequent Reference in Shared Visual Scenes: Computation vs Re-Use'
p4813
sg6
S'2011'
p4814
sg8
g4811
sg9
S'gener subsequ refer share visual scene comput vs re us'
p4815
ssS'D11-1106'
p4816
(dp4817
g4
S'Syntax-Based Grammaticality Improvement using CCG and Guided Search'
p4818
sg6
S'2011'
p4819
sg8
g4816
sg9
S'syntax base grammat improv us ccg guid search'
p4820
ssS'D11-1101'
p4821
(dp4822
g4
S'Learning General Connotation of Words using Graph-based Algorithms'
p4823
sg6
S'2011'
p4824
sg8
g4821
sg9
S'learn gener connot word us graph base algorithm'
p4825
ssS'D11-1100'
p4826
(dp4827
g4
S'Harnessing WordNet Senses for Supervised Sentiment Classification'
p4828
sg6
S'2011'
p4829
sg8
g4826
sg9
S'har wordnet sens supervis sentiment classif'
p4830
ssS'D11-1103'
p4831
(dp4832
g4
S'A Fast Re-scoring Strategy to Capture Long-Distance Dependencies'
p4833
sg6
S'2011'
p4834
sg8
g4831
sg9
S'fast re score strategi captur long distanc depend'
p4835
ssS'D11-1102'
p4836
(dp4837
g4
S'Hypotheses Selection Criteria in a Reranking Framework for Spoken Language Understanding'
p4838
sg6
S'2011'
p4839
sg8
g4836
sg9
S'hypothes select criteria rerank framework spoken languag understand'
p4840
ssS'W10-0908'
p4841
(dp4842
g4
S'Empirical Studies in Learning to Read'
p4843
sg6
S'2010'
p4844
sg8
g4841
sg9
S'empir studi learn read'
p4845
ssS'C10-2029'
p4846
(dp4847
g4
S'Topic Models for Meaning Similarity in Context'
p4848
sg6
S'2010'
p4849
sg8
g4846
sg9
S'topic model mean similar context'
p4850
ssS'W10-0608'
p4851
(dp4852
g4
S'Acquiring Human-like Feature-Based Conceptual Representations from Corpora'
p4853
sg6
S'2010'
p4854
sg8
g4851
sg9
S'acquir human like featur base conceptu represent corpora'
p4855
ssS'D11-1109'
p4856
(dp4857
g4
S'Joint Models for Chinese POS Tagging and Dependency Parsing'
p4858
sg6
S'2011'
p4859
sg8
g4856
sg9
S'joint model chines po tag depend pars'
p4860
ssS'D11-1108'
p4861
(dp4862
g4
S'Learning Sentential Paraphrases from Bilingual Parallel Corpora for Text-to-Text Generation'
p4863
sg6
S'2011'
p4864
sg8
g4861
sg9
S'learn sententi paraphras bilingu parallel corpora text text gener'
p4865
ssS'S10-1048'
p4866
(dp4867
g4
S'ISTI@SemEval-2 Task 8: Boosting-Based Multiway Relation Classification'
p4868
sg6
S'2010'
p4869
sg8
g4866
sg9
S'isti semev 2 task 8 boost base multiwai relat classif'
p4870
ssS'C10-2028'
p4871
(dp4872
g4
S'Enhanced Sentiment Learning Using Twitter Hashtags and Smileys'
p4873
sg6
S'2010'
p4874
sg8
g4871
sg9
S'enhanc sentiment learn us twitter hashtag smilei'
p4875
ssS'W11-2163'
p4876
(dp4877
g4
S'Hierarchical Phrase-Based MT at the Charles University for the WMT 2011 Shared Task'
p4878
sg6
S'2011'
p4879
sg8
g4876
sg9
S'hierarch phrase base mt charl univers wmt 2011 share task'
p4880
ssS'W11-2162'
p4881
(dp4882
g4
S'CEU-UPV English-Spanish system for WMT11'
p4883
sg6
S'2011'
p4884
sg8
g4881
sg9
S'ceu upv english spanish system wmt11'
p4885
ssS'W11-2161'
p4886
(dp4887
g4
S'DFKI Hybrid Machine Translation System for WMT 2011 - On the Integration of SMT and RBMT'
p4888
sg6
S'2011'
p4889
sg8
g4886
sg9
S'dfki hybrid machin translat system wmt 2011 integr smt rbmt'
p4890
ssS'W11-2160'
p4891
(dp4892
g4
S'Joshua 3.0: Syntax-based Machine Translation with the Thrax Grammar Extractor'
p4893
sg6
S'2011'
p4894
sg8
g4891
sg9
S'joshua 30 syntax base machin translat thrax grammar extractor'
p4895
ssS'W11-2167'
p4896
(dp4897
g4
S'Bayesian Extraction of Minimal SCFG Rules for Hierarchical Phrase-based Translation'
p4898
sg6
S'2011'
p4899
sg8
g4896
sg9
S'bayesian extract minim scfg rule hierarch phrase base translat'
p4900
ssS'W11-2166'
p4901
(dp4902
g4
S'Extraction Programs: A Unified Approach to Translation Rule Extraction'
p4903
sg6
S'2011'
p4904
sg8
g4901
sg9
S'extract program unifi approach translat rule extract'
p4905
ssS'W11-2165'
p4906
(dp4907
g4
S'Generative Models of Monolingual and Bilingual Gappy Patterns'
p4908
sg6
S'2011'
p4909
sg8
g4906
sg9
S'gener model monolingu bilingu gappi pattern'
p4910
ssS'W11-2164'
p4911
(dp4912
g4
S'Crisis MT: Developing A Cookbook for MT in Crisis Situations'
p4913
sg6
S'2011'
p4914
sg8
g4911
sg9
S'crisi mt develop cookbook mt crisi situat'
p4915
ssS'C10-1136'
p4916
(dp4917
g4
S'Build Chinese Emotion Lexicons Using A Graph-based Algorithm and Multiple Resources'
p4918
sg6
S'2010'
p4919
sg8
g4916
sg9
S'build chines emot lexicon us graph base algorithm multipl resourc'
p4920
ssS'C10-1137'
p4921
(dp4922
g4
S'A Methodology for Automatic Identification of Nocuous Ambiguity'
p4923
sg6
S'2010'
p4924
sg8
g4921
sg9
S'methodolog automat identif nocuou ambigu'
p4925
ssS'C10-1017'
p4926
(dp4927
g4
S'End-to-End Coreference Resolution via Hypergraph Partitioning'
p4928
sg6
S'2010'
p4929
sg8
g4926
sg9
S'end end corefer resolut via hypergraph partit'
p4930
ssS'W11-2168'
p4931
(dp4932
g4
S'From n-gram-based to CRF-based Translation Models'
p4933
sg6
S'2011'
p4934
sg8
g4931
sg9
S'n gram base crf base translat model'
p4935
ssS'C10-1132'
p4936
(dp4937
g4
S'A Character-Based Joint Model for Chinese Word Segmentation'
p4938
sg6
S'2010'
p4939
sg8
g4936
sg9
S'charact base joint model chines word segment'
p4940
ssS'C10-1133'
p4941
(dp4942
g4
S'Near-synonym Lexical Choice in Latent Semantic Space'
p4943
sg6
S'2010'
p4944
sg8
g4941
sg9
S'near synonym lexic choic latent semant space'
p4945
ssS'C10-1130'
p4946
(dp4947
g4
S'Exploiting Salient Patterns for Question Detection and Question Retrieval in Community-based Question Answering'
p4948
sg6
S'2010'
p4949
sg8
g4946
sg9
S'exploit salient pattern question detect question retriev commun base question answer'
p4950
ssS'C10-1131'
p4951
(dp4952
g4
S'Probabilistic Tree-Edit Models with Structured Latent Variables for Textual Entailment and Question Answering'
p4953
sg6
S'2010'
p4954
sg8
g4951
sg9
S'probabilist tree edit model structur latent variabl textual entail question answer'
p4955
ssS'C10-2014'
p4956
(dp4957
g4
S'Tree Topological Features for Unlexicalized Parsing'
p4958
sg6
S'2010'
p4959
sg8
g4956
sg9
S'tree topolog featur unlexic pars'
p4960
ssS'C10-2015'
p4961
(dp4962
g4
S'Improving Graph-based Dependency Parsing with Decision History'
p4963
sg6
S'2010'
p4964
sg8
g4961
sg9
S'improv graph base depend pars decis histori'
p4965
ssS'C10-2016'
p4966
(dp4967
g4
S'A comparison of unsupervised methods for Part-of-Speech Tagging in Chinese'
p4968
sg6
S'2010'
p4969
sg8
g4966
sg9
S'comparison unsupervis method part speech tag chines'
p4970
ssS'C10-2017'
p4971
(dp4972
g4
S'The True Score of Statistical Paraphrase Generation'
p4973
sg6
S'2010'
p4974
sg8
g4971
sg9
S'true score statist paraphras gener'
p4975
ssS'C10-2010'
p4976
(dp4977
g4
S'Improved Unsupervised Sentence Alignment for Symmetrical and Asymmetrical Parallel Corpora'
p4978
sg6
S'2010'
p4979
sg8
g4976
sg9
S'improv unsupervis sentenc align symmetr asymmetr parallel corpora'
p4980
ssS'C10-2011'
p4981
(dp4982
g4
S'Automatic Acquisition of Lexical Formality'
p4983
sg6
S'2010'
p4984
sg8
g4981
sg9
S'automat acquisit lexic formal'
p4985
ssS'C10-2012'
p4986
(dp4987
g4
S'Toward Qualitative Evaluation of Textual Entailment Systems'
p4988
sg6
S'2010'
p4989
sg8
g4986
sg9
S'toward qualit evalu textual entail system'
p4990
ssS'C10-2013'
p4991
(dp4992
g4
S'Benchmarking of Statistical Dependency Parsers for French'
p4993
sg6
S'2010'
p4994
sg8
g4991
sg9
S'benchmark statist depend parser french'
p4995
ssS'C10-2018'
p4996
(dp4997
g4
S'Acquisition of Unknown Word Paradigms for Large-Scale Grammars'
p4998
sg6
S'2010'
p4999
sg8
g4996
sg9
S'acquisit unknown word paradigm larg scale grammar'
p5000
ssS'C10-2019'
p5001
(dp5002
g4
S'Global topology of word co-occurrence networks: Beyond the two-regime power-law'
p5003
sg6
S'2010'
p5004
sg8
g5001
sg9
S'global topolog word co occurr network beyond two regim power law'
p5005
ss.