(dp1
S'nodes_list'
p2
(lp3
S'4023'
p4
aS'7516'
p5
aS'3997'
p6
aS'3994'
p7
aS'2185'
p8
aS'6155'
p9
aS'6796'
p10
aS'4730'
p11
aS'5854'
p12
aS'5852'
p13
aS'299'
p14
aS'296'
p15
aS'297'
p16
aS'290'
p17
aS'3779'
p18
aS'4655'
p19
aS'4657'
p20
aS'4651'
p21
aS'3685'
p22
aS'12013'
p23
aS'2261'
p24
aS'7884'
p25
aS'2265'
p26
aS'2448'
p27
aS'109'
p28
aS'102'
p29
aS'103'
p30
aS'100'
p31
aS'104'
p32
aS'8092'
p33
aS'4812'
p34
aS'2040'
p35
aS'4814'
p36
aS'4818'
p37
aS'2048'
p38
aS'7621'
p39
aS'6887'
p40
aS'14138'
p41
aS'14447'
p42
aS'9631'
p43
aS'8942'
p44
aS'9346'
p45
aS'8948'
p46
aS'16929'
p47
aS'3515'
p48
aS'7262'
p49
aS'6206'
p50
aS'6201'
p51
aS'14728'
p52
aS'98'
p53
aS'91'
p54
aS'90'
p55
aS'92'
p56
aS'95'
p57
aS'94'
p58
aS'97'
p59
aS'96'
p60
aS'3204'
p61
aS'1996'
p62
aS'3209'
p63
aS'8839'
p64
aS'8830'
p65
aS'558'
p66
aS'2869'
p67
aS'3536'
p68
aS'14711'
p69
aS'5451'
p70
aS'5453'
p71
aS'3346'
p72
aS'5457'
p73
aS'6976'
p74
aS'1171'
p75
aS'4252'
p76
aS'5532'
p77
aS'1280'
p78
aS'14407'
p79
aS'8766'
p80
aS'7181'
p81
aS'8768'
p82
aS'4188'
p83
aS'12835'
p84
aS'8544'
p85
aS'8013'
p86
aS'5625'
p87
aS'6579'
p88
aS'4387'
p89
aS'407'
p90
aS'406'
p91
aS'8491'
p92
aS'7693'
p93
aS'1379'
p94
aS'409'
p95
aS'3835'
p96
aS'8058'
p97
aS'5990'
p98
aS'11379'
p99
aS'8293'
p100
aS'7529'
p101
aS'5669'
p102
aS'10974'
p103
aS'11100'
p104
aS'13614'
p105
aS'13617'
p106
aS'2305'
p107
aS'2306'
p108
aS'2276'
p109
aS'11751'
p110
aS'9248'
p111
aS'9240'
p112
aS'7853'
p113
aS'7857'
p114
aS'7854'
p115
aS'5208'
p116
aS'7858'
p117
aS'171'
p118
aS'4534'
p119
aS'2058'
p120
aS'4533'
p121
aS'11622'
p122
aS'1501'
p123
aS'9406'
p124
aS'9408'
p125
aS'9333'
p126
aS'10392'
p127
aS'3520'
p128
aS'16936'
p129
aS'16937'
p130
aS'7214'
p131
aS'13546'
p132
aS'16938'
p133
aS'16939'
p134
aS'2693'
p135
aS'6811'
p136
aS'7325'
p137
aS'7326'
p138
aS'1968'
p139
aS'5198'
p140
aS'1964'
p141
aS'5194'
p142
aS'5197'
p143
aS'7328'
p144
aS'1610'
p145
aS'13265'
p146
aS'3674'
p147
aS'12951'
p148
aS'7668'
p149
aS'3350'
p150
aS'7663'
p151
aS'5448'
p152
aS'7068'
p153
aS'5444'
p154
aS'1763'
p155
aS'1760'
p156
aS'12482'
p157
aS'6963'
p158
aS'1141'
p159
aS'8159'
p160
aS'8624'
p161
aS'6968'
p162
aS'1148'
p163
aS'8620'
p164
aS'8150'
p165
aS'9373'
p166
aS'5503'
p167
aS'5500'
p168
aS'1546'
p169
aS'693'
p170
aS'1544'
p171
aS'691'
p172
aS'8711'
p173
aS'8716'
p174
aS'8719'
p175
aS'7194'
p176
aS'13842'
p177
aS'8530'
p178
aS'5137'
p179
aS'7441'
p180
aS'7442'
p181
aS'7444'
p182
aS'7449'
p183
aS'5614'
p184
aS'7686'
p185
aS'1388'
p186
aS'413'
p187
aS'1257'
p188
aS'1387'
p189
aS'7689'
p190
aS'1383'
p191
aS'8444'
p192
aS'5007'
p193
aS'11563'
p194
aS'8449'
p195
aS'10334'
p196
aS'7534'
p197
aS'7536'
p198
aS'363'
p199
aS'360'
p200
aS'1776'
p201
aS'385'
p202
aS'387'
p203
aS'6176'
p204
aS'389'
p205
aS'6775'
p206
aS'4753'
p207
aS'5877'
p208
aS'5875'
p209
aS'3216'
p210
aS'3750'
p211
aS'2194'
p212
aS'4639'
p213
aS'251'
p214
aS'257'
p215
aS'2207'
p216
aS'11748'
p217
aS'6681'
p218
aS'11588'
p219
aS'9500'
p220
aS'2424'
p221
aS'2425'
p222
aS'2426'
p223
aS'13299'
p224
aS'16340'
p225
aS'16342'
p226
aS'6350'
p227
aS'4831'
p228
aS'4526'
p229
aS'4837'
p230
aS'13330'
p231
aS'5298'
p232
aS'9184'
p233
aS'5058'
p234
aS'9181'
p235
aS'3539'
p236
aS'5050'
p237
aS'7201'
p238
aS'6226'
p239
aS'10768'
p240
aS'14867'
p241
aS'14644'
p242
aS'2165'
p243
aS'14088'
p244
aS'10503'
p245
aS'9290'
p246
aS'9297'
p247
aS'1086'
p248
aS'1603'
p249
aS'1604'
p250
aS'1970'
p251
aS'8858'
p252
aS'8850'
p253
aS'14033'
p254
aS'3324'
p255
aS'5473'
p256
aS'3329'
p257
aS'1775'
p258
aS'1774'
p259
aS'5277'
p260
aS'1770'
p261
aS'5279'
p262
aS'1158'
p263
aS'8140'
p264
aS'8143'
p265
aS'6990'
p266
aS'8632'
p267
aS'5511'
p268
aS'1555'
p269
aS'58'
p270
aS'14462'
p271
aS'54'
p272
aS'57'
p273
aS'56'
p274
aS'2994'
p275
aS'50'
p276
aS'53'
p277
aS'52'
p278
aS'2990'
p279
aS'8701'
p280
aS'7605'
p281
aS'8035'
p282
aS'8031'
p283
aS'8030'
p284
aS'5604'
p285
aS'8520'
p286
aS'8527'
p287
aS'11037'
p288
aS'6516'
p289
aS'429'
p290
aS'1397'
p291
aS'420'
p292
aS'1393'
p293
aS'3812'
p294
aS'8452'
p295
aS'15336'
p296
aS'852'
p297
aS'4297'
p298
aS'7544'
p299
aS'13852'
p300
aS'7263'
p301
aS'6164'
p302
aS'12737'
p303
aS'4749'
p304
aS'4748'
p305
aS'6769'
p306
aS'10997'
p307
aS'4740'
p308
aS'5865'
p309
aS'229'
p310
aS'227'
p311
aS'2338'
p312
aS'150'
p313
aS'156'
p314
aS'158'
p315
aS'7838'
p316
aS'7832'
p317
aS'7833'
p318
aS'7835'
p319
aS'6348'
p320
aS'13467'
p321
aS'4515'
p322
aS'6186'
p323
aS'6184'
p324
aS'2504'
p325
aS'6188'
p326
aS'2726'
p327
aS'2725'
p328
aS'9357'
p329
aS'2722'
p330
aS'9609'
p331
aS'5282'
p332
aS'5286'
p333
aS'9190'
p334
aS'7947'
p335
aS'7232'
p336
aS'7233'
p337
aS'9198'
p338
aS'7949'
p339
aS'5041'
p340
aS'1802'
p341
aS'1801'
p342
aS'3785'
p343
aS'6234'
p344
aS'10778'
p345
aS'6230'
p346
aS'4999'
p347
aS'14676'
p348
aS'7302'
p349
aS'7301'
p350
aS'4726'
p351
aS'14986'
p352
aS'9281'
p353
aS'3256'
p354
aS'8869'
p355
aS'818'
p356
aS'11912'
p357
aS'2858'
p358
aS'2850'
p359
aS'3332'
p360
aS'3335'
p361
aS'1499'
p362
aS'14215'
p363
aS'8602'
p364
aS'1125'
p365
aS'6980'
p366
aS'15109'
p367
aS'2989'
p368
aS'2988'
p369
aS'2983'
p370
aS'3025'
p371
aS'527'
p372
aS'1016'
p373
aS'8735'
p374
aS'8731'
p375
aS'1235'
p376
aS'8042'
p377
aS'1232'
p378
aS'4199'
p379
aS'4197'
p380
aS'8282'
p381
aS'11003'
p382
aS'13567'
p383
aS'434'
p384
aS'6435'
p385
aS'6431'
p386
aS'8024'
p387
aS'15329'
p388
aS'7558'
p389
aS'7551'
p390
aS'4777'
p391
aS'4772'
p392
aS'4177'
p393
aS'4173'
p394
aS'13888'
p395
aS'9945'
p396
aS'9949'
p397
aS'4619'
p398
aS'9274'
p399
aS'4617'
p400
aS'1'
aS'5926'
p401
aS'5921'
p402
aS'5928'
p403
aS'5929'
p404
aS'147'
p405
aS'144'
p406
aS'142'
p407
aS'143'
p408
aS'140'
p409
aS'141'
p410
aS'5143'
p411
aS'4501'
p412
aS'7821'
p413
aS'7820'
p414
aS'2083'
p415
aS'11656'
p416
aS'2534'
p417
aS'2717'
p418
aS'1195'
p419
aS'2718'
p420
aS'7221'
p421
aS'7956'
p422
aS'7955'
p423
aS'9169'
p424
aS'7229'
p425
aS'3345'
p426
aS'5074'
p427
aS'7958'
p428
aS'1831'
p429
aS'1834'
p430
aS'2407'
p431
aS'6245'
p432
aS'5380'
p433
aS'5384'
p434
aS'5387'
p435
aS'14662'
p436
aS'14841'
p437
aS'14666'
p438
aS'1955'
p439
aS'1951'
p440
aS'8873'
p441
aS'3242'
p442
aS'3241'
p443
aS'13259'
p444
aS'820'
p445
aS'12906'
p446
aS'1483'
p447
aS'7031'
p448
aS'1481'
p449
aS'7034'
p450
aS'1486'
p451
aS'3308'
p452
aS'5495'
p453
aS'5490'
p454
aS'5253'
p455
aS'1710'
p456
aS'14193'
p457
aS'11125'
p458
aS'7788'
p459
aS'7789'
p460
aS'7785'
p461
aS'4977'
p462
aS'3012'
p463
aS'3010'
p464
aS'5941'
p465
aS'3016'
p466
aS'7143'
p467
aS'8720'
p468
aS'8723'
p469
aS'1004'
p470
aS'1002'
p471
aS'8500'
p472
aS'8507'
p473
aS'624'
p474
aS'8509'
p475
aS'4180'
p476
aS'628'
p477
aS'5663'
p478
aS'5662'
p479
aS'5661'
p480
aS'8294'
p481
aS'6531'
p482
aS'4346'
p483
aS'4345'
p484
aS'4344'
p485
aS'2880'
p486
aS'2884'
p487
aS'2885'
p488
aS'15560'
p489
aS'7496'
p490
aS'7497'
p491
aS'7494'
p492
aS'8615'
p493
aS'8614'
p494
aS'8616'
p495
aS'3879'
p496
aS'10'
p497
aS'13'
p498
aS'12'
p499
aS'15'
p500
aS'14'
p501
aS'19'
p502
aS'18'
p503
aS'8187'
p504
aS'8180'
p505
aS'7764'
p506
aS'3900'
p507
aS'3158'
p508
aS'6746'
p509
aS'6743'
p510
aS'6742'
p511
aS'13896'
p512
aS'4165'
p513
aS'4163'
p514
aS'13893'
p515
aS'4161'
p516
aS'9301'
p517
aS'5803'
p518
aS'5800'
p519
aS'9952'
p520
aS'202'
p521
aS'206'
p522
aS'4320'
p523
aS'8888'
p524
aS'2235'
p525
aS'7185'
p526
aS'10825'
p527
aS'5931'
p528
aS'5092'
p529
aS'7812'
p530
aS'7813'
p531
aS'3495'
p532
aS'7818'
p533
aS'13400'
p534
aS'4572'
p535
aS'3655'
p536
aS'2099'
p537
aS'2521'
p538
aS'11461'
p539
aS'9379'
p540
aS'2705'
p541
aS'2707'
p542
aS'4883'
p543
aS'9376'
p544
aS'4404'
p545
aS'4402'
p546
aS'2411'
p547
aS'6259'
p548
aS'2412'
p549
aS'2140'
p550
aS'6250'
p551
aS'924'
p552
aS'5397'
p553
aS'14832'
p554
aS'14835'
p555
aS'1920'
p556
aS'1923'
p557
aS'1924'
p558
aS'3271'
p559
aS'1929'
p560
aS'4226'
p561
aS'832'
p562
aS'836'
p563
aS'835'
p564
aS'8884'
p565
aS'8885'
p566
aS'839'
p567
aS'3479'
p568
aS'8882'
p569
aS'15633'
p570
aS'14948'
p571
aS'9011'
p572
aS'3318'
p573
aS'7027'
p574
aS'9001'
p575
aS'3313'
p576
aS'3315'
p577
aS'9008'
p578
aS'9394'
p579
aS'22'
p580
aS'5581'
p581
aS'9399'
p582
aS'1984'
p583
aS'15124'
p584
aS'7025'
p585
aS'3005'
p586
aS'61'
p587
aS'62'
p588
aS'63'
p589
aS'64'
p590
aS'65'
p591
aS'66'
p592
aS'67'
p593
aS'68'
p594
aS'7790'
p595
aS'7793'
p596
aS'7792'
p597
aS'7794'
p598
aS'7286'
p599
aS'5483'
p600
aS'1580'
p601
aS'405'
p602
aS'7151'
p603
aS'506'
p604
aS'1033'
p605
aS'500'
p606
aS'630'
p607
aS'1216'
p608
aS'636'
p609
aS'8063'
p610
aS'8060'
p611
aS'6523'
p612
aS'6525'
p613
aS'8269'
p614
aS'7483'
p615
aS'7482'
p616
aS'5656'
p617
aS'6528'
p618
aS'5654'
p619
aS'2899'
p620
aS'2895'
p621
aS'1458'
p622
aS'4081'
p623
aS'4082'
p624
aS'8403'
p625
aS'8405'
p626
aS'7573'
p627
aS'7577'
p628
aS'6415'
p629
aS'6414'
p630
aS'6411'
p631
aS'5724'
p632
aS'3914'
p633
aS'3913'
p634
aS'8315'
p635
aS'6735'
p636
aS'8313'
p637
aS'11491'
p638
aS'4153'
p639
aS'4150'
p640
aS'8081'
p641
aS'4154'
p642
aS'8083'
p643
aS'5839'
p644
aS'212'
p645
aS'4516'
p646
aS'6086'
p647
aS'6832'
p648
aS'5900'
p649
aS'5901'
p650
aS'4'
aS'5904'
p651
aS'7800'
p652
aS'7805'
p653
aS'7808'
p654
aS'13410'
p655
aS'3640'
p656
aS'60'
p657
aS'2552'
p658
aS'6399'
p659
aS'11675'
p660
aS'2556'
p661
aS'11678'
p662
aS'3006'
p663
aS'11472'
p664
aS'2390'
p665
aS'5011'
p666
aS'2773'
p667
aS'7979'
p668
aS'4419'
p669
aS'4418'
p670
aS'1856'
p671
aS'2170'
p672
aS'6060'
p673
aS'4969'
p674
aS'915'
p675
aS'9544'
p676
aS'913'
p677
aS'912'
p678
aS'14044'
p679
aS'2606'
p680
aS'14824'
p681
aS'1933'
p682
aS'1425'
p683
aS'5126'
p684
aS'846'
p685
aS'372'
p686
aS'3461'
p687
aS'8896'
p688
aS'7370'
p689
aS'13233'
p690
aS'11923'
p691
aS'14957'
p692
aS'14958'
p693
aS'1587'
p694
aS'7019'
p695
aS'7017'
p696
aS'9039'
p697
aS'5233'
p698
aS'15153'
p699
aS'15152'
p700
aS'15155'
p701
aS'756'
p702
aS'759'
p703
aS'1595'
p704
aS'1594'
p705
aS'15793'
p706
aS'1592'
p707
aS'3078'
p708
aS'14315'
p709
aS'2952'
p710
aS'5344'
p711
aS'7168'
p712
aS'1020'
p713
aS'1023'
p714
aS'5343'
p715
aS'7161'
p716
aS'5349'
p717
aS'601'
p718
aS'4362'
p719
aS'8274'
p720
aS'15193'
p721
aS'8068'
p722
aS'3104'
p723
aS'5'
aS'1441'
p724
aS'1118'
p725
aS'4093'
p726
aS'4094'
p727
aS'4470'
p728
aS'487'
p729
aS'485'
p730
aS'8410'
p731
aS'481'
p732
aS'13619'
p733
aS'15468'
p734
aS'6462'
p735
aS'12414'
p736
aS'3921'
p737
aS'15017'
p738
aS'6724'
p739
aS'4786'
p740
aS'4722'
p741
aS'4780'
p742
aS'5823'
p743
aS'12520'
p744
aS'8091'
p745
aS'3856'
p746
aS'3857'
p747
aS'6656'
p748
aS'5912'
p749
aS'198'
p750
aS'4557'
p751
aS'4552'
p752
aS'3677'
p753
aS'4550'
p754
aS'2540'
p755
aS'2545'
p756
aS'11442'
p757
aS'11447'
p758
aS'9154'
p759
aS'9151'
p760
aS'3586'
p761
aS'2761'
p762
aS'5008'
p763
aS'7909'
p764
aS'6270'
p765
aS'901'
p766
aS'4423'
p767
aS'7305'
p768
aS'1847'
p769
aS'4958'
p770
aS'2169'
p771
aS'6071'
p772
aS'4952'
p773
aS'2164'
p774
aS'9554'
p775
aS'4954'
p776
aS'2616'
p777
aS'9733'
p778
aS'14035'
p779
aS'13790'
p780
aS'9738'
p781
aS'5139'
p782
aS'3294'
p783
aS'5134'
p784
aS'3291'
p785
aS'5130'
p786
aS'855'
p787
aS'850'
p788
aS'13202'
p789
aS'3454'
p790
aS'853'
p791
aS'3458'
p792
aS'858'
p793
aS'13209'
p794
aS'6'
aS'14146'
p795
aS'9021'
p796
aS'12008'
p797
aS'5221'
p798
aS'5224'
p799
aS'11864'
p800
aS'8932'
p801
aS'11868'
p802
aS'8939'
p803
aS'15144'
p804
aS'7174'
p805
aS'6896'
p806
aS'1052'
p807
aS'5352'
p808
aS'1057'
p809
aS'4310'
p810
aS'619'
p811
aS'12888'
p812
aS'4318'
p813
aS'8249'
p814
aS'8790'
p815
aS'8792'
p816
aS'8246'
p817
aS'8247'
p818
aS'11048'
p819
aS'14766'
p820
aS'3113'
p821
aS'8647'
p822
aS'8645'
p823
aS'8643'
p824
aS'8420'
p825
aS'5726'
p826
aS'11301'
p827
aS'11302'
p828
aS'497'
p829
aS'4221'
p830
aS'26'
p831
aS'6478'
p832
aS'20'
p833
aS'21'
p834
aS'7599'
p835
aS'23'
p836
aS'29'
p837
aS'3937'
p838
aS'8626'
p839
aS'10653'
p840
aS'8338'
p841
aS'6713'
p842
aS'4136'
p843
aS'3845'
p844
aS'3848'
p845
aS'12658'
p846
aS'6664'
p847
aS'5968'
p848
aS'7'
aS'5963'
p849
aS'5966'
p850
aS'3660'
p851
aS'2281'
p852
aS'4549'
p853
aS'4543'
p854
aS'4544'
p855
aS'2579'
p856
aS'2577'
p857
aS'2573'
p858
aS'2378'
p859
aS'2376'
p860
aS'2370'
p861
aS'3593'
p862
aS'9122'
p863
aS'9124'
p864
aS'9127'
p865
aS'5037'
p866
aS'10301'
p867
aS'4430'
p868
aS'7911'
p869
aS'7917'
p870
aS'2118'
p871
aS'6040'
p872
aS'6046'
p873
aS'598'
p874
aS'7985'
p875
aS'2620'
p876
aS'6982'
p877
aS'9582'
p878
aS'3287'
p879
aS'1913'
p880
aS'5107'
p881
aS'9232'
p882
aS'5830'
p883
aS'867'
p884
aS'12348'
p885
aS'2020'
p886
aS'2750'
p887
aS'2023'
p888
aS'12345'
p889
aS'2759'
p890
aS'881'
p891
aS'887'
p892
aS'886'
p893
aS'9051'
p894
aS'5218'
p895
aS'8929'
p896
aS'3989'
p897
aS'77'
p898
aS'76'
p899
aS'7639'
p900
aS'73'
p901
aS'72'
p902
aS'71'
p903
aS'6861'
p904
aS'79'
p905
aS'78'
p906
aS'1042'
p907
aS'5364'
p908
aS'1044'
p909
aS'1048'
p910
aS'1680'
p911
aS'1688'
p912
aS'668'
p913
aS'8259'
p914
aS'8782'
p915
aS'8781'
p916
aS'8787'
p917
aS'14773'
p918
aS'7617'
p919
aS'3127'
p920
aS'1914'
p921
aS'8658'
p922
aS'1464'
p923
aS'8652'
p924
aS'8431'
p925
aS'1315'
p926
aS'8437'
p927
aS'7219'
p928
aS'8439'
p929
aS'6447'
p930
aS'6917'
p931
aS'5597'
p932
aS'12595'
p933
aS'3944'
p934
aS'316'
p935
aS'315'
p936
aS'13196'
p937
aS'14891'
p938
aS'6700'
p939
aS'13194'
p940
aS'8321'
p941
aS'6707'
p942
aS'15225'
p943
aS'4125'
p944
aS'7436'
p945
aS'7438'
p946
aS'6676'
p947
aS'2324'
p948
aS'11511'
p949
aS'5674'
p950
aS'4361'
p951
aS'5970'
p952
aS'3615'
p953
aS'3616'
p954
aS'3617'
p955
aS'2291'
p956
aS'14978'
p957
aS'2564'
p958
aS'2366'
p959
aS'2363'
p960
aS'11426'
p961
aS'7295'
p962
aS'9138'
p963
aS'4445'
p964
aS'3723'
p965
aS'4684'
p966
aS'4683'
p967
aS'962'
p968
aS'4681'
p969
aS'969'
p970
aS'6059'
p971
aS'5576'
p972
aS'6051'
p973
aS'2105'
p974
aS'5574'
p975
aS'2639'
p976
aS'2637'
p977
aS'2630'
p978
aS'7708'
p979
aS'9220'
p980
aS'876'
p981
aS'875'
p982
aS'3434'
p983
aS'3090'
p984
aS'2037'
p985
aS'4593'
p986
aS'1242'
p987
aS'4596'
p988
aS'2747'
p989
aS'2746'
p990
aS'9'
aS'4845'
p991
aS'4842'
p992
aS'890'
p993
aS'891'
p994
aS'896'
p995
aS'11990'
p996
aS'3545'
p997
aS'1617'
p998
aS'13175'
p999
aS'5191'
p1000
aS'15162'
p1001
aS'6879'
p1002
aS'6875'
p1003
aS'6873'
p1004
aS'6870'
p1005
aS'5378'
p1006
aS'5376'
p1007
aS'5371'
p1008
aS'1073'
p1009
aS'13007'
p1010
aS'8224'
p1011
aS'4339'
p1012
aS'673'
p1013
aS'3137'
p1014
aS'14584'
p1015
aS'7609'
p1016
aS'14749'
p1017
aS'7601'
p1018
aS'13103'
p1019
aS'1415'
p1020
aS'1416'
p1021
aS'1328'
p1022
aS'4209'
p1023
aS'8139'
p1024
aS'6456'
p1025
aS'5766'
p1026
aS'5767'
p1027
aS'5765'
p1028
aS'8130'
p1029
aS'15180'
p1030
aS'5565'
p1031
aS'1524'
p1032
aS'1525'
p1033
aS'1254'
p1034
aS'2395'
p1035
aS'3416'
p1036
aS'7731'
p1037
aS'308'
p1038
aS'3950'
p1039
aS'3957'
p1040
aS'306'
p1041
aS'11212'
p1042
aS'4114'
p1043
aS'8350'
p1044
aS'6731'
p1045
aS'74'
p1046
aS'7422'
p1047
aS'5947'
p1048
aS'4060'
p1049
aS'4064'
p1050
aS'4065'
p1051
aS'3050'
p1052
aS'5782'
p1053
aS'3608'
p1054
aS'12182'
p1055
aS'6114'
p1056
aS'2358'
p1057
aS'2359'
p1058
aS'2352'
p1059
aS'7870'
p1060
aS'10928'
p1061
aS'622'
p1062
aS'2355'
p1063
aS'7931'
p1064
aS'7930'
p1065
aS'7933'
p1066
aS'7280'
p1067
aS'9459'
p1068
aS'9108'
p1069
aS'9103'
p1070
aS'13347'
p1071
aS'4454'
p1072
aS'1895'
p1073
aS'4458'
p1074
aS'2136'
p1075
aS'4922'
p1076
aS'4697'
p1077
aS'4699'
p1078
aS'954'
p1079
aS'11727'
p1080
aS'6024'
p1081
aS'2648'
p1082
aS'5164'
p1083
aS'5169'
p1084
aS'14002'
p1085
aS'2643'
p1086
aS'9219'
p1087
aS'6335'
p1088
aS'6337'
p1089
aS'4585'
p1090
aS'4584'
p1091
aS'2009'
p1092
aS'4582'
p1093
aS'10292'
p1094
aS'11985'
p1095
aS'8252'
p1096
aS'8625'
p1097
aS'10588'
p1098
aS'8906'
p1099
aS'11855'
p1100
aS'716'
p1101
aS'713'
p1102
aS'6849'
p1103
aS'6842'
p1104
aS'6843'
p1105
aS'1068'
p1106
aS'5301'
p1107
aS'1062'
p1108
aS'1668'
p1109
aS'1666'
p1110
aS'1660'
p1111
aS'591'
p1112
aS'8232'
p1113
aS'15534'
p1114
aS'6595'
p1115
aS'8235'
p1116
aS'6599'
p1117
aS'12488'
p1118
aS'3148'
p1119
aS'2822'
p1120
aS'2823'
p1121
aS'5417'
p1122
aS'3380'
p1123
aS'14752'
p1124
aS'1402'
p1125
aS'1406'
p1126
aS'1404'
p1127
aS'1339'
p1128
aS'1338'
p1129
aS'1335'
p1130
aS'6936'
p1131
aS'6934'
p1132
aS'8128'
p1133
aS'8124'
p1134
aS'8692'
p1135
aS'39'
p1136
aS'32'
p1137
aS'31'
p1138
aS'30'
p1139
aS'35'
p1140
aS'34'
p1141
aS'643'
p1142
aS'3091'
p1143
aS'645'
p1144
aS'644'
p1145
aS'3121'
p1146
aS'338'
p1147
aS'336'
p1148
aS'4104'
p1149
aS'3268'
p1150
aS'8343'
p1151
aS'15247'
p1152
aS'3892'
p1153
aS'3464'
p1154
aS'4078'
p1155
aS'5796'
p1156
aS'1317'
p1157
aS'3634'
p1158
aS'2340'
p1159
aS'2342'
p1160
aS'9113'
p1161
aS'1885'
p1162
aS'4462'
p1163
aS'2120'
p1164
aS'2123'
p1165
aS'2122'
p1166
aS'4664'
p1167
aS'4660'
p1168
aS'940'
p1169
aS'4911'
p1170
aS'6031'
p1171
aS'6034'
p1172
aS'5176'
p1173
aS'5175'
p1174
aS'5174'
p1175
aS'2652'
p1176
aS'2651'
p1177
aS'133'
p1178
aS'132'
p1179
aS'131'
p1180
aS'7389'
p1181
aS'137'
p1182
aS'3413'
p1183
aS'135'
p1184
aS'134'
p1185
aS'7380'
p1186
aS'7381'
p1187
aS'7384'
p1188
aS'2018'
p1189
aS'4862'
p1190
aS'2010'
p1191
aS'9067'
p1192
aS'2924'
p1193
aS'10440'
p1194
aS'3561'
p1195
aS'3567'
p1196
aS'13399'
p1197
aS'8977'
p1198
aS'6854'
p1199
aS'2901'
p1200
aS'6851'
p1201
aS'705'
p1202
aS'2909'
p1203
aS'707'
p1204
aS'6858'
p1205
aS'88'
p1206
aS'11884'
p1207
aS'14615'
p1208
aS'83'
p1209
aS'80'
p1210
aS'81'
p1211
aS'86'
p1212
aS'87'
p1213
aS'84'
p1214
aS'85'
p1215
aS'5310'
p1216
aS'5314'
p1217
aS'14294'
p1218
aS'14920'
p1219
aS'7683'
p1220
aS'13029'
p1221
aS'1651'
p1222
aS'587'
p1223
aS'8209'
p1224
aS'8756'
p1225
aS'8202'
p1226
aS'8751'
p1227
aS'7627'
p1228
aS'7626'
p1229
aS'3157'
p1230
aS'3155'
p1231
aS'2838'
p1232
aS'2834'
p1233
aS'7628'
p1234
aS'2831'
p1235
aS'1437'
p1236
aS'14722'
p1237
aS'1439'
p1238
aS'4268'
p1239
aS'451'
p1240
aS'453'
p1241
aS'455'
p1242
aS'15410'
p1243
aS'15411'
p1244
aS'5549'
p1245
aS'11153'
p1246
aS'5543'
p1247
aS'654'
p1248
aS'655'
p1249
aS'13528'
p1250
aS'8372'
p1251
aS'8373'
p1252
aS'8574'
p1253
aS'8575'
p1254
aS'5893'
p1255
aS'5895'
p1256
aS'5896'
p1257
aS'8573'
p1258
aS'15258'
p1259
aS'3886'
p1260
aS'7405'
p1261
aS'4912'
p1262
aS'751'
p1263
aS'6628'
p1264
aS'6627'
p1265
aS'6621'
p1266
aS'4008'
p1267
aS'9896'
p1268
aS'3976'
p1269
aS'3978'
p1270
aS'563'
p1271
aS'3625'
p1272
aS'11410'
p1273
aS'2331'
p1274
aS'11412'
p1275
aS'2333'
p1276
aS'2335'
p1277
aS'4713'
p1278
aS'12763'
p1279
aS'3714'
p1280
aS'3711'
p1281
aS'13361'
p1282
aS'13363'
p1283
aS'2302'
p1284
aS'6001'
p1285
aS'4900'
p1286
aS'4670'
p1287
aS'11706'
p1288
aS'994'
p1289
aS'991'
p1290
aS'5147'
p1291
aS'5346'
p1292
aS'121'
p1293
aS'122'
p1294
aS'123'
p1295
aS'124'
p1296
aS'125'
p1297
aS'126'
p1298
aS'128'
p1299
aS'4875'
p1300
aS'4874'
p1301
aS'4873'
p1302
aS'12385'
p1303
aS'2798'
p1304
aS'130'
p1305
aS'6316'
p1306
aS'2792'
p1307
aS'2793'
p1308
aS'942'
p1309
aS'13494'
p1310
aS'136'
p1311
aS'1185'
p1312
aS'10126'
p1313
aS'5099'
p1314
aS'138'
p1315
aS'7242'
p1316
aS'3577'
p1317
aS'8184'
p1318
aS'2667'
p1319
aS'8969'
p1320
aS'4493'
p1321
aS'5075'
p1322
aS'4498'
p1323
aS'6820'
p1324
aS'6828'
p1325
aS'2931'
p1326
aS'14605'
p1327
aS'14603'
p1328
aS'14283'
p1329
aS'14934'
p1330
aS'13039'
p1331
aS'14939'
p1332
aS'8818'
p1333
aS'11092'
p1334
aS'15085'
p1335
aS'8212'
p1336
aS'8215'
p1337
aS'575'
p1338
aS'8216'
p1339
aS'3167'
p1340
aS'5430'
p1341
aS'5436'
p1342
aS'3364'
p1343
aS'1428'
p1344
aS'14730'
p1345
aS'8536'
p1346
aS'8105'
p1347
aS'4277'
p1348
aS'4275'
p1349
aS'465'
p1350
aS'461'
p1351
aS'463'
p1352
aS'5554'
p1353
aS'15398'
p1354
aS'6486'
p1355
aS'15396'
p1356
aS'1515'
p1357
aS'8582'
p1358
aS'8360'
p1359
aS'8366'
p1360
aS'8567'
p1361
aS'8566'
p1362
aS'8564'
p1363
aS'8562'
p1364
aS'14848'
p1365
aS'8568'
p1366
aS'6558'
p1367
aS'3186'
p1368
aS'7475'
p1369
aS'11550'
p1370
aS'6630'
p1371
aS'4019'
p1372
aS'13702'
p1373
aS'4012'
p1374
aS'3988'
p1375
aS'7501'
p1376
aS'3984'
p1377
aS'12899'
p1378
aS'3981'
p1379
aS'3982'
p1380
aS'9888'
p1381
aS'12774'
p1382
aS'4700'
p1383
aS'2329'
p1384
aS'484'
p1385
aS'282'
p1386
aS'287'
p1387
aS'3760'
p1388
aS'3762'
p1389
aS'13154'
p1390
aS'1290'
p1391
aS'6016'
p1392
aS'4641'
p1393
aS'7894'
p1394
aS'1567'
p1395
aS'2252'
p1396
aS'9263'
p1397
aS'989'
p1398
aS'9267'
p1399
aS'10738'
p1400
aS'9264'
p1401
aS'9268'
p1402
aS'10047'
p1403
aS'114'
p1404
aS'117'
p1405
aS'116'
p1406
aS'111'
p1407
aS'110'
p1408
aS'113'
p1409
aS'112'
p1410
aS'119'
p1411
aS'118'
p1412
aS'4801'
p1413
aS'2786'
p1414
aS'9465'
p1415
aS'2072'
p1416
aS'6307'
p1417
aS'2070'
p1418
aS'6301'
p1419
aS'11959'
p1420
aS'9315'
p1421
aS'3508'
p1422
aS'8954'
p1423
aS'8951'
p1424
aS'5086'
p1425
aS'9791'
p1426
aS'9790'
p1427
aS'2929'
p1428
aS'2928'
p1429
aS'14382'
p1430
aS'2922'
p1431
aS'6857'
p1432
aS'2926'
p1433
aS'8413'
p1434
aS'5332'
p1435
aS'5339'
p1436
aS'1632'
p1437
aS'1633'
p1438
aS'1635'
p1439
aS'8822'
p1440
aS'8826'
p1441
aS'8827'
p1442
aS'13043'
p1443
aS'706'
p1444
aS'568'
p1445
aS'569'
p1446
aS'2816'
p1447
aS'15091'
p1448
aS'8771'
p1449
aS'8777'
p1450
aS'7640'
p1451
aS'7647'
p1452
aS'6543'
p1453
aS'3173'
p1454
aS'3379'
p1455
aS'1186'
p1456
aS'5424'
p1457
aS'5426'
p1458
aS'1749'
p1459
aS'729'
p1460
aS'6495'
p1461
aS'8171'
p1462
aS'4248'
p1463
aS'4247'
p1464
aS'1169'
p1465
aS'82'
p1466
aS'6949'
p1467
aS'5527'
p1468
aS'5633'
p1469
aS'6946'
p1470
aS'6944'
p1471
aS'48'
p1472
aS'49'
p1473
aS'44'
p1474
aS'43'
p1475
aS'41'
p1476
aS'1562'
p1477
aS'1296'
p1478
aS'1295'
p1479
aS'5022'
p1480
aS'8394'
p1481
aS'8551'
p1482
aS'8556'
p1483
aS'8009'
p1484
aS'8005'
p1485
aS'8007'
p1486
aS'5638'
p1487
aS'5634'
p1488
aS'5637'
p1489
aS'5630'
p1490
aS'6548'
p1491
aS'473'
p1492
aS'1365'
p1493
aS'477'
p1494
aS'7463'
p1495
aS'7462'
p1496
aS'1368'
p1497
asS'edges_list'
p1498
(lp1499
(S'1'
g68
tp1500
a(S'1'
g1069
tp1501
a(S'1'
g611
tp1502
a(S'1'
g1203
tp1503
a(S'1'
g330
tp1504
a(S'1'
g96
tp1505
a(S'1'
g685
tp1506
a(S'1'
g859
tp1507
a(S'1'
g650
tp1508
a(S'1'
S'2722'
tp1509
a(S'1'
g701
tp1510
a(S'1'
g923
tp1511
a(S'1'
g674
tp1512
a(S'1'
g1274
tp1513
a(S'1'
g686
tp1514
a(S'4'
g94
tp1515
a(S'4'
g1438
tp1516
a(S'4'
S'1379'
tp1517
a(S'4'
S'1633'
tp1518
a(S'4'
S'1379'
tp1519
a(S'4'
g789
tp1520
a(S'4'
g977
tp1521
a(S'4'
g119
tp1522
a(S'4'
g1195
tp1523
a(S'4'
g1482
tp1524
a(S'4'
g658
tp1525
a(S'4'
g267
tp1526
a(S'4'
g253
tp1527
a(S'4'
g929
tp1528
a(S'4'
S'8439'
tp1529
a(S'4'
g1099
tp1530
a(S'4'
g1364
tp1531
a(S'4'
g1162
tp1532
a(S'4'
S'1379'
tp1533
a(S'4'
g661
tp1534
a(S'4'
g1193
tp1535
a(S'4'
g197
tp1536
a(S'4'
g6
tp1537
a(S'4'
g1467
tp1538
a(S'4'
g154
tp1539
a(S'4'
g342
tp1540
a(S'4'
g341
tp1541
a(S'4'
g981
tp1542
a(S'4'
g244
tp1543
a(S'4'
g1469
tp1544
a(S'4'
g434
tp1545
a(S'4'
g281
tp1546
a(S'4'
g1340
tp1547
a(S'4'
S'5384'
tp1548
a(S'4'
S'7605'
tp1549
a(S'4'
S'3167'
tp1550
a(S'4'
S'5444'
tp1551
a(S'4'
S'876'
tp1552
a(S'4'
g412
tp1553
a(S'4'
S'1379'
tp1554
a(S'4'
S'2556'
tp1555
a(S'4'
g1394
tp1556
a(S'4'
g1196
tp1557
a(S'4'
S'1379'
tp1558
a(S'4'
g964
tp1559
a(S'4'
S'4445'
tp1560
a(S'4'
g699
tp1561
a(S'4'
g177
tp1562
a(S'4'
g1226
tp1563
a(S'4'
g1255
tp1564
a(S'4'
g364
tp1565
a(S'4'
g124
tp1566
a(S'4'
g1465
tp1567
a(S'4'
g1034
tp1568
a(S'4'
g1457
tp1569
a(S'4'
g512
tp1570
a(S'4'
g1009
tp1571
a(S'4'
S'13896'
tp1572
a(S'4'
S'1073'
tp1573
a(S'4'
S'13896'
tp1574
a(S'4'
S'1073'
tp1575
a(S'4'
g561
tp1576
a(S'4'
g873
tp1577
a(S'4'
g1341
tp1578
a(S'4'
g1171
tp1579
a(S'5'
g712
tp1580
a(S'5'
g593
tp1581
a(S'5'
g1000
tp1582
a(S'5'
g16
tp1583
a(S'5'
g937
tp1584
a(S'5'
g820
tp1585
a(S'5'
g625
tp1586
a(S'5'
g1387
tp1587
a(S'6'
g20
tp1588
a(S'6'
g1166
tp1589
a(S'6'
g548
tp1590
a(S'6'
g1230
tp1591
a(S'6'
g266
tp1592
a(S'7'
g663
tp1593
a(S'7'
S'3006'
tp1594
a(S'7'
g771
tp1595
a(S'7'
g206
tp1596
a(S'7'
S'3006'
tp1597
a(S'7'
g559
tp1598
a(S'7'
g1488
tp1599
a(S'7'
g1001
tp1600
a(S'7'
g1345
tp1601
a(S'7'
g1495
tp1602
a(S'9'
g352
tp1603
a(S'9'
g511
tp1604
a(S'9'
g329
tp1605
a(S'9'
g1424
tp1606
a(S'9'
g1279
tp1607
a(S'9'
g754
tp1608
a(S'9'
g452
tp1609
a(S'9'
g1224
tp1610
a(S'9'
S'15162'
tp1611
a(S'9'
g213
tp1612
a(S'9'
g1359
tp1613
a(S'9'
g753
tp1614
a(S'9'
g380
tp1615
a(S'9'
S'4639'
tp1616
a(S'9'
g1240
tp1617
a(S'9'
S'4639'
tp1618
a(S'9'
g1029
tp1619
a(S'9'
S'14986'
tp1620
a(S'9'
g691
tp1621
a(g497
g1304
tp1622
a(S'10'
g632
tp1623
a(S'10'
g1175
tp1624
a(S'10'
S'5444'
tp1625
a(S'10'
S'1802'
tp1626
a(S'10'
S'876'
tp1627
a(S'10'
S'4501'
tp1628
a(S'10'
g259
tp1629
a(S'10'
g973
tp1630
a(S'10'
S'5174'
tp1631
a(S'10'
g1464
tp1632
a(S'10'
g1391
tp1633
a(S'10'
S'1290'
tp1634
a(S'10'
g7
tp1635
a(S'10'
g642
tp1636
a(S'10'
g1276
tp1637
a(S'10'
g1039
tp1638
a(S'10'
g1249
tp1639
a(S'10'
g911
tp1640
a(S'10'
S'1680'
tp1641
a(S'10'
g1492
tp1642
a(S'10'
S'1290'
tp1643
a(S'10'
g1483
tp1644
a(S'10'
g1292
tp1645
a(S'10'
S'473'
tp1646
a(S'10'
S'1290'
tp1647
a(S'10'
S'8556'
tp1648
a(S'10'
S'5346'
tp1649
a(g499
g576
tp1650
a(S'12'
g1234
tp1651
a(S'12'
g1062
tp1652
a(S'12'
g39
tp1653
a(S'12'
g324
tp1654
a(S'12'
g343
tp1655
a(S'12'
g1238
tp1656
a(S'12'
g1008
tp1657
a(S'12'
g1461
tp1658
a(S'12'
g84
tp1659
a(S'12'
g251
tp1660
a(S'12'
g1086
tp1661
a(S'12'
g445
tp1662
a(S'12'
S'5634'
tp1663
a(g498
S'1801'
tp1664
a(S'13'
S'1802'
tp1665
a(S'13'
g1271
tp1666
a(g501
g1314
tp1667
a(S'14'
g83
tp1668
a(g500
g637
tp1669
a(S'15'
g521
tp1670
a(S'15'
g807
tp1671
a(S'15'
g689
tp1672
a(S'15'
g554
tp1673
a(S'15'
g788
tp1674
a(S'15'
g1434
tp1675
a(S'15'
g333
tp1676
a(S'15'
g705
tp1677
a(S'15'
g287
tp1678
a(S'15'
g72
tp1679
a(S'15'
g730
tp1680
a(S'15'
g1161
tp1681
a(S'15'
g1028
tp1682
a(S'15'
S'5286'
tp1683
a(S'15'
S'8413'
tp1684
a(S'15'
g459
tp1685
a(S'15'
S'2909'
tp1686
a(S'15'
g98
tp1687
a(S'15'
g507
tp1688
a(S'15'
g1192
tp1689
a(S'15'
g314
tp1690
a(S'15'
g760
tp1691
a(S'15'
g30
tp1692
a(S'15'
g284
tp1693
a(S'15'
S'7788'
tp1694
a(S'15'
S'2909'
tp1695
a(S'15'
g1325
tp1696
a(S'15'
g136
tp1697
a(S'15'
S'846'
tp1698
a(S'15'
S'6811'
tp1699
a(S'15'
S'846'
tp1700
a(S'15'
S'6811'
tp1701
a(S'15'
S'846'
tp1702
a(S'15'
g304
tp1703
a(S'15'
S'4749'
tp1704
a(S'15'
S'8030'
tp1705
a(S'15'
S'1379'
tp1706
a(S'15'
S'2556'
tp1707
a(S'15'
S'6811'
tp1708
a(S'15'
g1045
tp1709
a(S'15'
g1324
tp1710
a(S'15'
S'6990'
tp1711
a(S'15'
S'8527'
tp1712
a(S'15'
g1396
tp1713
a(S'15'
g1088
tp1714
a(S'15'
S'5444'
tp1715
a(S'15'
S'1802'
tp1716
a(S'15'
S'876'
tp1717
a(S'15'
S'4501'
tp1718
a(S'15'
S'1774'
tp1719
a(S'15'
S'5444'
tp1720
a(S'15'
S'1802'
tp1721
a(S'15'
S'876'
tp1722
a(S'15'
S'4501'
tp1723
a(S'15'
S'1774'
tp1724
a(S'15'
S'5444'
tp1725
a(S'15'
S'1802'
tp1726
a(S'15'
S'876'
tp1727
a(S'15'
S'4501'
tp1728
a(S'15'
S'1774'
tp1729
a(S'15'
g1470
tp1730
a(S'15'
S'3308'
tp1731
a(S'15'
S'7605'
tp1732
a(S'15'
g563
tp1733
a(S'15'
g1084
tp1734
a(S'15'
g716
tp1735
a(S'15'
g1174
tp1736
a(S'15'
S'5169'
tp1737
a(S'15'
S'7161'
tp1738
a(S'15'
S'5175'
tp1739
a(S'15'
g809
tp1740
a(S'15'
g118
tp1741
a(S'15'
S'846'
tp1742
a(S'15'
S'4749'
tp1743
a(S'15'
S'4749'
tp1744
a(S'15'
S'4749'
tp1745
a(S'15'
g294
tp1746
a(S'15'
g1258
tp1747
a(S'15'
S'3812'
tp1748
a(S'15'
S'8573'
tp1749
a(S'15'
g388
tp1750
a(S'15'
S'3812'
tp1751
a(S'15'
S'8573'
tp1752
a(S'15'
S'15329'
tp1753
a(S'15'
S'3812'
tp1754
a(S'15'
S'8573'
tp1755
a(S'15'
g80
tp1756
a(S'15'
S'5175'
tp1757
a(S'15'
g108
tp1758
a(S'15'
g1442
tp1759
a(S'15'
g892
tp1760
a(S'15'
S'3308'
tp1761
a(S'15'
S'6946'
tp1762
a(S'15'
S'3308'
tp1763
a(S'15'
S'6946'
tp1764
a(S'15'
S'3308'
tp1765
a(S'15'
S'6946'
tp1766
a(S'15'
S'3308'
tp1767
a(S'15'
S'6946'
tp1768
a(S'15'
S'3308'
tp1769
a(S'15'
g763
tp1770
a(S'15'
g117
tp1771
a(S'15'
g75
tp1772
a(S'15'
g1173
tp1773
a(S'15'
S'1633'
tp1774
a(S'15'
g143
tp1775
a(S'15'
S'5176'
tp1776
a(S'15'
S'1633'
tp1777
a(S'15'
S'5197'
tp1778
a(S'15'
S'8209'
tp1779
a(S'15'
S'15162'
tp1780
a(S'15'
S'4639'
tp1781
a(S'15'
S'8209'
tp1782
a(S'15'
S'15162'
tp1783
a(S'15'
S'4639'
tp1784
a(S'15'
S'8209'
tp1785
a(S'15'
S'15162'
tp1786
a(S'15'
S'4639'
tp1787
a(S'15'
g1291
tp1788
a(S'15'
S'9113'
tp1789
a(S'15'
S'1633'
tp1790
a(S'15'
S'15162'
tp1791
a(S'15'
g1004
tp1792
a(S'15'
g1462
tp1793
a(S'15'
S'836'
tp1794
a(S'15'
g1108
tp1795
a(S'15'
S'1464'
tp1796
a(S'15'
g884
tp1797
a(S'15'
S'1464'
tp1798
a(S'15'
S'867'
tp1799
a(g503
S'3812'
tp1800
a(S'18'
g1419
tp1801
a(S'18'
g421
tp1802
a(S'18'
S'3812'
tp1803
a(S'18'
g162
tp1804
a(S'18'
g951
tp1805
a(S'18'
g1386
tp1806
a(S'18'
g472
tp1807
a(S'18'
g430
tp1808
a(S'18'
g1440
tp1809
a(S'18'
g729
tp1810
a(S'18'
S'3812'
tp1811
a(S'18'
S'7221'
tp1812
a(S'18'
S'3812'
tp1813
a(S'18'
S'7221'
tp1814
a(S'18'
S'3812'
tp1815
a(S'18'
S'7221'
tp1816
a(S'18'
S'3812'
tp1817
a(S'18'
S'7221'
tp1818
a(S'18'
S'3812'
tp1819
a(S'18'
S'7221'
tp1820
a(S'18'
S'3812'
tp1821
a(S'18'
S'7221'
tp1822
a(S'18'
S'3812'
tp1823
a(S'18'
S'8573'
tp1824
a(S'18'
S'3812'
tp1825
a(S'18'
S'8573'
tp1826
a(S'18'
S'3812'
tp1827
a(S'18'
S'8573'
tp1828
a(S'18'
S'3812'
tp1829
a(S'18'
S'7221'
tp1830
a(S'18'
S'7221'
tp1831
a(S'18'
S'7463'
tp1832
a(S'18'
S'7221'
tp1833
a(S'18'
S'7463'
tp1834
a(S'18'
S'7221'
tp1835
a(S'18'
S'8573'
tp1836
a(S'18'
g710
tp1837
a(S'18'
g1357
tp1838
a(S'18'
g1241
tp1839
a(S'18'
g1112
tp1840
a(S'18'
g675
tp1841
a(S'18'
g192
tp1842
a(S'18'
g165
tp1843
a(S'18'
S'7221'
tp1844
a(S'18'
S'7221'
tp1845
a(S'18'
g680
tp1846
a(S'18'
S'591'
tp1847
a(S'18'
g82
tp1848
a(S'18'
g737
tp1849
a(S'18'
g209
tp1850
a(S'18'
g882
tp1851
a(S'18'
S'3812'
tp1852
a(S'18'
g942
tp1853
a(S'18'
g606
tp1854
a(S'18'
g1265
tp1855
a(S'18'
g1431
tp1856
a(S'18'
S'2922'
tp1857
a(S'18'
S'7463'
tp1858
a(S'18'
S'3812'
tp1859
a(S'18'
S'8573'
tp1860
a(S'18'
g18
tp1861
a(S'18'
S'7463'
tp1862
a(S'18'
g652
tp1863
a(S'18'
S'3812'
tp1864
a(S'18'
S'7221'
tp1865
a(S'18'
S'3812'
tp1866
a(S'18'
S'7221'
tp1867
a(S'18'
S'3812'
tp1868
a(S'18'
S'7221'
tp1869
a(g502
g1375
tp1870
a(S'19'
g1072
tp1871
a(S'19'
g526
tp1872
a(S'19'
g948
tp1873
a(S'19'
S'3167'
tp1874
a(S'19'
g875
tp1875
a(S'19'
g1056
tp1876
a(S'19'
S'2722'
tp1877
a(S'19'
S'3835'
tp1878
a(S'19'
S'1464'
tp1879
a(S'19'
g298
tp1880
a(S'19'
g641
tp1881
a(S'19'
g214
tp1882
a(S'19'
g1374
tp1883
a(S'19'
g389
tp1884
a(S'19'
g731
tp1885
a(S'19'
g953
tp1886
a(S'19'
g419
tp1887
a(S'19'
S'3779'
tp1888
a(S'19'
g442
tp1889
a(S'19'
g1336
tp1890
a(S'19'
g845
tp1891
a(S'19'
S'4247'
tp1892
a(S'19'
g194
tp1893
a(S'19'
g99
tp1894
a(S'19'
g802
tp1895
a(S'19'
g1370
tp1896
a(S'19'
g106
tp1897
a(S'19'
g520
tp1898
a(S'19'
g634
tp1899
a(S'19'
g1353
tp1900
a(S'19'
g713
tp1901
a(S'19'
g547
tp1902
a(S'19'
g853
tp1903
a(S'19'
g854
tp1904
a(S'19'
g545
tp1905
a(S'19'
S'5286'
tp1906
a(S'19'
S'11923'
tp1907
a(S'19'
g205
tp1908
a(S'19'
S'11923'
tp1909
a(S'19'
g538
tp1910
a(S'19'
g67
tp1911
a(S'19'
g1050
tp1912
a(S'19'
g668
tp1913
a(S'19'
g81
tp1914
a(S'19'
g817
tp1915
a(S'19'
g176
tp1916
a(S'19'
S'8413'
tp1917
a(g833
g1225
tp1918
a(S'20'
S'3812'
tp1919
a(S'20'
g1285
tp1920
a(S'20'
g1006
tp1921
a(S'20'
g1439
tp1922
a(S'20'
g255
tp1923
a(S'20'
g1190
tp1924
a(S'20'
S'6001'
tp1925
a(S'20'
S'5378'
tp1926
a(S'20'
S'1635'
tp1927
a(S'20'
S'3324'
tp1928
a(S'20'
S'4862'
tp1929
a(S'20'
g1148
tp1930
a(S'20'
g1352
tp1931
a(S'20'
S'336'
tp1932
a(S'20'
S'463'
tp1933
a(S'20'
g125
tp1934
a(S'20'
g1186
tp1935
a(S'20'
S'3324'
tp1936
a(S'20'
g613
tp1937
a(S'20'
S'9408'
tp1938
a(S'20'
S'7380'
tp1939
a(S'20'
S'3324'
tp1940
a(S'20'
S'6525'
tp1941
a(S'20'
g5
tp1942
a(S'20'
S'3324'
tp1943
a(S'20'
g1097
tp1944
a(S'20'
g1117
tp1945
a(S'20'
S'8625'
tp1946
a(S'20'
S'7516'
tp1947
a(S'20'
S'6599'
tp1948
a(S'20'
S'8625'
tp1949
a(S'20'
S'7516'
tp1950
a(S'20'
S'6599'
tp1951
a(S'20'
S'1635'
tp1952
a(S'20'
S'6599'
tp1953
a(S'20'
S'8360'
tp1954
a(S'20'
g696
tp1955
a(S'20'
S'463'
tp1956
a(S'20'
g239
tp1957
a(S'20'
g1057
tp1958
a(S'20'
g777
tp1959
a(S'20'
g48
tp1960
a(S'20'
S'3324'
tp1961
a(S'20'
S'2924'
tp1962
a(S'20'
S'7534'
tp1963
a(S'20'
S'2924'
tp1964
a(S'20'
S'7534'
tp1965
a(S'20'
g1300
tp1966
a(S'20'
g1417
tp1967
a(S'20'
S'4875'
tp1968
a(S'20'
S'6307'
tp1969
a(S'20'
S'7628'
tp1970
a(S'20'
g1235
tp1971
a(S'20'
S'7628'
tp1972
a(S'20'
S'2831'
tp1973
a(S'20'
g816
tp1974
a(S'20'
S'8756'
tp1975
a(S'20'
S'3812'
tp1976
a(S'20'
g824
tp1977
a(S'20'
S'9113'
tp1978
a(S'20'
S'1379'
tp1979
a(S'20'
S'2556'
tp1980
a(S'20'
g373
tp1981
a(S'20'
g1493
tp1982
a(S'20'
g957
tp1983
a(S'20'
g518
tp1984
a(S'20'
S'14978'
tp1985
a(S'20'
S'5803'
tp1986
a(S'20'
S'4875'
tp1987
a(S'20'
g1260
tp1988
a(S'20'
S'8643'
tp1989
a(S'20'
g648
tp1990
a(S'20'
g90
tp1991
a(g834
S'1195'
tp1992
a(S'21'
g425
tp1993
a(S'21'
g1201
tp1994
a(g580
S'846'
tp1995
a(S'22'
S'846'
tp1996
a(S'22'
g456
tp1997
a(S'22'
g806
tp1998
a(S'22'
g484
tp1999
a(S'22'
S'3324'
tp2000
a(S'22'
g1253
tp2001
a(S'22'
S'8574'
tp2002
a(S'22'
S'1710'
tp2003
a(S'22'
S'2909'
tp2004
a(S'22'
g869
tp2005
a(S'22'
g302
tp2006
a(S'22'
g1398
tp2007
a(S'22'
S'4247'
tp2008
a(S'22'
S'3324'
tp2009
a(S'22'
g1111
tp2010
a(S'22'
g1494
tp2011
a(S'22'
g440
tp2012
a(S'22'
g1091
tp2013
a(S'22'
g1302
tp2014
a(S'22'
g931
tp2015
a(S'22'
g147
tp2016
a(S'22'
g89
tp2017
a(S'22'
g636
tp2018
a(S'22'
S'8574'
tp2019
a(S'22'
S'8574'
tp2020
a(S'22'
S'336'
tp2021
a(S'22'
g1102
tp2022
a(S'22'
g344
tp2023
a(S'22'
S'8792'
tp2024
a(S'22'
g862
tp2025
a(S'22'
S'3674'
tp2026
a(S'22'
S'4387'
tp2027
a(S'22'
g851
tp2028
a(S'22'
S'6735'
tp2029
a(S'22'
g449
tp2030
a(S'22'
g552
tp2031
a(S'22'
S'8574'
tp2032
a(S'22'
g40
tp2033
a(S'22'
g711
tp2034
a(S'22'
g904
tp2035
a(S'22'
g1063
tp2036
a(S'22'
g714
tp2037
a(S'22'
g1287
tp2038
a(S'22'
g1452
tp2039
a(S'22'
S'3346'
tp2040
a(S'22'
S'5344'
tp2041
a(S'22'
g852
tp2042
a(S'22'
S'6861'
tp2043
a(S'22'
g630
tp2044
a(S'22'
S'7647'
tp2045
a(S'22'
S'4670'
tp2046
a(S'22'
S'1023'
tp2047
a(S'22'
g1263
tp2048
a(S'22'
S'924'
tp2049
a(S'22'
S'1710'
tp2050
a(S'22'
S'6896'
tp2051
a(S'22'
S'3324'
tp2052
a(S'22'
S'8574'
tp2053
a(S'22'
S'6259'
tp2054
a(S'22'
g166
tp2055
a(S'22'
S'6990'
tp2056
a(S'22'
g175
tp2057
a(S'22'
S'3346'
tp2058
a(S'22'
S'3346'
tp2059
a(S'22'
g688
tp2060
a(S'22'
g506
tp2061
a(S'22'
g765
tp2062
a(S'22'
S'7764'
tp2063
a(S'22'
S'6270'
tp2064
a(S'22'
g461
tp2065
a(S'22'
g1441
tp2066
a(S'22'
g195
tp2067
a(S'22'
S'171'
tp2068
a(S'22'
S'8449'
tp2069
a(S'22'
S'171'
tp2070
a(S'22'
S'8449'
tp2071
a(S'22'
S'171'
tp2072
a(S'22'
S'8826'
tp2073
a(S'22'
S'8643'
tp2074
a(S'22'
g11
tp2075
a(S'22'
g823
tp2076
a(S'22'
g978
tp2077
a(S'22'
S'4584'
tp2078
a(S'22'
g930
tp2079
a(S'22'
g741
tp2080
a(S'22'
g374
tp2081
a(S'22'
S'4247'
tp2082
a(S'22'
S'4584'
tp2083
a(S'22'
g91
tp2084
a(S'22'
g812
tp2085
a(S'22'
g323
tp2086
a(S'22'
g1227
tp2087
a(S'22'
S'924'
tp2088
a(S'22'
S'1710'
tp2089
a(S'22'
S'6896'
tp2090
a(S'22'
g346
tp2091
a(S'22'
S'3324'
tp2092
a(S'22'
S'8574'
tp2093
a(g836
S'14978'
tp2094
a(S'23'
S'4875'
tp2095
a(S'23'
g190
tp2096
a(S'23'
S'5174'
tp2097
a(S'23'
g612
tp2098
a(S'23'
g250
tp2099
a(S'23'
g927
tp2100
a(S'23'
g906
tp2101
a(S'23'
g160
tp2102
a(g831
S'2924'
tp2103
a(S'26'
S'7534'
tp2104
a(S'26'
g1143
tp2105
a(S'26'
S'1379'
tp2106
a(S'26'
g618
tp2107
a(S'26'
g564
tp2108
a(S'26'
S'8643'
tp2109
a(g837
g1130
tp2110
a(S'29'
g61
tp2111
a(S'29'
g386
tp2112
a(S'29'
g257
tp2113
a(S'29'
g102
tp2114
a(S'29'
g605
tp2115
a(S'29'
S'4875'
tp2116
a(S'29'
S'6307'
tp2117
a(S'29'
g483
tp2118
a(S'29'
S'6820'
tp2119
a(S'29'
g1380
tp2120
a(S'29'
g604
tp2121
a(S'29'
S'563'
tp2122
a(S'29'
g1321
tp2123
a(S'29'
S'5384'
tp2124
a(S'29'
g1153
tp2125
a(S'29'
S'4197'
tp2126
a(g1139
S'485'
tp2127
a(g1138
g1012
tp2128
a(S'31'
S'6599'
tp2129
a(S'31'
g556
tp2130
a(S'31'
g443
tp2131
a(S'31'
g667
tp2132
a(g1137
S'8573'
tp2133
a(S'32'
S'15329'
tp2134
a(S'32'
S'8573'
tp2135
a(S'32'
S'3812'
tp2136
a(S'32'
S'8573'
tp2137
a(g1141
g649
tp2138
a(S'34'
g766
tp2139
a(S'34'
g735
tp2140
a(S'34'
S'1023'
tp2141
a(S'34'
g723
tp2142
a(S'34'
g700
tp2143
a(S'34'
g529
tp2144
a(S'34'
g1246
tp2145
a(S'34'
g1284
tp2146
a(S'34'
S'3104'
tp2147
a(S'34'
g1071
tp2148
a(S'34'
g367
tp2149
a(S'34'
g1121
tp2150
a(S'34'
S'15152'
tp2151
a(S'34'
g454
tp2152
a(S'34'
g448
tp2153
a(S'34'
g212
tp2154
a(S'34'
g1140
tp2155
a(S'35'
S'846'
tp2156
a(S'35'
g1128
tp2157
a(S'35'
g164
tp2158
a(S'35'
g510
tp2159
a(S'35'
g843
tp2160
a(S'35'
g399
tp2161
a(S'35'
S'8906'
tp2162
a(S'35'
S'8562'
tp2163
a(S'35'
S'1885'
tp2164
a(S'35'
S'2194'
tp2165
a(S'35'
g1228
tp2166
a(S'35'
S'8792'
tp2167
a(S'35'
g73
tp2168
a(S'35'
S'6234'
tp2169
a(S'35'
g138
tp2170
a(S'35'
g842
tp2171
a(S'35'
g453
tp2172
a(S'35'
g934
tp2173
a(S'35'
g744
tp2174
a(S'35'
g156
tp2175
a(S'35'
g1408
tp2176
a(S'35'
S'2194'
tp2177
a(S'35'
g1404
tp2178
a(S'35'
S'2194'
tp2179
a(g1136
g907
tp2180
a(S'39'
S'1365'
tp2181
a(S'39'
g1036
tp2182
a(S'39'
g50
tp2183
a(g1476
S'1365'
tp2184
a(S'41'
g897
tp2185
a(S'41'
g1348
tp2186
a(S'41'
g312
tp2187
a(S'41'
g1040
tp2188
a(S'41'
S'14088'
tp2189
a(S'41'
g1356
tp2190
a(g1475
S'6259'
tp2191
a(S'43'
S'9373'
tp2192
a(S'43'
S'6990'
tp2193
a(S'43'
S'8719'
tp2194
a(S'43'
g673
tp2195
a(S'43'
g365
tp2196
a(S'43'
g131
tp2197
a(g1474
S'3313'
tp2198
a(S'44'
S'7628'
tp2199
a(S'44'
S'622'
tp2200
a(S'44'
S'7621'
tp2201
a(S'44'
S'6184'
tp2202
a(S'44'
S'3785'
tp2203
a(S'44'
S'1439'
tp2204
a(S'44'
S'5371'
tp2205
a(S'44'
S'6495'
tp2206
a(S'44'
S'12835'
tp2207
a(S'44'
S'1970'
tp2208
a(S'44'
S'2643'
tp2209
a(S'44'
S'820'
tp2210
a(S'44'
S'5634'
tp2211
a(g1472
g390
tp2212
a(S'48'
g1124
tp2213
a(S'48'
g460
tp2214
a(S'48'
g974
tp2215
a(S'48'
g684
tp2216
a(S'48'
g959
tp2217
a(g1473
g867
tp2218
a(S'49'
g301
tp2219
a(S'49'
g1401
tp2220
a(S'49'
S'5893'
tp2221
a(S'49'
g1310
tp2222
a(S'49'
g635
tp2223
a(S'49'
g1158
tp2224
a(S'49'
g1064
tp2225
a(S'49'
S'8735'
tp2226
a(S'49'
g426
tp2227
a(S'49'
S'4247'
tp2228
a(S'49'
S'3835'
tp2229
a(S'49'
g679
tp2230
a(S'49'
g900
tp2231
a(S'49'
g1256
tp2232
a(S'49'
g237
tp2233
a(S'49'
S'6051'
tp2234
a(S'49'
g458
tp2235
a(S'49'
g1024
tp2236
a(S'49'
g830
tp2237
a(S'49'
S'4247'
tp2238
a(S'49'
g1252
tp2239
a(S'49'
g1107
tp2240
a(S'49'
S'5893'
tp2241
a(S'49'
g877
tp2242
a(S'49'
g327
tp2243
a(S'49'
g646
tp2244
a(S'49'
g976
tp2245
a(S'49'
g1059
tp2246
a(S'49'
S'2616'
tp2247
a(S'49'
S'6226'
tp2248
a(S'49'
S'2358'
tp2249
a(S'49'
g347
tp2250
a(S'49'
S'2352'
tp2251
a(S'49'
S'6226'
tp2252
a(S'49'
S'2358'
tp2253
a(S'49'
S'2616'
tp2254
a(S'49'
g1266
tp2255
a(S'49'
S'6051'
tp2256
a(S'49'
S'5893'
tp2257
a(S'49'
g1363
tp2258
a(S'49'
g1106
tp2259
a(S'49'
S'8564'
tp2260
a(S'49'
S'1068'
tp2261
a(S'49'
S'6051'
tp2262
a(S'49'
S'5893'
tp2263
a(S'49'
g1478
tp2264
a(S'49'
S'5444'
tp2265
a(S'49'
S'1802'
tp2266
a(S'49'
S'876'
tp2267
a(S'49'
S'4501'
tp2268
a(S'49'
S'1774'
tp2269
a(S'49'
S'846'
tp2270
a(S'49'
S'1033'
tp2271
a(S'49'
S'6051'
tp2272
a(S'49'
S'5174'
tp2273
a(S'49'
S'4247'
tp2274
a(S'49'
S'8202'
tp2275
a(S'49'
S'8202'
tp2276
a(S'49'
g779
tp2277
a(S'49'
S'989'
tp2278
a(S'49'
S'6051'
tp2279
a(S'49'
S'5893'
tp2280
a(S'49'
S'6259'
tp2281
a(S'49'
S'9373'
tp2282
a(S'49'
S'6990'
tp2283
a(S'49'
S'8719'
tp2284
a(S'49'
S'6259'
tp2285
a(S'49'
S'9373'
tp2286
a(S'49'
S'6990'
tp2287
a(S'49'
S'8719'
tp2288
a(S'49'
S'6051'
tp2289
a(S'49'
S'6051'
tp2290
a(S'49'
S'6051'
tp2291
a(S'49'
S'1296'
tp2292
a(S'49'
g1154
tp2293
a(S'49'
g1142
tp2294
a(S'49'
g219
tp2295
a(S'49'
g1489
tp2296
a(S'49'
g171
tp2297
a(S'49'
g1223
tp2298
a(S'49'
g451
tp2299
a(S'49'
g1331
tp2300
a(S'49'
S'9264'
tp2301
a(S'49'
S'3345'
tp2302
a(S'49'
g182
tp2303
a(S'49'
S'4247'
tp2304
a(S'49'
g354
tp2305
a(S'49'
g26
tp2306
a(S'49'
S'989'
tp2307
a(S'49'
S'643'
tp2308
a(S'49'
S'11588'
tp2309
a(S'49'
S'5637'
tp2310
a(S'49'
S'1544'
tp2311
a(S'49'
S'587'
tp2312
a(S'49'
S'1486'
tp2313
a(S'49'
S'13039'
tp2314
a(S'49'
S'9264'
tp2315
a(S'49'
S'3345'
tp2316
a(S'49'
S'7444'
tp2317
a(S'49'
S'4247'
tp2318
a(S'49'
S'3256'
tp2319
a(S'49'
S'2265'
tp2320
a(S'49'
S'989'
tp2321
a(S'49'
g775
tp2322
a(S'49'
S'2324'
tp2323
a(S'49'
S'14978'
tp2324
a(S'49'
S'5893'
tp2325
a(S'49'
g1216
tp2326
a(S'49'
g1208
tp2327
a(S'49'
S'14986'
tp2328
a(S'49'
g614
tp2329
a(S'49'
S'9264'
tp2330
a(S'49'
S'5893'
tp2331
a(S'49'
g444
tp2332
a(S'49'
g1187
tp2333
a(S'49'
S'4247'
tp2334
a(S'49'
g962
tp2335
a(S'49'
S'4247'
tp2336
a(S'49'
g1381
tp2337
a(S'49'
g436
tp2338
a(S'49'
g940
tp2339
a(S'49'
S'2639'
tp2340
a(S'49'
g406
tp2341
a(S'49'
g1443
tp2342
a(S'49'
S'4543'
tp2343
a(S'49'
S'9888'
tp2344
a(S'49'
S'14662'
tp2345
a(S'49'
S'13194'
tp2346
a(S'49'
S'2639'
tp2347
a(S'49'
S'144'
tp2348
a(S'49'
S'13043'
tp2349
a(S'49'
S'4543'
tp2350
a(S'49'
g401
tp2351
a(S'49'
g1100
tp2352
a(S'49'
g328
tp2353
a(S'49'
g1170
tp2354
a(S'49'
S'144'
tp2355
a(S'49'
g1477
tp2356
a(S'49'
S'14662'
tp2357
a(S'49'
g888
tp2358
a(S'49'
g132
tp2359
a(S'49'
g382
tp2360
a(S'49'
S'5893'
tp2361
a(S'49'
g1254
tp2362
a(S'49'
g1055
tp2363
a(S'49'
g828
tp2364
a(S'49'
S'7326'
tp2365
a(S'49'
g262
tp2366
a(g276
S'6982'
tp2367
a(S'50'
S'2726'
tp2368
a(S'50'
S'4516'
tp2369
a(S'50'
S'2639'
tp2370
a(S'50'
S'2352'
tp2371
a(S'50'
S'2616'
tp2372
a(S'50'
S'6226'
tp2373
a(S'50'
S'2358'
tp2374
a(S'50'
S'4999'
tp2375
a(S'50'
S'2352'
tp2376
a(S'50'
S'6226'
tp2377
a(S'50'
S'2358'
tp2378
a(S'50'
S'2616'
tp2379
a(S'50'
S'6621'
tp2380
a(S'50'
S'1033'
tp2381
a(g278
g1164
tp2382
a(S'52'
S'2120'
tp2383
a(S'52'
g1053
tp2384
a(S'52'
g95
tp2385
a(S'52'
S'5634'
tp2386
a(S'52'
S'1633'
tp2387
a(S'52'
g428
tp2388
a(S'52'
g481
tp2389
a(S'52'
g1152
tp2390
a(S'52'
g724
tp2391
a(S'52'
g1229
tp2392
a(S'52'
g1261
tp2393
a(S'52'
g566
tp2394
a(S'52'
g1067
tp2395
a(S'52'
g8
tp2396
a(S'52'
g734
tp2397
a(S'52'
g1015
tp2398
a(S'52'
g921
tp2399
a(S'52'
g366
tp2400
a(S'52'
S'2185'
tp2401
a(S'52'
S'7647'
tp2402
a(S'52'
g216
tp2403
a(S'52'
S'2185'
tp2404
a(S'52'
S'7647'
tp2405
a(S'52'
S'2207'
tp2406
a(S'52'
g1329
tp2407
a(S'52'
S'7370'
tp2408
a(S'52'
S'5169'
tp2409
a(S'52'
S'7161'
tp2410
a(S'52'
S'5175'
tp2411
a(S'52'
S'8792'
tp2412
a(S'52'
S'5457'
tp2413
a(S'52'
S'6234'
tp2414
a(S'52'
S'7326'
tp2415
a(S'52'
S'6713'
tp2416
a(S'52'
S'8792'
tp2417
a(S'52'
S'5457'
tp2418
a(S'52'
S'6234'
tp2419
a(S'52'
S'7326'
tp2420
a(S'52'
S'6713'
tp2421
a(S'52'
g152
tp2422
a(S'52'
S'5448'
tp2423
a(S'52'
g1239
tp2424
a(S'52'
g429
tp2425
a(S'52'
S'4268'
tp2426
a(S'52'
S'1831'
tp2427
a(S'52'
g656
tp2428
a(S'52'
g9
tp2429
a(S'52'
g351
tp2430
a(S'52'
S'3640'
tp2431
a(S'52'
S'6155'
tp2432
a(S'52'
S'4726'
tp2433
a(S'52'
S'3640'
tp2434
a(S'52'
S'6155'
tp2435
a(S'52'
S'4726'
tp2436
a(S'52'
S'846'
tp2437
a(S'52'
S'846'
tp2438
a(S'52'
S'5495'
tp2439
a(S'52'
g1307
tp2440
a(S'52'
g755
tp2441
a(S'52'
g537
tp2442
a(S'52'
g208
tp2443
a(S'52'
g914
tp2444
a(S'52'
S'5147'
tp2445
a(S'52'
g627
tp2446
a(S'52'
g379
tp2447
a(S'52'
g938
tp2448
a(S'52'
g464
tp2449
a(S'52'
S'3835'
tp2450
a(S'52'
S'14891'
tp2451
a(S'52'
S'3010'
tp2452
a(S'52'
S'3835'
tp2453
a(S'52'
S'14891'
tp2454
a(S'52'
S'3010'
tp2455
a(S'52'
S'3835'
tp2456
a(S'52'
g490
tp2457
a(S'52'
S'7370'
tp2458
a(S'52'
g371
tp2459
a(S'52'
S'4199'
tp2460
a(S'52'
g1104
tp2461
a(S'52'
S'3204'
tp2462
a(S'52'
g653
tp2463
a(S'52'
S'9113'
tp2464
a(S'52'
g704
tp2465
a(S'52'
S'14986'
tp2466
a(S'52'
S'6742'
tp2467
a(S'52'
S'4404'
tp2468
a(S'52'
S'5286'
tp2469
a(S'52'
S'7626'
tp2470
a(S'52'
g415
tp2471
a(S'52'
S'6707'
tp2472
a(S'52'
g586
tp2473
a(S'52'
S'6707'
tp2474
a(S'52'
S'3005'
tp2475
a(S'52'
S'2099'
tp2476
a(S'52'
S'2099'
tp2477
a(S'52'
S'2099'
tp2478
a(S'52'
S'6707'
tp2479
a(S'52'
S'3005'
tp2480
a(S'52'
S'2792'
tp2481
a(S'52'
S'2099'
tp2482
a(S'52'
S'3835'
tp2483
a(S'52'
S'7639'
tp2484
a(S'52'
S'5895'
tp2485
a(S'52'
S'8294'
tp2486
a(S'52'
g1332
tp2487
a(S'52'
g1200
tp2488
a(S'52'
S'2792'
tp2489
a(S'52'
S'8294'
tp2490
a(S'52'
S'2792'
tp2491
a(S'52'
S'2540'
tp2492
a(S'52'
S'2099'
tp2493
a(S'52'
S'2792'
tp2494
a(S'52'
S'2099'
tp2495
a(S'52'
S'5147'
tp2496
a(S'52'
g1159
tp2497
a(S'52'
g1400
tp2498
a(S'52'
g1427
tp2499
a(S'52'
S'1633'
tp2500
a(S'52'
g1275
tp2501
a(S'52'
g397
tp2502
a(S'52'
S'1633'
tp2503
a(S'52'
S'11412'
tp2504
a(S'52'
S'9949'
tp2505
a(S'52'
S'1633'
tp2506
a(S'52'
S'7958'
tp2507
a(S'52'
g1010
tp2508
a(S'52'
S'1633'
tp2509
a(S'52'
S'11412'
tp2510
a(S'52'
S'9949'
tp2511
a(S'52'
S'6462'
tp2512
a(S'52'
S'1023'
tp2513
a(S'52'
g1146
tp2514
a(S'52'
g265
tp2515
a(S'52'
S'3121'
tp2516
a(S'52'
S'8143'
tp2517
a(S'52'
S'3121'
tp2518
a(S'52'
S'8143'
tp2519
a(S'52'
g995
tp2520
a(S'52'
g1337
tp2521
a(S'52'
S'4404'
tp2522
a(S'52'
S'5286'
tp2523
a(S'52'
S'4404'
tp2524
a(S'52'
S'5286'
tp2525
a(S'52'
g1022
tp2526
a(S'52'
g551
tp2527
a(S'52'
S'1633'
tp2528
a(S'52'
g377
tp2529
a(S'52'
g123
tp2530
a(S'52'
S'7958'
tp2531
a(S'52'
g759
tp2532
a(S'52'
S'8885'
tp2533
a(S'52'
g569
tp2534
a(S'52'
g187
tp2535
a(S'52'
S'15247'
tp2536
a(S'52'
S'8882'
tp2537
a(S'52'
S'413'
tp2538
a(S'52'
S'15247'
tp2539
a(S'52'
g1092
tp2540
a(S'52'
g513
tp2541
a(S'52'
g1103
tp2542
a(S'52'
g1126
tp2543
a(S'52'
S'2540'
tp2544
a(S'52'
S'2099'
tp2545
a(S'52'
S'5877'
tp2546
a(S'52'
S'2540'
tp2547
a(S'52'
S'2099'
tp2548
a(S'52'
S'5877'
tp2549
a(S'52'
S'8882'
tp2550
a(S'52'
g1335
tp2551
a(S'52'
S'15247'
tp2552
a(S'52'
S'8294'
tp2553
a(S'52'
S'15247'
tp2554
a(S'52'
S'1633'
tp2555
a(S'52'
S'7958'
tp2556
a(S'52'
S'846'
tp2557
a(S'52'
S'6713'
tp2558
a(S'52'
S'5175'
tp2559
a(S'52'
S'2099'
tp2560
a(S'52'
S'5877'
tp2561
a(g277
g690
tp2562
a(S'53'
g420
tp2563
a(g272
g671
tp2564
a(S'54'
g170
tp2565
a(S'54'
S'1856'
tp2566
a(S'54'
S'693'
tp2567
a(S'54'
S'1856'
tp2568
a(S'54'
g1150
tp2569
a(S'54'
g924
tp2570
a(g274
g847
tp2571
a(S'56'
g791
tp2572
a(S'56'
g682
tp2573
a(S'56'
S'15329'
tp2574
a(S'56'
g1449
tp2575
a(S'56'
g715
tp2576
a(S'56'
g990
tp2577
a(S'56'
g1132
tp2578
a(S'56'
g1093
tp2579
a(S'56'
g678
tp2580
a(S'56'
g1490
tp2581
a(S'56'
g249
tp2582
a(S'56'
g185
tp2583
a(S'56'
g1244
tp2584
a(S'56'
g271
tp2585
a(S'56'
g188
tp2586
a(S'56'
g1120
tp2587
a(S'56'
S'4639'
tp2588
a(S'56'
g910
tp2589
a(S'56'
S'15153'
tp2590
a(S'56'
S'13842'
tp2591
a(S'56'
S'2378'
tp2592
a(S'56'
S'8215'
tp2593
a(S'56'
g46
tp2594
a(S'56'
g1070
tp2595
a(S'56'
g909
tp2596
a(S'56'
g751
tp2597
a(S'56'
S'5901'
tp2598
a(S'56'
g651
tp2599
a(S'56'
g1016
tp2600
a(S'56'
S'5147'
tp2601
a(S'56'
S'4199'
tp2602
a(S'56'
g1202
tp2603
a(S'56'
g1243
tp2604
a(S'56'
g470
tp2605
a(S'56'
S'8215'
tp2606
a(S'56'
g1413
tp2607
a(S'56'
g356
tp2608
a(S'56'
S'15162'
tp2609
a(S'56'
g86
tp2610
a(S'56'
S'13347'
tp2611
a(S'56'
g883
tp2612
a(S'56'
g819
tp2613
a(S'56'
g1087
tp2614
a(S'56'
g584
tp2615
a(S'56'
g1044
tp2616
a(S'56'
S'1464'
tp2617
a(S'56'
S'7573'
tp2618
a(g273
g1177
tp2619
a(S'57'
g504
tp2620
a(S'57'
g969
tp2621
a(S'57'
S'4681'
tp2622
a(S'57'
S'15162'
tp2623
a(S'57'
g469
tp2624
a(S'57'
S'3329'
tp2625
a(g270
S'1379'
tp2626
a(S'58'
g998
tp2627
a(S'58'
g320
tp2628
a(S'58'
S'4445'
tp2629
a(S'58'
g101
tp2630
a(S'58'
S'846'
tp2631
a(S'58'
g495
tp2632
a(S'58'
S'8060'
tp2633
a(S'58'
g1074
tp2634
a(S'58'
S'6060'
tp2635
a(S'58'
g381
tp2636
a(S'58'
S'3944'
tp2637
a(S'58'
g1168
tp2638
a(S'58'
g994
tp2639
a(S'58'
g876
tp2640
a(S'58'
g841
tp2641
a(S'58'
S'6060'
tp2642
a(S'58'
S'6060'
tp2643
a(S'58'
g795
tp2644
a(S'58'
g394
tp2645
a(g657
S'1257'
tp2646
a(S'60'
S'2822'
tp2647
a(g587
S'6051'
tp2648
a(S'61'
S'11923'
tp2649
a(S'61'
g1278
tp2650
a(S'61'
S'5893'
tp2651
a(S'61'
S'8373'
tp2652
a(S'61'
S'4713'
tp2653
a(S'61'
S'5893'
tp2654
a(S'61'
S'8373'
tp2655
a(S'61'
S'6051'
tp2656
a(S'61'
S'5893'
tp2657
a(S'61'
g486
tp2658
a(S'61'
S'5424'
tp2659
a(S'61'
g1151
tp2660
a(S'61'
S'2880'
tp2661
a(S'61'
S'5424'
tp2662
a(S'61'
S'8343'
tp2663
a(S'61'
S'6259'
tp2664
a(S'61'
S'9373'
tp2665
a(S'61'
S'6990'
tp2666
a(S'61'
S'8719'
tp2667
a(S'61'
S'6259'
tp2668
a(S'61'
S'9373'
tp2669
a(S'61'
S'6990'
tp2670
a(S'61'
S'8719'
tp2671
a(S'61'
S'6259'
tp2672
a(S'61'
S'9373'
tp2673
a(S'61'
S'6990'
tp2674
a(S'61'
S'8719'
tp2675
a(S'61'
S'6051'
tp2676
a(S'61'
S'6051'
tp2677
a(S'61'
S'2722'
tp2678
a(S'61'
g543
tp2679
a(S'61'
g856
tp2680
a(S'61'
S'2411'
tp2681
a(S'61'
S'4584'
tp2682
a(S'61'
S'406'
tp2683
a(S'61'
S'4584'
tp2684
a(S'61'
S'406'
tp2685
a(S'61'
g87
tp2686
a(S'61'
g1035
tp2687
a(S'61'
S'7295'
tp2688
a(S'61'
S'989'
tp2689
a(S'61'
S'4247'
tp2690
a(S'61'
S'5625'
tp2691
a(S'61'
S'2395'
tp2692
a(S'61'
S'7295'
tp2693
a(S'61'
S'989'
tp2694
a(S'61'
S'4247'
tp2695
a(S'61'
S'4584'
tp2696
a(S'61'
S'4584'
tp2697
a(S'61'
S'11923'
tp2698
a(S'61'
S'9357'
tp2699
a(S'61'
g865
tp2700
a(g588
S'3324'
tp2701
a(S'62'
g121
tp2702
a(S'62'
S'8313'
tp2703
a(S'62'
S'202'
tp2704
a(S'62'
S'1052'
tp2705
a(S'62'
S'7370'
tp2706
a(S'62'
g139
tp2707
a(S'62'
S'3324'
tp2708
a(S'62'
S'4533'
tp2709
a(S'62'
g815
tp2710
a(S'62'
S'3593'
tp2711
a(S'62'
S'6713'
tp2712
a(S'62'
S'846'
tp2713
a(S'62'
g1030
tp2714
a(S'62'
S'7788'
tp2715
a(S'62'
S'2909'
tp2716
a(S'62'
S'7788'
tp2717
a(S'62'
S'2909'
tp2718
a(S'62'
S'6811'
tp2719
a(S'62'
g749
tp2720
a(S'62'
S'3324'
tp2721
a(S'62'
S'2909'
tp2722
a(S'62'
S'6946'
tp2723
a(S'62'
S'3308'
tp2724
a(S'62'
g926
tp2725
a(S'62'
g1444
tp2726
a(S'62'
S'5384'
tp2727
a(S'62'
S'3167'
tp2728
a(S'62'
S'6811'
tp2729
a(S'62'
S'3204'
tp2730
a(S'62'
S'8527'
tp2731
a(S'62'
S'6335'
tp2732
a(S'62'
g1242
tp2733
a(g589
g1388
tp2734
a(S'63'
S'2722'
tp2735
a(S'63'
S'6051'
tp2736
a(S'63'
g22
tp2737
a(S'63'
g805
tp2738
a(S'63'
g919
tp2739
a(S'63'
g868
tp2740
a(S'63'
g697
tp2741
a(S'63'
g27
tp2742
a(S'63'
g181
tp2743
a(S'63'
g947
tp2744
a(S'63'
g1075
tp2745
a(S'63'
g1049
tp2746
a(S'63'
S'6051'
tp2747
a(S'63'
S'5893'
tp2748
a(S'63'
S'6051'
tp2749
a(S'63'
S'5893'
tp2750
a(S'63'
S'6259'
tp2751
a(S'63'
S'9373'
tp2752
a(S'63'
S'6990'
tp2753
a(S'63'
S'8719'
tp2754
a(S'63'
S'6051'
tp2755
a(g590
g362
tp2756
a(S'64'
g85
tp2757
a(S'64'
g515
tp2758
a(S'64'
g363
tp2759
a(S'64'
g1205
tp2760
a(S'64'
S'6828'
tp2761
a(S'64'
g1019
tp2762
a(S'64'
g42
tp2763
a(S'64'
S'3536'
tp2764
a(S'64'
S'9108'
tp2765
a(S'64'
S'8060'
tp2766
a(S'64'
S'2909'
tp2767
a(S'64'
g1017
tp2768
a(S'64'
S'14749'
tp2769
a(S'64'
S'9108'
tp2770
a(S'64'
g597
tp2771
a(S'64'
g487
tp2772
a(S'64'
S'9113'
tp2773
a(S'64'
S'1464'
tp2774
a(S'64'
S'7573'
tp2775
a(g591
g1393
tp2776
a(S'65'
g290
tp2777
a(S'65'
g887
tp2778
a(S'65'
g822
tp2779
a(S'65'
S'4641'
tp2780
a(S'65'
S'429'
tp2781
a(S'65'
S'2750'
tp2782
a(S'65'
S'8647'
tp2783
a(S'65'
S'4641'
tp2784
a(S'65'
S'429'
tp2785
a(S'65'
S'2750'
tp2786
a(S'65'
S'8647'
tp2787
a(S'65'
S'4641'
tp2788
a(S'65'
S'429'
tp2789
a(S'65'
S'2750'
tp2790
a(S'65'
S'8647'
tp2791
a(S'65'
S'4641'
tp2792
a(S'65'
S'429'
tp2793
a(S'65'
S'2750'
tp2794
a(S'65'
S'8647'
tp2795
a(S'65'
g1144
tp2796
a(S'65'
S'7174'
tp2797
a(S'65'
g142
tp2798
a(S'65'
g703
tp2799
a(S'65'
g455
tp2800
a(S'65'
g293
tp2801
a(S'65'
g993
tp2802
a(S'65'
g1176
tp2803
a(S'65'
g743
tp2804
a(S'65'
g303
tp2805
a(S'65'
g109
tp2806
a(S'65'
S'3346'
tp2807
a(S'65'
g505
tp2808
a(S'65'
g920
tp2809
a(S'65'
g1125
tp2810
a(S'65'
S'5194'
tp2811
a(S'65'
g849
tp2812
a(g592
S'6731'
tp2813
a(S'66'
S'6820'
tp2814
a(S'66'
S'8792'
tp2815
a(S'66'
g477
tp2816
a(S'66'
S'7326'
tp2817
a(S'66'
g268
tp2818
a(S'66'
S'8792'
tp2819
a(S'66'
S'628'
tp2820
a(S'66'
S'7326'
tp2821
a(S'66'
S'5511'
tp2822
a(S'66'
g296
tp2823
a(S'66'
g533
tp2824
a(S'66'
S'1023'
tp2825
a(S'66'
S'15336'
tp2826
a(S'66'
g891
tp2827
a(S'66'
g798
tp2828
a(S'66'
g441
tp2829
a(S'66'
g372
tp2830
a(S'66'
g393
tp2831
a(S'66'
g319
tp2832
a(S'66'
S'1801'
tp2833
a(S'66'
S'1802'
tp2834
a(S'66'
S'563'
tp2835
a(S'66'
S'2909'
tp2836
a(S'66'
S'2909'
tp2837
a(S'66'
g116
tp2838
a(S'66'
g659
tp2839
a(S'66'
g228
tp2840
a(S'66'
S'4831'
tp2841
a(S'66'
g531
tp2842
a(S'66'
S'5511'
tp2843
a(S'66'
g264
tp2844
a(S'66'
g694
tp2845
a(S'66'
S'6713'
tp2846
a(S'66'
S'8792'
tp2847
a(S'66'
g222
tp2848
a(S'66'
S'7326'
tp2849
a(S'66'
S'4387'
tp2850
a(S'66'
g1454
tp2851
a(S'66'
S'4387'
tp2852
a(S'66'
S'3173'
tp2853
a(S'66'
S'7788'
tp2854
a(S'66'
g702
tp2855
a(S'66'
S'2909'
tp2856
a(S'66'
S'7370'
tp2857
a(S'66'
S'8259'
tp2858
a(S'66'
S'5147'
tp2859
a(S'66'
S'7573'
tp2860
a(S'66'
S'4199'
tp2861
a(S'66'
S'7689'
tp2862
a(S'66'
S'846'
tp2863
a(S'66'
S'7689'
tp2864
a(S'66'
S'846'
tp2865
a(S'66'
g432
tp2866
a(S'66'
S'4639'
tp2867
a(S'66'
S'5147'
tp2868
a(S'66'
S'2340'
tp2869
a(S'66'
g621
tp2870
a(S'66'
g1145
tp2871
a(S'66'
S'7185'
tp2872
a(S'66'
g1349
tp2873
a(S'66'
g889
tp2874
a(S'66'
g1420
tp2875
a(S'66'
S'409'
tp2876
a(S'66'
g1191
tp2877
a(S'66'
S'846'
tp2878
a(S'66'
g338
tp2879
a(S'66'
S'3167'
tp2880
a(S'66'
S'11923'
tp2881
a(S'66'
S'6731'
tp2882
a(S'66'
S'6731'
tp2883
a(S'66'
S'4012'
tp2884
a(S'66'
S'7370'
tp2885
a(S'66'
S'2909'
tp2886
a(S'66'
g492
tp2887
a(S'67'
S'818'
tp2888
a(S'67'
S'818'
tp2889
a(S'67'
S'818'
tp2890
a(S'67'
S'818'
tp2891
a(S'67'
S'1195'
tp2892
a(S'67'
S'1195'
tp2893
a(S'67'
S'1195'
tp2894
a(S'67'
S'1195'
tp2895
a(S'67'
S'64'
tp2896
a(S'67'
S'8544'
tp2897
a(S'67'
S'13893'
tp2898
a(S'67'
S'14215'
tp2899
a(S'67'
S'6858'
tp2900
a(S'67'
S'6828'
tp2901
a(S'67'
S'13103'
tp2902
a(S'67'
S'14447'
tp2903
a(S'67'
S'7168'
tp2904
a(S'67'
g17
tp2905
a(S'67'
S'5191'
tp2906
a(S'67'
S'297'
tp2907
a(S'67'
g1414
tp2908
a(S'67'
S'14766'
tp2909
a(S'67'
S'8403'
tp2910
a(S'67'
S'58'
tp2911
a(S'67'
g1297
tp2912
a(S'67'
S'287'
tp2913
a(S'67'
S'7168'
tp2914
a(S'67'
S'290'
tp2915
a(S'67'
S'5191'
tp2916
a(S'67'
S'297'
tp2917
a(S'67'
S'2786'
tp2918
a(S'67'
S'14766'
tp2919
a(S'67'
S'8403'
tp2920
a(S'67'
S'58'
tp2921
a(S'67'
S'125'
tp2922
a(S'67'
S'287'
tp2923
a(S'67'
S'1296'
tp2924
a(S'67'
S'628'
tp2925
a(S'67'
S'6664'
tp2926
a(S'67'
S'853'
tp2927
a(S'67'
S'1933'
tp2928
a(S'67'
S'3104'
tp2929
a(S'67'
S'5823'
tp2930
a(S'67'
g1373
tp2931
a(S'67'
S'13702'
tp2932
a(S'67'
S'3997'
tp2933
a(S'67'
g941
tp2934
a(S'67'
g360
tp2935
a(S'67'
g424
tp2936
a(S'67'
g1025
tp2937
a(S'67'
g1290
tp2938
a(S'67'
S'850'
tp2939
a(S'67'
g1204
tp2940
a(S'67'
S'1499'
tp2941
a(S'67'
S'8282'
tp2942
a(S'67'
S'8282'
tp2943
a(S'67'
S'9113'
tp2944
a(S'67'
S'9113'
tp2945
a(S'67'
S'9113'
tp2946
a(S'67'
S'881'
tp2947
a(S'67'
g279
tp2948
a(S'67'
g256
tp2949
a(S'67'
g234
tp2950
a(S'67'
S'2909'
tp2951
a(S'67'
S'3944'
tp2952
a(S'67'
S'1617'
tp2953
a(S'67'
g838
tp2954
a(S'67'
S'6858'
tp2955
a(S'67'
S'6858'
tp2956
a(S'67'
S'6858'
tp2957
a(S'67'
S'6858'
tp2958
a(S'67'
g51
tp2959
a(S'67'
S'12763'
tp2960
a(S'67'
g774
tp2961
a(S'67'
g939
tp2962
a(S'67'
g532
tp2963
a(S'67'
S'6849'
tp2964
a(S'67'
S'9219'
tp2965
a(S'67'
g1052
tp2966
a(S'67'
g105
tp2967
a(S'67'
g952
tp2968
a(S'67'
g908
tp2969
a(S'67'
g465
tp2970
a(S'67'
g970
tp2971
a(S'67'
g21
tp2972
a(S'67'
g745
tp2973
a(S'67'
g1445
tp2974
a(S'67'
g396
tp2975
a(S'67'
S'4831'
tp2976
a(S'67'
g1257
tp2977
a(S'67'
g45
tp2978
a(S'67'
g263
tp2979
a(S'67'
S'5896'
tp2980
a(S'67'
S'9346'
tp2981
a(S'67'
S'1158'
tp2982
a(S'67'
S'1048'
tp2983
a(S'67'
S'1464'
tp2984
a(S'67'
S'3634'
tp2985
a(S'67'
S'7931'
tp2986
a(S'67'
S'6980'
tp2987
a(S'67'
g307
tp2988
a(S'67'
S'4550'
tp2989
a(S'67'
g787
tp2990
a(S'67'
S'4550'
tp2991
a(S'67'
S'855'
tp2992
a(S'67'
g93
tp2993
a(S'67'
S'7693'
tp2994
a(S'67'
S'7693'
tp2995
a(S'67'
S'7693'
tp2996
a(S'67'
S'7693'
tp2997
a(S'67'
S'6858'
tp2998
a(S'67'
g79
tp2999
a(S'67'
g383
tp3000
a(S'67'
S'8527'
tp3001
a(S'67'
S'6335'
tp3002
a(S'67'
S'5490'
tp3003
a(S'67'
S'5490'
tp3004
a(S'67'
S'5490'
tp3005
a(S'67'
g1463
tp3006
a(S'67'
S'14832'
tp3007
a(S'67'
S'5343'
tp3008
a(S'67'
S'4248'
tp3009
a(S'67'
S'14832'
tp3010
a(S'67'
S'5343'
tp3011
a(S'67'
S'4248'
tp3012
a(S'67'
S'14832'
tp3013
a(S'67'
S'5343'
tp3014
a(S'67'
S'4248'
tp3015
a(S'67'
S'14832'
tp3016
a(S'67'
S'5343'
tp3017
a(S'67'
S'4248'
tp3018
a(S'67'
S'14832'
tp3019
a(S'67'
S'5343'
tp3020
a(S'67'
g33
tp3021
a(S'67'
g167
tp3022
a(S'67'
g169
tp3023
a(S'67'
g368
tp3024
a(S'67'
S'2990'
tp3025
a(S'67'
S'1546'
tp3026
a(S'67'
S'2989'
tp3027
a(S'67'
S'2990'
tp3028
a(S'67'
S'1546'
tp3029
a(S'67'
S'2989'
tp3030
a(S'67'
S'2990'
tp3031
a(S'67'
S'9113'
tp3032
a(S'67'
S'6811'
tp3033
a(S'67'
S'6811'
tp3034
a(S'67'
S'6811'
tp3035
a(S'67'
g677
tp3036
a(S'67'
S'5503'
tp3037
a(S'67'
g1347
tp3038
a(S'67'
g986
tp3039
a(S'67'
S'913'
tp3040
a(S'67'
S'5503'
tp3041
a(S'67'
S'8105'
tp3042
a(S'67'
S'4593'
tp3043
a(S'67'
S'913'
tp3044
a(S'67'
S'5503'
tp3045
a(S'67'
S'8105'
tp3046
a(S'67'
S'4593'
tp3047
a(S'67'
S'913'
tp3048
a(S'67'
S'5503'
tp3049
a(S'67'
S'8105'
tp3050
a(S'67'
S'4593'
tp3051
a(S'67'
S'913'
tp3052
a(S'67'
S'5503'
tp3053
a(S'67'
S'8105'
tp3054
a(S'67'
S'4593'
tp3055
a(S'67'
S'913'
tp3056
a(S'67'
S'5503'
tp3057
a(S'67'
S'8105'
tp3058
a(S'67'
S'4593'
tp3059
a(S'67'
S'913'
tp3060
a(S'67'
S'5503'
tp3061
a(S'67'
S'8105'
tp3062
a(S'67'
S'4593'
tp3063
a(S'67'
S'913'
tp3064
a(S'67'
S'5503'
tp3065
a(S'67'
S'8105'
tp3066
a(S'67'
S'4593'
tp3067
a(S'67'
S'913'
tp3068
a(S'67'
S'5503'
tp3069
a(S'67'
S'8105'
tp3070
a(S'67'
S'4593'
tp3071
a(S'67'
S'913'
tp3072
a(S'67'
S'5503'
tp3073
a(S'67'
S'8105'
tp3074
a(S'67'
S'4593'
tp3075
a(S'67'
g336
tp3076
a(S'67'
S'5169'
tp3077
a(S'67'
g1270
tp3078
a(S'67'
g474
tp3079
a(S'67'
g340
tp3080
a(S'67'
g956
tp3081
a(S'67'
S'5175'
tp3082
a(S'67'
g726
tp3083
a(S'67'
S'7232'
tp3084
a(S'67'
S'5169'
tp3085
a(S'67'
S'3978'
tp3086
a(S'67'
S'624'
tp3087
a(S'67'
S'5041'
tp3088
a(S'67'
S'2291'
tp3089
a(S'67'
S'5175'
tp3090
a(S'67'
S'4093'
tp3091
a(S'67'
g1365
tp3092
a(S'67'
S'4593'
tp3093
a(S'67'
S'8171'
tp3094
a(S'67'
g229
tp3095
a(S'67'
S'5503'
tp3096
a(S'67'
S'14848'
tp3097
a(S'67'
S'4593'
tp3098
a(S'67'
S'8171'
tp3099
a(S'67'
S'4526'
tp3100
a(S'67'
S'5503'
tp3101
a(S'67'
S'6731'
tp3102
a(S'67'
S'6820'
tp3103
a(S'67'
S'6990'
tp3104
a(S'67'
S'6731'
tp3105
a(S'67'
S'6820'
tp3106
a(S'67'
S'6990'
tp3107
a(S'67'
g240
tp3108
a(S'67'
g1286
tp3109
a(S'67'
g392
tp3110
a(S'67'
g991
tp3111
a(S'67'
g575
tp3112
a(S'67'
g997
tp3113
a(S'67'
S'2333'
tp3114
a(S'67'
S'7894'
tp3115
a(S'67'
S'3634'
tp3116
a(S'67'
g783
tp3117
a(S'67'
S'7792'
tp3118
a(S'67'
S'8850'
tp3119
a(S'67'
S'15329'
tp3120
a(S'67'
g1127
tp3121
a(S'67'
S'2722'
tp3122
a(S'67'
S'3835'
tp3123
a(S'67'
S'2722'
tp3124
a(S'67'
S'3835'
tp3125
a(S'67'
S'2722'
tp3126
a(S'67'
S'3835'
tp3127
a(S'67'
S'2722'
tp3128
a(S'67'
S'3835'
tp3129
a(S'67'
S'6051'
tp3130
a(S'67'
S'5893'
tp3131
a(S'67'
S'1464'
tp3132
a(S'67'
S'1464'
tp3133
a(S'67'
S'14832'
tp3134
a(S'67'
S'5343'
tp3135
a(S'67'
S'14832'
tp3136
a(S'67'
S'5343'
tp3137
a(S'67'
S'628'
tp3138
a(S'67'
S'628'
tp3139
a(S'67'
S'1464'
tp3140
a(S'67'
S'4297'
tp3141
a(S'67'
g639
tp3142
a(S'67'
S'2722'
tp3143
a(S'67'
S'15155'
tp3144
a(S'67'
S'4153'
tp3145
a(S'67'
S'2722'
tp3146
a(S'67'
S'15155'
tp3147
a(S'67'
S'4153'
tp3148
a(S'67'
S'2722'
tp3149
a(S'67'
S'15155'
tp3150
a(S'67'
S'3329'
tp3151
a(S'67'
g331
tp3152
a(S'67'
S'12763'
tp3153
a(S'67'
S'4550'
tp3154
a(S'67'
S'12763'
tp3155
a(S'67'
S'4550'
tp3156
a(S'67'
S'4248'
tp3157
a(S'67'
S'14832'
tp3158
a(S'67'
S'8771'
tp3159
a(S'67'
S'5343'
tp3160
a(S'67'
S'4248'
tp3161
a(S'67'
S'14832'
tp3162
a(S'67'
S'8771'
tp3163
a(S'67'
S'5343'
tp3164
a(S'67'
g468
tp3165
a(S'67'
g895
tp3166
a(S'67'
g88
tp3167
a(S'67'
S'8720'
tp3168
a(S'67'
S'5218'
tp3169
a(S'67'
S'6579'
tp3170
a(S'67'
g384
tp3171
a(S'67'
g966
tp3172
a(S'67'
S'6201'
tp3173
a(S'67'
S'12763'
tp3174
a(S'67'
S'2164'
tp3175
a(S'67'
g111
tp3176
a(S'67'
g870
tp3177
a(S'67'
g191
tp3178
a(S'67'
g1301
tp3179
a(S'67'
S'14848'
tp3180
a(S'67'
S'4197'
tp3181
a(S'67'
g1079
tp3182
a(S'67'
S'991'
tp3183
a(S'67'
g13
tp3184
a(S'67'
g1002
tp3185
a(S'67'
g450
tp3186
a(S'67'
g1003
tp3187
a(S'67'
g1264
tp3188
a(S'67'
g1248
tp3189
a(S'67'
S'3091'
tp3190
a(S'67'
S'1379'
tp3191
a(S'67'
g553
tp3192
a(S'67'
S'5397'
tp3193
a(S'67'
S'5444'
tp3194
a(S'67'
S'1801'
tp3195
a(S'67'
S'1802'
tp3196
a(S'67'
S'876'
tp3197
a(S'67'
S'5169'
tp3198
a(S'67'
S'7161'
tp3199
a(S'67'
S'5175'
tp3200
a(S'67'
S'5169'
tp3201
a(S'67'
S'7161'
tp3202
a(S'67'
S'5175'
tp3203
a(S'67'
S'3640'
tp3204
a(S'67'
S'1633'
tp3205
a(S'67'
S'3561'
tp3206
a(S'67'
S'8551'
tp3207
a(S'67'
S'3561'
tp3208
a(S'67'
S'8551'
tp3209
a(S'67'
S'14283'
tp3210
a(S'67'
S'14283'
tp3211
a(S'67'
S'14283'
tp3212
a(S'67'
S'14283'
tp3213
a(S'67'
S'14848'
tp3214
a(S'67'
S'4593'
tp3215
a(S'67'
S'5503'
tp3216
a(S'67'
S'14848'
tp3217
a(S'67'
S'4593'
tp3218
a(S'67'
S'5503'
tp3219
a(S'67'
S'14848'
tp3220
a(S'67'
S'4593'
tp3221
a(S'67'
S'5503'
tp3222
a(S'67'
S'4749'
tp3223
a(S'67'
S'15'
tp3224
a(S'67'
S'4749'
tp3225
a(S'67'
S'15'
tp3226
a(S'67'
g1378
tp3227
a(S'67'
g1021
tp3228
a(S'67'
S'6858'
tp3229
a(S'67'
g1094
tp3230
a(S'67'
g936
tp3231
a(S'67'
g840
tp3232
a(S'67'
g43
tp3233
a(S'67'
S'2276'
tp3234
a(S'67'
g494
tp3235
a(S'67'
S'6858'
tp3236
a(S'67'
g1098
tp3237
a(S'67'
g983
tp3238
a(S'67'
g1083
tp3239
a(S'67'
g52
tp3240
a(S'67'
g285
tp3241
a(S'67'
g345
tp3242
a(S'67'
S'991'
tp3243
a(S'67'
g1134
tp3244
a(S'67'
g633
tp3245
a(S'67'
g790
tp3246
a(S'67'
S'3615'
tp3247
a(S'67'
S'2378'
tp3248
a(S'67'
S'5901'
tp3249
a(S'67'
S'2378'
tp3250
a(S'67'
S'5901'
tp3251
a(S'67'
S'2378'
tp3252
a(S'67'
S'5901'
tp3253
a(S'67'
g227
tp3254
a(S'67'
S'6350'
tp3255
a(S'67'
S'6350'
tp3256
a(S'67'
S'6350'
tp3257
a(S'67'
S'8259'
tp3258
a(S'67'
S'5147'
tp3259
a(S'67'
S'7573'
tp3260
a(S'67'
S'4199'
tp3261
a(S'67'
S'8259'
tp3262
a(S'67'
S'5147'
tp3263
a(S'67'
S'7573'
tp3264
a(S'67'
S'4199'
tp3265
a(S'67'
S'5147'
tp3266
a(S'67'
S'4199'
tp3267
a(S'67'
S'2448'
tp3268
a(S'67'
S'5724'
tp3269
a(S'67'
S'5174'
tp3270
a(S'67'
g600
tp3271
a(S'67'
g1306
tp3272
a(S'67'
S'6350'
tp3273
a(S'67'
S'1195'
tp3274
a(S'67'
g717
tp3275
a(S'67'
S'3779'
tp3276
a(S'67'
g1122
tp3277
a(S'67'
g97
tp3278
a(S'67'
g280
tp3279
a(S'67'
g827
tp3280
a(S'67'
S'8792'
tp3281
a(S'67'
S'6713'
tp3282
a(S'67'
S'14986'
tp3283
a(S'67'
S'15155'
tp3284
a(S'67'
S'5175'
tp3285
a(S'67'
S'8792'
tp3286
a(S'67'
S'6713'
tp3287
a(S'67'
S'14986'
tp3288
a(S'67'
S'15155'
tp3289
a(S'67'
S'5175'
tp3290
a(S'67'
S'8792'
tp3291
a(S'67'
S'6713'
tp3292
a(S'67'
S'14986'
tp3293
a(S'67'
S'15155'
tp3294
a(S'67'
S'5175'
tp3295
a(S'67'
g773
tp3296
a(S'67'
g963
tp3297
a(S'67'
S'15155'
tp3298
a(S'67'
S'8720'
tp3299
a(S'67'
S'5218'
tp3300
a(S'67'
S'6579'
tp3301
a(S'67'
S'1328'
tp3302
a(S'67'
g718
tp3303
a(S'67'
S'6250'
tp3304
a(S'67'
S'1501'
tp3305
a(S'67'
S'14986'
tp3306
a(S'67'
g1182
tp3307
a(S'67'
S'7693'
tp3308
a(S'67'
g693
tp3309
a(S'67'
S'15152'
tp3310
a(S'67'
g800
tp3311
a(S'67'
g757
tp3312
a(S'67'
g758
tp3313
a(S'67'
g638
tp3314
a(S'67'
g1073
tp3315
a(S'67'
S'13842'
tp3316
a(S'67'
g438
tp3317
a(S'67'
S'7917'
tp3318
a(S'67'
g583
tp3319
a(S'67'
S'5174'
tp3320
a(S'67'
S'6250'
tp3321
a(S'67'
S'4831'
tp3322
a(S'67'
S'6250'
tp3323
a(S'67'
S'4831'
tp3324
a(S'67'
g912
tp3325
a(S'67'
S'15153'
tp3326
a(S'67'
S'6858'
tp3327
a(S'67'
S'1688'
tp3328
a(S'67'
S'15153'
tp3329
a(S'67'
S'6858'
tp3330
a(S'67'
S'1688'
tp3331
a(S'67'
S'15153'
tp3332
a(S'67'
S'6858'
tp3333
a(S'67'
S'1688'
tp3334
a(S'67'
S'15153'
tp3335
a(S'67'
S'6858'
tp3336
a(S'67'
S'1688'
tp3337
a(S'67'
S'15153'
tp3338
a(S'67'
S'6858'
tp3339
a(S'67'
S'1688'
tp3340
a(S'67'
S'15153'
tp3341
a(S'67'
S'6858'
tp3342
a(S'67'
S'6259'
tp3343
a(S'67'
S'9373'
tp3344
a(S'67'
S'6990'
tp3345
a(S'67'
S'8719'
tp3346
a(S'67'
S'3104'
tp3347
a(S'67'
S'1'
tp3348
a(S'67'
g252
tp3349
a(S'67'
S'7917'
tp3350
a(S'67'
S'4248'
tp3351
a(S'67'
S'14832'
tp3352
a(S'67'
S'8771'
tp3353
a(S'67'
S'5343'
tp3354
a(S'67'
S'4248'
tp3355
a(S'67'
S'14832'
tp3356
a(S'67'
S'8771'
tp3357
a(S'67'
S'5343'
tp3358
a(S'67'
S'4248'
tp3359
a(S'67'
S'14832'
tp3360
a(S'67'
S'8771'
tp3361
a(S'67'
S'5343'
tp3362
a(S'67'
S'4248'
tp3363
a(S'67'
S'14832'
tp3364
a(S'67'
S'8771'
tp3365
a(S'67'
S'5343'
tp3366
a(S'67'
S'4248'
tp3367
a(S'67'
S'14832'
tp3368
a(S'67'
S'8771'
tp3369
a(S'67'
S'5343'
tp3370
a(S'67'
S'1195'
tp3371
a(S'67'
S'3779'
tp3372
a(S'67'
S'5147'
tp3373
a(S'67'
S'2340'
tp3374
a(S'67'
S'2895'
tp3375
a(S'67'
S'2746'
tp3376
a(S'67'
g414
tp3377
a(S'67'
g890
tp3378
a(S'67'
S'2746'
tp3379
a(S'67'
S'7820'
tp3380
a(S'67'
S'2759'
tp3381
a(S'67'
S'3025'
tp3382
a(S'67'
S'8259'
tp3383
a(S'67'
S'5147'
tp3384
a(S'67'
g793
tp3385
a(S'67'
S'4550'
tp3386
a(S'67'
g644
tp3387
a(S'67'
g1450
tp3388
a(S'67'
g992
tp3389
a(S'67'
g376
tp3390
a(S'67'
S'5896'
tp3391
a(S'67'
S'1158'
tp3392
a(S'67'
S'5896'
tp3393
a(S'67'
S'1158'
tp3394
a(S'67'
S'5896'
tp3395
a(S'67'
S'1158'
tp3396
a(S'67'
S'2164'
tp3397
a(S'67'
S'2164'
tp3398
a(S'67'
S'2164'
tp3399
a(S'67'
g794
tp3400
a(S'67'
S'13209'
tp3401
a(S'67'
S'13209'
tp3402
a(S'67'
g748
tp3403
a(S'67'
g786
tp3404
a(S'67'
g950
tp3405
a(S'67'
S'455'
tp3406
a(S'67'
g698
tp3407
a(S'67'
S'389'
tp3408
a(S'67'
S'1048'
tp3409
a(S'67'
S'1464'
tp3410
a(S'67'
S'4297'
tp3411
a(S'67'
S'1048'
tp3412
a(S'67'
S'1464'
tp3413
a(S'67'
S'4297'
tp3414
a(S'67'
S'9248'
tp3415
a(S'67'
S'7917'
tp3416
a(S'67'
S'1383'
tp3417
a(S'67'
S'7626'
tp3418
a(S'67'
g781
tp3419
a(S'67'
S'13842'
tp3420
a(S'67'
S'14666'
tp3421
a(S'67'
S'13842'
tp3422
a(S'67'
S'14666'
tp3423
a(S'67'
S'1464'
tp3424
a(S'67'
S'4297'
tp3425
a(S'67'
S'2185'
tp3426
a(S'67'
g1095
tp3427
a(S'67'
g527
tp3428
a(S'67'
g446
tp3429
a(S'67'
S'3835'
tp3430
a(S'67'
g159
tp3431
a(S'67'
g1328
tp3432
a(S'67'
S'4550'
tp3433
a(S'67'
g996
tp3434
a(S'67'
S'4550'
tp3435
a(S'67'
g437
tp3436
a(S'67'
S'1933'
tp3437
a(S'67'
S'5970'
tp3438
a(S'67'
g1421
tp3439
a(S'67'
S'2786'
tp3440
a(S'67'
S'5970'
tp3441
a(S'67'
g1273
tp3442
a(S'67'
g750
tp3443
a(S'67'
S'198'
tp3444
a(S'67'
S'198'
tp3445
a(S'67'
S'991'
tp3446
a(S'67'
g210
tp3447
a(S'67'
S'14848'
tp3448
a(S'67'
S'954'
tp3449
a(S'67'
g901
tp3450
a(S'67'
S'2194'
tp3451
a(S'67'
g140
tp3452
a(S'67'
S'3308'
tp3453
a(S'67'
g488
tp3454
a(S'67'
S'6811'
tp3455
a(S'67'
S'4831'
tp3456
a(S'67'
S'4831'
tp3457
a(S'67'
S'9113'
tp3458
a(S'67'
S'9113'
tp3459
a(S'67'
S'9113'
tp3460
a(S'67'
S'9113'
tp3461
a(S'67'
S'9113'
tp3462
a(S'67'
S'9113'
tp3463
a(S'67'
S'1968'
tp3464
a(S'67'
S'5634'
tp3465
a(S'67'
g310
tp3466
a(S'67'
g1487
tp3467
a(S'67'
g1320
tp3468
a(S'67'
S'15155'
tp3469
a(S'67'
S'9113'
tp3470
a(S'67'
S'9113'
tp3471
a(S'67'
S'9113'
tp3472
a(S'67'
S'9113'
tp3473
a(S'67'
S'9113'
tp3474
a(S'67'
S'9113'
tp3475
a(S'67'
g427
tp3476
a(S'67'
S'5074'
tp3477
a(S'67'
S'5896'
tp3478
a(S'67'
g398
tp3479
a(S'67'
S'5896'
tp3480
a(S'67'
S'4619'
tp3481
a(S'67'
S'5896'
tp3482
a(S'67'
S'4619'
tp3483
a(S'67'
g1308
tp3484
a(S'67'
S'7221'
tp3485
a(S'67'
S'1464'
tp3486
a(S'67'
S'1464'
tp3487
a(S'67'
S'1464'
tp3488
a(S'67'
S'315'
tp3489
a(S'67'
S'6858'
tp3490
a(S'67'
g120
tp3491
a(S'67'
S'4969'
tp3492
a(S'67'
S'2331'
tp3493
a(S'67'
S'372'
tp3494
a(S'67'
S'4831'
tp3495
a(S'67'
S'4831'
tp3496
a(S'67'
S'4831'
tp3497
a(S'67'
S'4831'
tp3498
a(S'67'
S'4831'
tp3499
a(S'67'
S'4831'
tp3500
a(S'67'
S'4831'
tp3501
a(S'67'
g810
tp3502
a(S'67'
S'5343'
tp3503
a(S'67'
S'4639'
tp3504
a(S'67'
S'6060'
tp3505
a(S'67'
S'14146'
tp3506
a(S'67'
S'4173'
tp3507
a(S'67'
S'14891'
tp3508
a(S'67'
g725
tp3509
a(S'67'
g47
tp3510
a(S'67'
S'14891'
tp3511
a(S'67'
S'1118'
tp3512
a(S'67'
S'16929'
tp3513
a(S'67'
g129
tp3514
a(S'67'
g1399
tp3515
a(S'67'
g811
tp3516
a(S'67'
g370
tp3517
a(S'67'
g130
tp3518
a(S'67'
g133
tp3519
a(S'67'
g134
tp3520
a(S'67'
g778
tp3521
a(S'67'
g103
tp3522
a(S'67'
S'13842'
tp3523
a(S'67'
g672
tp3524
a(S'67'
S'6858'
tp3525
a(S'67'
S'628'
tp3526
a(S'67'
S'628'
tp3527
a(S'67'
S'13842'
tp3528
a(S'67'
S'2170'
tp3529
a(S'67'
S'6858'
tp3530
a(S'67'
S'13842'
tp3531
a(S'67'
S'2170'
tp3532
a(S'67'
S'6858'
tp3533
a(S'67'
S'13842'
tp3534
a(S'67'
S'2170'
tp3535
a(S'67'
S'6858'
tp3536
a(S'67'
S'13842'
tp3537
a(S'67'
S'2170'
tp3538
a(S'67'
S'6858'
tp3539
a(S'67'
S'4310'
tp3540
a(S'67'
g1232
tp3541
a(S'67'
S'5343'
tp3542
a(S'67'
S'5233'
tp3543
a(S'67'
S'5233'
tp3544
a(S'67'
S'5233'
tp3545
a(S'67'
S'5233'
tp3546
a(S'67'
S'5233'
tp3547
a(S'67'
S'5233'
tp3548
a(S'67'
S'2722'
tp3549
a(S'67'
S'5233'
tp3550
a(S'67'
S'5233'
tp3551
a(S'67'
S'5233'
tp3552
a(S'67'
S'5233'
tp3553
a(S'67'
S'5233'
tp3554
a(S'67'
g1383
tp3555
a(S'67'
g1131
tp3556
a(S'67'
S'3561'
tp3557
a(S'67'
g984
tp3558
a(S'67'
g186
tp3559
a(S'67'
S'1328'
tp3560
a(S'67'
g623
tp3561
a(S'67'
S'5490'
tp3562
a(S'67'
S'1328'
tp3563
a(S'67'
S'4081'
tp3564
a(S'67'
S'5490'
tp3565
a(S'67'
S'1328'
tp3566
a(S'67'
S'4081'
tp3567
a(S'67'
S'5490'
tp3568
a(S'67'
g1451
tp3569
a(S'67'
S'15155'
tp3570
a(S'67'
S'7640'
tp3571
a(S'67'
S'15155'
tp3572
a(S'67'
S'7640'
tp3573
a(S'67'
S'15155'
tp3574
a(S'67'
S'7640'
tp3575
a(S'67'
S'15155'
tp3576
a(S'67'
S'13842'
tp3577
a(S'67'
S'2170'
tp3578
a(S'67'
S'6858'
tp3579
a(S'67'
S'4248'
tp3580
a(S'67'
S'14832'
tp3581
a(S'67'
S'8771'
tp3582
a(S'67'
S'5343'
tp3583
a(S'67'
S'11923'
tp3584
a(S'67'
g1371
tp3585
a(S'67'
S'6350'
tp3586
a(S'67'
S'6630'
tp3587
a(S'67'
S'6350'
tp3588
a(S'67'
S'6630'
tp3589
a(S'67'
S'6350'
tp3590
a(S'67'
S'1048'
tp3591
a(S'67'
S'13842'
tp3592
a(S'67'
S'1048'
tp3593
a(S'67'
g1390
tp3594
a(S'67'
S'13842'
tp3595
a(S'67'
S'15155'
tp3596
a(S'67'
g796
tp3597
a(S'67'
g598
tp3598
a(S'67'
g335
tp3599
a(S'67'
g608
tp3600
a(S'67'
S'14752'
tp3601
a(S'67'
S'1216'
tp3602
a(S'67'
S'14752'
tp3603
a(S'67'
S'1216'
tp3604
a(S'67'
S'14752'
tp3605
a(S'67'
S'5490'
tp3606
a(S'67'
g610
tp3607
a(S'67'
g207
tp3608
a(S'67'
g1037
tp3609
a(S'67'
g850
tp3610
a(S'67'
g391
tp3611
a(S'67'
S'4753'
tp3612
a(S'67'
S'7731'
tp3613
a(S'67'
S'5966'
tp3614
a(S'67'
S'4777'
tp3615
a(S'67'
S'4753'
tp3616
a(S'67'
S'7731'
tp3617
a(S'67'
S'5966'
tp3618
a(S'67'
S'4777'
tp3619
a(S'67'
S'1048'
tp3620
a(S'67'
S'13842'
tp3621
a(S'67'
S'1048'
tp3622
a(S'67'
S'13842'
tp3623
a(S'67'
S'1048'
tp3624
a(S'67'
S'13842'
tp3625
a(S'67'
g1013
tp3626
a(S'67'
S'15162'
tp3627
a(S'67'
S'5364'
tp3628
a(S'67'
S'673'
tp3629
a(S'67'
S'15162'
tp3630
a(S'67'
S'5364'
tp3631
a(S'67'
S'673'
tp3632
a(S'67'
S'15162'
tp3633
a(S'67'
S'5364'
tp3634
a(S'67'
g707
tp3635
a(S'67'
S'6858'
tp3636
a(S'67'
S'5233'
tp3637
a(S'67'
S'7693'
tp3638
a(S'67'
S'13702'
tp3639
a(S'67'
g821
tp3640
a(S'67'
S'4874'
tp3641
a(S'67'
S'6316'
tp3642
a(S'67'
S'6350'
tp3643
a(S'67'
g645
tp3644
a(S'67'
S'212'
tp3645
a(S'67'
S'5233'
tp3646
a(S'67'
S'7693'
tp3647
a(S'67'
S'13702'
tp3648
a(S'67'
S'5233'
tp3649
a(S'67'
S'7693'
tp3650
a(S'67'
S'13702'
tp3651
a(S'67'
S'5233'
tp3652
a(S'67'
S'7693'
tp3653
a(S'67'
S'13702'
tp3654
a(S'67'
S'5625'
tp3655
a(S'67'
S'2395'
tp3656
a(S'67'
S'7295'
tp3657
a(S'67'
S'989'
tp3658
a(S'67'
S'4247'
tp3659
a(S'67'
g620
tp3660
a(S'67'
S'644'
tp3661
a(S'67'
S'389'
tp3662
a(S'67'
g325
tp3663
a(S'67'
g1460
tp3664
a(S'67'
g971
tp3665
a(S'67'
g282
tp3666
a(S'67'
S'2504'
tp3667
a(S'67'
S'729'
tp3668
a(S'67'
S'6059'
tp3669
a(S'67'
S'8035'
tp3670
a(S'67'
S'7693'
tp3671
a(S'67'
S'3113'
tp3672
a(S'67'
S'4874'
tp3673
a(S'67'
S'13842'
tp3674
a(S'67'
S'13893'
tp3675
a(S'67'
g1358
tp3676
a(S'67'
S'14447'
tp3677
a(S'67'
g15
tp3678
a(S'67'
g1447
tp3679
a(S'67'
S'7370'
tp3680
a(S'67'
S'4952'
tp3681
a(S'67'
g880
tp3682
a(S'67'
S'6579'
tp3683
a(S'67'
S'15155'
tp3684
a(S'67'
S'4952'
tp3685
a(S'67'
S'1913'
tp3686
a(S'67'
S'6579'
tp3687
a(S'67'
S'15155'
tp3688
a(S'67'
S'4952'
tp3689
a(S'67'
S'1913'
tp3690
a(S'67'
S'6579'
tp3691
a(S'67'
S'15155'
tp3692
a(S'67'
S'4952'
tp3693
a(S'67'
S'1913'
tp3694
a(S'67'
S'6579'
tp3695
a(S'67'
S'15155'
tp3696
a(S'67'
S'4952'
tp3697
a(S'67'
S'1913'
tp3698
a(S'67'
S'6579'
tp3699
a(S'67'
S'15155'
tp3700
a(S'67'
S'13702'
tp3701
a(S'67'
S'13702'
tp3702
a(S'67'
S'13842'
tp3703
a(S'67'
S'14666'
tp3704
a(S'67'
g74
tp3705
a(S'67'
g1169
tp3706
a(S'67'
g935
tp3707
a(S'67'
S'1383'
tp3708
a(S'67'
S'5625'
tp3709
a(S'67'
S'2395'
tp3710
a(S'67'
S'7295'
tp3711
a(S'67'
S'989'
tp3712
a(S'67'
S'4247'
tp3713
a(S'67'
g721
tp3714
a(S'67'
S'6980'
tp3715
a(S'67'
S'2276'
tp3716
a(S'67'
S'8614'
tp3717
a(S'67'
S'13702'
tp3718
a(S'67'
S'5164'
tp3719
a(S'67'
g814
tp3720
a(S'67'
g539
tp3721
a(S'67'
g1218
tp3722
a(S'67'
S'7792'
tp3723
a(S'67'
g225
tp3724
a(S'67'
S'7792'
tp3725
a(S'67'
g226
tp3726
a(S'67'
g1351
tp3727
a(S'67'
S'6811'
tp3728
a(S'67'
S'6811'
tp3729
a(S'67'
S'5765'
tp3730
a(S'67'
g595
tp3731
a(S'67'
S'5896'
tp3732
a(S'67'
S'6811'
tp3733
a(S'67'
g183
tp3734
a(S'67'
S'6861'
tp3735
a(S'67'
S'5896'
tp3736
a(S'67'
S'7790'
tp3737
a(S'67'
S'5765'
tp3738
a(S'67'
S'4454'
tp3739
a(S'67'
S'7790'
tp3740
a(S'67'
S'5765'
tp3741
a(S'67'
S'4454'
tp3742
a(S'67'
g1497
tp3743
a(S'67'
S'2816'
tp3744
a(S'67'
g189
tp3745
a(S'67'
S'8544'
tp3746
a(S'67'
S'5896'
tp3747
a(S'67'
g37
tp3748
a(S'67'
g665
tp3749
a(S'67'
S'1688'
tp3750
a(S'67'
S'15153'
tp3751
a(S'67'
S'6858'
tp3752
a(g594
S'14462'
tp3753
a(S'68'
S'1379'
tp3754
a(S'68'
S'2556'
tp3755
a(S'68'
S'5444'
tp3756
a(S'68'
S'1801'
tp3757
a(S'68'
S'1802'
tp3758
a(S'68'
S'876'
tp3759
a(S'68'
g1129
tp3760
a(S'68'
g687
tp3761
a(S'68'
S'1633'
tp3762
a(S'68'
S'1379'
tp3763
a(S'68'
S'2556'
tp3764
a(g903
S'8527'
tp3765
a(S'71'
S'6335'
tp3766
a(S'71'
S'455'
tp3767
a(S'71'
S'8313'
tp3768
a(S'71'
S'202'
tp3769
a(S'71'
S'1052'
tp3770
a(S'71'
S'7370'
tp3771
a(S'71'
S'8313'
tp3772
a(S'71'
S'202'
tp3773
a(S'71'
S'1052'
tp3774
a(S'71'
S'7370'
tp3775
a(S'71'
g405
tp3776
a(S'71'
g1355
tp3777
a(S'71'
g184
tp3778
a(S'71'
g1222
tp3779
a(S'71'
g311
tp3780
a(S'71'
S'3779'
tp3781
a(S'71'
S'1383'
tp3782
a(S'71'
S'7788'
tp3783
a(S'71'
S'2909'
tp3784
a(S'71'
S'7788'
tp3785
a(S'71'
S'2909'
tp3786
a(S'71'
S'6811'
tp3787
a(S'71'
S'846'
tp3788
a(S'71'
S'6828'
tp3789
a(S'71'
S'6828'
tp3790
a(S'71'
S'6731'
tp3791
a(S'71'
S'6820'
tp3792
a(S'71'
S'6990'
tp3793
a(S'71'
S'2722'
tp3794
a(S'71'
S'3835'
tp3795
a(S'71'
S'6946'
tp3796
a(S'71'
S'3308'
tp3797
a(S'71'
S'6946'
tp3798
a(S'71'
S'3308'
tp3799
a(S'71'
S'836'
tp3800
a(S'71'
S'14283'
tp3801
a(S'71'
S'6250'
tp3802
a(S'71'
S'4831'
tp3803
a(S'71'
S'836'
tp3804
a(S'71'
S'8209'
tp3805
a(S'71'
S'15162'
tp3806
a(S'71'
S'4639'
tp3807
a(S'71'
S'5147'
tp3808
a(S'71'
S'4749'
tp3809
a(S'71'
S'15'
tp3810
a(S'71'
S'4749'
tp3811
a(S'71'
S'15'
tp3812
a(S'71'
S'4831'
tp3813
a(S'71'
g732
tp3814
a(S'71'
g1048
tp3815
a(S'71'
g1362
tp3816
a(S'71'
S'1464'
tp3817
a(S'71'
S'867'
tp3818
a(S'71'
S'6811'
tp3819
a(S'71'
S'6811'
tp3820
a(g902
S'5970'
tp3821
a(S'72'
g1455
tp3822
a(S'72'
g770
tp3823
a(S'72'
g315
tp3824
a(S'73'
g221
tp3825
a(S'73'
S'2194'
tp3826
a(S'73'
S'5198'
tp3827
a(S'73'
g1081
tp3828
a(S'73'
S'707'
tp3829
a(S'73'
S'15180'
tp3830
a(S'73'
S'3561'
tp3831
a(S'73'
S'8551'
tp3832
a(S'73'
S'881'
tp3833
a(S'73'
S'8850'
tp3834
a(S'73'
S'2990'
tp3835
a(S'73'
g835
tp3836
a(S'73'
S'15180'
tp3837
a(S'73'
S'2194'
tp3838
a(S'73'
S'7627'
tp3839
a(S'73'
S'2194'
tp3840
a(S'73'
S'7627'
tp3841
a(S'73'
g1047
tp3842
a(S'73'
S'198'
tp3843
a(S'73'
S'198'
tp3844
a(S'73'
S'3216'
tp3845
a(S'73'
S'14848'
tp3846
a(S'73'
S'954'
tp3847
a(S'73'
S'3216'
tp3848
a(S'73'
S'14848'
tp3849
a(S'73'
S'954'
tp3850
a(S'73'
S'3216'
tp3851
a(S'73'
S'14848'
tp3852
a(S'73'
S'954'
tp3853
a(S'73'
S'9113'
tp3854
a(S'73'
S'1379'
tp3855
a(S'73'
S'2556'
tp3856
a(S'73'
g829
tp3857
a(S'73'
S'497'
tp3858
a(g1046
S'1379'
tp3859
a(S'74'
S'2556'
tp3860
a(S'74'
g4
tp3861
a(S'74'
S'5634'
tp3862
a(S'74'
S'846'
tp3863
a(S'74'
S'5634'
tp3864
a(S'74'
S'8259'
tp3865
a(S'74'
S'1595'
tp3866
a(S'74'
S'846'
tp3867
a(g899
S'14986'
tp3868
a(S'76'
g944
tp3869
a(S'76'
S'15336'
tp3870
a(S'76'
S'8873'
tp3871
a(S'76'
g1343
tp3872
a(S'76'
S'14986'
tp3873
a(S'76'
S'4125'
tp3874
a(S'76'
S'8350'
tp3875
a(S'76'
S'8350'
tp3876
a(S'76'
S'9108'
tp3877
a(S'76'
S'7792'
tp3878
a(S'76'
S'2884'
tp3879
a(S'76'
S'6707'
tp3880
a(S'76'
S'3005'
tp3881
a(S'76'
g1054
tp3882
a(S'76'
g541
tp3883
a(S'76'
g764
tp3884
a(S'76'
g769
tp3885
a(S'76'
S'846'
tp3886
a(S'76'
S'15336'
tp3887
a(S'76'
S'881'
tp3888
a(S'76'
g1172
tp3889
a(S'76'
g825
tp3890
a(S'76'
S'6245'
tp3891
a(S'76'
S'4639'
tp3892
a(S'76'
S'8420'
tp3893
a(S'76'
S'6245'
tp3894
a(S'76'
S'4639'
tp3895
a(S'76'
g435
tp3896
a(S'76'
g1163
tp3897
a(g898
S'846'
tp3898
a(S'77'
S'5495'
tp3899
a(S'77'
g1277
tp3900
a(S'77'
S'896'
tp3901
a(S'77'
g1437
tp3902
a(S'77'
g286
tp3903
a(S'78'
S'1195'
tp3904
a(S'78'
S'1195'
tp3905
a(S'78'
S'2722'
tp3906
a(S'78'
S'3835'
tp3907
a(S'78'
S'2924'
tp3908
a(S'78'
S'7534'
tp3909
a(S'78'
S'2924'
tp3910
a(S'78'
S'7534'
tp3911
a(S'78'
S'15336'
tp3912
a(S'78'
S'9232'
tp3913
a(S'78'
g1432
tp3914
a(S'78'
g601
tp3915
a(S'78'
g640
tp3916
a(S'78'
S'7689'
tp3917
a(S'78'
S'5174'
tp3918
a(S'78'
S'7689'
tp3919
a(S'78'
S'5174'
tp3920
a(S'78'
g402
tp3921
a(S'78'
g496
tp3922
a(S'78'
S'2378'
tp3923
a(S'78'
g536
tp3924
a(S'78'
S'6990'
tp3925
a(S'78'
g193
tp3926
a(S'78'
g1389
tp3927
a(S'78'
S'3157'
tp3928
a(S'78'
g782
tp3929
a(S'78'
g355
tp3930
a(S'78'
g1217
tp3931
a(S'78'
S'3779'
tp3932
a(S'78'
S'6857'
tp3933
a(S'78'
S'1580'
tp3934
a(S'78'
S'3921'
tp3935
a(S'78'
S'4150'
tp3936
a(S'78'
S'8042'
tp3937
a(S'78'
g1322
tp3938
a(S'78'
g1115
tp3939
a(S'78'
g12
tp3940
a(S'78'
g38
tp3941
a(S'78'
g861
tp3942
a(S'78'
S'14986'
tp3943
a(S'78'
g1237
tp3944
a(S'78'
g211
tp3945
a(S'78'
S'14722'
tp3946
a(S'78'
S'3750'
tp3947
a(S'78'
g928
tp3948
a(S'78'
S'6523'
tp3949
a(S'78'
g530
tp3950
a(S'78'
S'4226'
tp3951
a(S'78'
S'3812'
tp3952
a(S'78'
S'8756'
tp3953
a(S'78'
S'6523'
tp3954
a(S'78'
S'1604'
tp3955
a(S'78'
S'8437'
tp3956
a(S'78'
S'8159'
tp3957
a(S'78'
S'6523'
tp3958
a(S'78'
S'1604'
tp3959
a(S'78'
S'8437'
tp3960
a(S'78'
S'8159'
tp3961
a(S'78'
S'6523'
tp3962
a(S'78'
S'1604'
tp3963
a(S'78'
S'8437'
tp3964
a(S'78'
S'8159'
tp3965
a(S'78'
S'1651'
tp3966
a(S'78'
g1435
tp3967
a(S'78'
S'5218'
tp3968
a(S'78'
g874
tp3969
a(S'78'
S'6731'
tp3970
a(S'78'
S'15336'
tp3971
a(S'78'
S'6034'
tp3972
a(S'78'
g433
tp3973
a(S'78'
g647
tp3974
a(S'78'
S'8756'
tp3975
a(S'78'
S'3812'
tp3976
a(S'78'
S'8756'
tp3977
a(S'78'
S'3812'
tp3978
a(g905
S'5765'
tp3979
a(S'79'
g619
tp3980
a(S'79'
g1014
tp3981
a(S'79'
S'9067'
tp3982
a(S'79'
g1317
tp3983
a(S'79'
S'3577'
tp3984
a(S'79'
g1376
tp3985
a(S'79'
g1360
tp3986
a(S'79'
S'7605'
tp3987
a(S'79'
S'5384'
tp3988
a(S'79'
S'7605'
tp3989
a(S'79'
S'3167'
tp3990
a(S'79'
S'3091'
tp3991
a(S'79'
S'1379'
tp3992
a(S'79'
g615
tp3993
a(S'79'
g25
tp3994
a(S'79'
g1026
tp3995
a(S'79'
g562
tp3996
a(g1210
g740
tp3997
a(S'80'
S'6980'
tp3998
a(S'80'
S'14722'
tp3999
a(S'80'
g826
tp4000
a(S'80'
S'3750'
tp4001
a(S'80'
g1181
tp4002
a(S'80'
S'2048'
tp4003
a(S'80'
S'2370'
tp4004
a(S'80'
S'14986'
tp4005
a(S'80'
g1269
tp4006
a(S'80'
g230
tp4007
a(S'80'
g1188
tp4008
a(S'80'
g400
tp4009
a(S'80'
g1043
tp4010
a(S'80'
g727
tp4011
a(S'80'
g179
tp4012
a(S'80'
g1101
tp4013
a(S'80'
S'7389'
tp4014
a(S'80'
g145
tp4015
a(S'80'
S'1404'
tp4016
a(g1211
S'7605'
tp4017
a(S'81'
S'3091'
tp4018
a(S'81'
S'1379'
tp4019
a(S'81'
S'13233'
tp4020
a(g1466
S'1633'
tp4021
a(S'82'
S'1379'
tp4022
a(S'82'
g1280
tp4023
a(S'82'
S'8060'
tp4024
a(S'82'
S'5424'
tp4025
a(S'82'
S'6811'
tp4026
a(S'82'
g528
tp4027
a(S'82'
S'5893'
tp4028
a(S'82'
g41
tp4029
a(S'82'
S'5893'
tp4030
a(S'82'
g808
tp4031
a(S'82'
g1198
tp4032
a(S'82'
S'10301'
tp4033
a(S'82'
S'7263'
tp4034
a(S'82'
S'10301'
tp4035
a(S'82'
S'7263'
tp4036
a(S'82'
g1113
tp4037
a(S'82'
S'1020'
tp4038
a(S'82'
S'8232'
tp4039
a(S'82'
S'1020'
tp4040
a(S'82'
g1471
tp4041
a(S'82'
S'5444'
tp4042
a(S'82'
S'1801'
tp4043
a(S'82'
S'1802'
tp4044
a(S'82'
g965
tp4045
a(S'82'
S'876'
tp4046
a(S'82'
g1344
tp4047
a(S'82'
g1219
tp4048
a(S'82'
S'1379'
tp4049
a(S'82'
S'1464'
tp4050
a(S'82'
g922
tp4051
a(S'82'
S'4247'
tp4052
a(S'82'
S'5147'
tp4053
a(S'82'
g958
tp4054
a(S'82'
S'4221'
tp4055
a(S'82'
S'4247'
tp4056
a(S'82'
S'4221'
tp4057
a(S'82'
S'4247'
tp4058
a(S'82'
S'4221'
tp4059
a(S'82'
S'4247'
tp4060
a(S'82'
S'4221'
tp4061
a(S'82'
S'4247'
tp4062
a(S'82'
S'4221'
tp4063
a(S'82'
S'4247'
tp4064
a(S'82'
g113
tp4065
a(S'82'
g695
tp4066
a(S'82'
g107
tp4067
a(S'82'
g1319
tp4068
a(S'82'
g1109
tp4069
a(S'82'
g574
tp4070
a(S'82'
S'6051'
tp4071
a(S'82'
S'5893'
tp4072
a(S'82'
S'6051'
tp4073
a(S'82'
S'5893'
tp4074
a(S'82'
S'6051'
tp4075
a(S'82'
S'5893'
tp4076
a(S'82'
S'5931'
tp4077
a(S'82'
S'5893'
tp4078
a(S'82'
S'2448'
tp4079
a(S'82'
S'5174'
tp4080
a(S'82'
S'6944'
tp4081
a(S'82'
S'5444'
tp4082
a(S'82'
S'1801'
tp4083
a(S'82'
S'1802'
tp4084
a(S'82'
S'3723'
tp4085
a(S'82'
S'876'
tp4086
a(S'82'
S'4493'
tp4087
a(S'82'
S'1428'
tp4088
a(S'82'
S'5169'
tp4089
a(S'82'
S'7161'
tp4090
a(S'82'
S'5175'
tp4091
a(S'82'
S'5384'
tp4092
a(S'82'
S'7605'
tp4093
a(S'82'
S'3167'
tp4094
a(S'82'
g681
tp4095
a(S'82'
S'4430'
tp4096
a(S'82'
S'14891'
tp4097
a(S'82'
S'6811'
tp4098
a(S'82'
S'6259'
tp4099
a(S'82'
S'9373'
tp4100
a(S'82'
S'6990'
tp4101
a(S'82'
S'8719'
tp4102
a(S'82'
S'6259'
tp4103
a(S'82'
S'9373'
tp4104
a(S'82'
S'6990'
tp4105
a(S'82'
S'8719'
tp4106
a(S'82'
S'6259'
tp4107
a(S'82'
S'9373'
tp4108
a(S'82'
S'6990'
tp4109
a(S'82'
S'8719'
tp4110
a(S'82'
S'6259'
tp4111
a(S'82'
S'9373'
tp4112
a(S'82'
S'6990'
tp4113
a(S'82'
S'8719'
tp4114
a(S'82'
S'6051'
tp4115
a(S'82'
S'6051'
tp4116
a(S'82'
g1484
tp4117
a(S'82'
S'6164'
tp4118
a(S'82'
S'989'
tp4119
a(S'82'
S'1464'
tp4120
a(S'82'
g546
tp4121
a(S'82'
S'4247'
tp4122
a(S'82'
S'1464'
tp4123
a(S'82'
S'4402'
tp4124
a(S'82'
S'4247'
tp4125
a(S'82'
S'2448'
tp4126
a(S'82'
S'5174'
tp4127
a(S'82'
S'12763'
tp4128
a(S'82'
S'4550'
tp4129
a(S'82'
g317
tp4130
a(S'82'
g866
tp4131
a(S'82'
S'8751'
tp4132
a(S'82'
S'643'
tp4133
a(S'82'
S'11588'
tp4134
a(S'82'
S'5637'
tp4135
a(S'82'
S'1544'
tp4136
a(S'82'
S'587'
tp4137
a(S'82'
S'1486'
tp4138
a(S'82'
S'13039'
tp4139
a(S'82'
S'9264'
tp4140
a(S'82'
S'3345'
tp4141
a(S'82'
S'7444'
tp4142
a(S'82'
S'4247'
tp4143
a(S'82'
S'3256'
tp4144
a(S'82'
S'2265'
tp4145
a(S'82'
S'989'
tp4146
a(S'82'
S'643'
tp4147
a(S'82'
S'11588'
tp4148
a(S'82'
S'5637'
tp4149
a(S'82'
S'1544'
tp4150
a(S'82'
S'587'
tp4151
a(S'82'
S'1486'
tp4152
a(S'82'
S'13039'
tp4153
a(S'82'
S'9264'
tp4154
a(S'82'
S'3345'
tp4155
a(S'82'
S'7444'
tp4156
a(S'82'
S'4247'
tp4157
a(S'82'
S'3256'
tp4158
a(S'82'
S'2265'
tp4159
a(S'82'
S'989'
tp4160
a(S'82'
S'643'
tp4161
a(S'82'
S'11588'
tp4162
a(S'82'
S'5637'
tp4163
a(S'82'
S'1544'
tp4164
a(S'82'
S'587'
tp4165
a(S'82'
S'1486'
tp4166
a(S'82'
S'13039'
tp4167
a(S'82'
S'9264'
tp4168
a(S'82'
S'3345'
tp4169
a(S'82'
S'7444'
tp4170
a(S'82'
S'4247'
tp4171
a(S'82'
S'3256'
tp4172
a(S'82'
S'2265'
tp4173
a(S'82'
S'989'
tp4174
a(S'82'
S'643'
tp4175
a(S'82'
S'11588'
tp4176
a(S'82'
S'5637'
tp4177
a(S'82'
S'1544'
tp4178
a(S'82'
S'587'
tp4179
a(S'82'
S'1486'
tp4180
a(S'82'
S'13039'
tp4181
a(S'82'
S'9264'
tp4182
a(S'82'
S'3345'
tp4183
a(S'82'
S'7444'
tp4184
a(S'82'
S'4247'
tp4185
a(S'82'
S'3256'
tp4186
a(S'82'
S'2265'
tp4187
a(S'82'
S'989'
tp4188
a(S'82'
g857
tp4189
a(S'82'
g722
tp4190
a(S'82'
g571
tp4191
a(S'82'
S'1633'
tp4192
a(S'82'
g979
tp4193
a(S'82'
g471
tp4194
a(S'82'
g985
tp4195
a(S'82'
S'7958'
tp4196
a(S'82'
g77
tp4197
a(S'82'
S'5634'
tp4198
a(S'82'
S'8792'
tp4199
a(S'82'
g172
tp4200
a(S'82'
g149
tp4201
a(S'82'
g1368
tp4202
a(S'82'
S'5424'
tp4203
a(S'82'
S'6857'
tp4204
a(S'82'
S'5314'
tp4205
a(S'82'
S'9264'
tp4206
a(S'82'
S'5893'
tp4207
a(S'82'
g1123
tp4208
a(S'82'
S'7853'
tp4209
a(S'82'
S'7295'
tp4210
a(S'82'
S'4247'
tp4211
a(S'82'
S'7295'
tp4212
a(S'82'
S'4247'
tp4213
a(S'82'
S'4584'
tp4214
a(S'82'
S'61'
tp4215
a(S'82'
S'4584'
tp4216
a(S'82'
S'61'
tp4217
a(S'82'
S'4584'
tp4218
a(S'82'
S'61'
tp4219
a(S'82'
S'3380'
tp4220
a(S'82'
S'7853'
tp4221
a(S'82'
S'3380'
tp4222
a(S'82'
S'7853'
tp4223
a(S'82'
g122
tp4224
a(S'82'
S'3380'
tp4225
a(S'82'
S'7853'
tp4226
a(S'82'
g1080
tp4227
a(S'82'
g476
tp4228
a(S'82'
S'5286'
tp4229
a(S'82'
S'5424'
tp4230
a(g1209
S'3329'
tp4231
a(S'83'
S'9609'
tp4232
a(g1214
S'6707'
tp4233
a(S'84'
S'6917'
tp4234
a(S'84'
S'8643'
tp4235
a(S'84'
g1133
tp4236
a(S'84'
S'4875'
tp4237
a(S'84'
S'8128'
tp4238
a(S'84'
S'4875'
tp4239
a(S'84'
g1318
tp4240
a(S'84'
g337
tp4241
a(S'84'
g864
tp4242
a(S'84'
g334
tp4243
a(S'84'
g915
tp4244
a(S'84'
S'6259'
tp4245
a(S'84'
S'9373'
tp4246
a(S'84'
S'6990'
tp4247
a(S'84'
S'8719'
tp4248
a(S'84'
g949
tp4249
a(S'84'
S'11511'
tp4250
a(S'84'
S'4875'
tp4251
a(S'84'
S'20'
tp4252
a(S'84'
S'3886'
tp4253
a(S'84'
S'8643'
tp4254
a(S'84'
S'4875'
tp4255
a(S'84'
S'20'
tp4256
a(S'84'
S'3886'
tp4257
a(S'84'
S'8643'
tp4258
a(g1215
S'3561'
tp4259
a(S'85'
S'8551'
tp4260
a(S'85'
S'3640'
tp4261
a(S'85'
S'1633'
tp4262
a(S'85'
S'6946'
tp4263
a(S'85'
S'3308'
tp4264
a(S'85'
S'3091'
tp4265
a(S'85'
S'1379'
tp4266
a(g1212
S'1365'
tp4267
a(S'86'
S'1365'
tp4268
a(S'86'
g1233
tp4269
a(S'86'
S'4875'
tp4270
a(S'86'
g1207
tp4271
a(S'86'
S'8643'
tp4272
a(S'86'
g803
tp4273
a(S'86'
g1267
tp4274
a(S'86'
g628
tp4275
a(S'86'
S'4875'
tp4276
a(S'86'
S'8643'
tp4277
a(S'86'
g1156
tp4278
a(S'86'
g1369
tp4279
a(S'86'
g76
tp4280
a(S'86'
S'5796'
tp4281
a(S'86'
g10
tp4282
a(S'86'
g1425
tp4283
a(S'86'
g299
tp4284
a(S'86'
g168
tp4285
a(S'86'
g1005
tp4286
a(S'86'
g313
tp4287
a(S'86'
g1377
tp4288
a(S'86'
S'5796'
tp4289
a(S'86'
g558
tp4290
a(S'86'
g1031
tp4291
a(S'86'
g573
tp4292
a(S'86'
S'3984'
tp4293
a(S'86'
S'5796'
tp4294
a(S'86'
S'1924'
tp4295
a(S'86'
S'5565'
tp4296
a(S'86'
S'3318'
tp4297
a(g1213
g1090
tp4298
a(S'87'
S'6707'
tp4299
a(S'87'
g1065
tp4300
a(S'87'
S'853'
tp4301
a(S'87'
g844
tp4302
a(S'87'
S'7930'
tp4303
a(S'87'
S'853'
tp4304
a(S'87'
S'3845'
tp4305
a(S'87'
g894
tp4306
a(S'87'
S'5286'
tp4307
a(S'87'
S'7194'
tp4308
a(S'87'
S'5765'
tp4309
a(S'87'
S'6944'
tp4310
a(S'87'
S'5444'
tp4311
a(S'87'
S'1801'
tp4312
a(S'87'
S'1802'
tp4313
a(S'87'
S'3723'
tp4314
a(S'87'
S'876'
tp4315
a(S'87'
S'4493'
tp4316
a(S'87'
S'1428'
tp4317
a(S'87'
g92
tp4318
a(S'87'
g1105
tp4319
a(S'87'
S'1933'
tp4320
a(S'87'
g1458
tp4321
a(S'87'
g137
tp4322
a(S'87'
g44
tp4323
a(S'87'
g1342
tp4324
a(S'87'
S'6843'
tp4325
a(S'87'
g1032
tp4326
a(S'87'
S'1933'
tp4327
a(S'87'
S'5436'
tp4328
a(S'87'
S'6843'
tp4329
a(S'87'
S'1524'
tp4330
a(S'87'
S'1933'
tp4331
a(S'87'
S'6843'
tp4332
a(S'87'
S'5436'
tp4333
a(S'87'
S'5634'
tp4334
a(g1206
g654
tp4335
a(S'88'
g295
tp4336
a(S'88'
g1199
tp4337
a(S'88'
S'5457'
tp4338
a(S'88'
g799
tp4339
a(S'88'
g683
tp4340
a(S'88'
g1350
tp4341
a(S'88'
g643
tp4342
a(S'88'
S'3835'
tp4343
a(S'88'
S'7516'
tp4344
a(S'88'
S'5384'
tp4345
a(S'88'
S'3762'
tp4346
a(S'88'
S'2564'
tp4347
a(S'88'
g431
tp4348
a(S'88'
g1491
tp4349
a(S'88'
g291
tp4350
a(g55
S'8313'
tp4351
a(S'90'
g1251
tp4352
a(S'90'
S'5765'
tp4353
a(S'90'
g1486
tp4354
a(S'90'
S'991'
tp4355
a(S'90'
S'198'
tp4356
a(S'90'
S'991'
tp4357
a(g54
S'3204'
tp4358
a(S'91'
S'6230'
tp4359
a(S'91'
S'7812'
tp4360
a(S'91'
g258
tp4361
a(S'91'
g1289
tp4362
a(S'91'
g785
tp4363
a(S'91'
g967
tp4364
a(S'91'
S'1968'
tp4365
a(S'91'
g1428
tp4366
a(S'91'
g150
tp4367
a(S'91'
g879
tp4368
a(S'91'
g509
tp4369
a(S'91'
S'3350'
tp4370
a(S'91'
S'6746'
tp4371
a(S'91'
S'3350'
tp4372
a(S'91'
S'1968'
tp4373
a(S'91'
S'6746'
tp4374
a(S'91'
S'3350'
tp4375
a(S'91'
g1061
tp4376
a(S'91'
g350
tp4377
a(S'91'
g736
tp4378
a(S'91'
g1313
tp4379
a(S'91'
g1282
tp4380
a(S'91'
g339
tp4381
a(S'91'
S'150'
tp4382
a(S'91'
g756
tp4383
a(S'91'
S'4683'
tp4384
a(S'91'
g78
tp4385
a(S'91'
S'5634'
tp4386
a(S'91'
S'485'
tp4387
a(S'91'
S'5638'
tp4388
a(S'91'
S'1968'
tp4389
a(S'91'
S'2643'
tp4390
a(S'91'
S'251'
tp4391
a(S'91'
S'1280'
tp4392
a(S'91'
S'5634'
tp4393
a(S'91'
S'485'
tp4394
a(S'91'
S'5638'
tp4395
a(S'91'
S'1968'
tp4396
a(S'91'
S'2643'
tp4397
a(S'91'
S'251'
tp4398
a(S'91'
S'9113'
tp4399
a(S'91'
g1366
tp4400
a(S'91'
S'1651'
tp4401
a(g56
g1456
tp4402
a(S'92'
g523
tp4403
a(S'92'
S'8616'
tp4404
a(S'92'
S'8060'
tp4405
a(S'92'
S'4320'
tp4406
a(S'92'
S'8616'
tp4407
a(S'92'
S'8060'
tp4408
a(S'92'
S'7788'
tp4409
a(S'92'
S'2909'
tp4410
a(S'92'
g603
tp4411
a(S'92'
S'8616'
tp4412
a(S'92'
S'8060'
tp4413
a(S'92'
S'8616'
tp4414
a(S'92'
S'8060'
tp4415
a(S'92'
S'1186'
tp4416
a(S'92'
S'8060'
tp4417
a(S'92'
S'1186'
tp4418
a(S'92'
S'8060'
tp4419
a(S'92'
S'836'
tp4420
a(S'92'
S'3944'
tp4421
a(S'92'
S'3944'
tp4422
a(g58
S'707'
tp4423
a(S'94'
S'15180'
tp4424
a(S'94'
g332
tp4425
a(S'94'
g519
tp4426
a(S'94'
g1481
tp4427
a(S'94'
g14
tp4428
a(S'94'
g846
tp4429
a(S'94'
g1416
tp4430
a(S'94'
S'8030'
tp4431
a(S'94'
g417
tp4432
a(S'94'
S'3567'
tp4433
a(S'94'
g746
tp4434
a(S'94'
g1051
tp4435
a(S'94'
g479
tp4436
a(S'94'
S'3812'
tp4437
a(S'94'
g917
tp4438
a(S'94'
S'2924'
tp4439
a(S'94'
S'7894'
tp4440
a(S'94'
S'3567'
tp4441
a(g57
S'3204'
tp4442
a(S'95'
g577
tp4443
a(S'95'
g767
tp4444
a(S'95'
g1011
tp4445
a(S'95'
g235
tp4446
a(S'95'
g283
tp4447
a(S'95'
S'1379'
tp4448
a(S'95'
S'2556'
tp4449
a(S'95'
S'3091'
tp4450
a(S'95'
S'1379'
tp4451
a(S'95'
g1189
tp4452
a(S'95'
S'3997'
tp4453
a(S'95'
S'6949'
tp4454
a(S'95'
S'5444'
tp4455
a(S'95'
S'876'
tp4456
a(S'95'
S'4501'
tp4457
a(S'95'
S'1379'
tp4458
a(S'95'
S'2556'
tp4459
a(S'95'
S'1257'
tp4460
a(S'95'
S'4445'
tp4461
a(S'95'
S'14920'
tp4462
a(S'95'
S'1633'
tp4463
a(S'95'
S'1379'
tp4464
a(S'95'
S'2556'
tp4465
a(g60
S'7389'
tp4466
a(S'96'
g666
tp4467
a(S'96'
g418
tp4468
a(S'96'
g1480
tp4469
a(S'96'
g1157
tp4470
a(S'96'
g893
tp4471
a(S'96'
S'7389'
tp4472
a(S'96'
S'2816'
tp4473
a(S'96'
g631
tp4474
a(S'96'
S'8614'
tp4475
a(g59
g161
tp4476
a(S'97'
g1041
tp4477
a(g53
g980
tp4478
a(S'98'
S'716'
tp4479
a(S'98'
S'7194'
tp4480
a(S'98'
S'5765'
tp4481
a(S'98'
S'2534'
tp4482
a(S'98'
S'3567'
tp4483
a(S'98'
S'2534'
tp4484
a(S'98'
S'3567'
tp4485
a(S'98'
g1485
tp4486
a(S'98'
g1027
tp4487
a(S'98'
g1116
tp4488
a(S'98'
g1155
tp4489
a(S'98'
g480
tp4490
a(S'98'
g1066
tp4491
a(S'98'
S'2534'
tp4492
a(S'98'
S'3567'
tp4493
a(S'98'
S'3988'
tp4494
a(S'98'
g1119
tp4495
a(S'98'
g1496
tp4496
a(S'98'
S'4454'
tp4497
a(S'98'
g491
tp4498
a(S'98'
S'7894'
tp4499
a(S'98'
S'3567'
tp4500
a(g31
S'1856'
tp4501
a(S'100'
g989
tp4502
a(S'100'
S'54'
tp4503
a(S'100'
g1167
tp4504
a(S'100'
g1392
tp4505
a(S'100'
g886
tp4506
a(S'100'
g1418
tp4507
a(g29
S'6051'
tp4508
a(S'102'
S'5893'
tp4509
a(S'102'
S'5444'
tp4510
a(S'102'
S'1801'
tp4511
a(S'102'
S'1802'
tp4512
a(S'102'
S'876'
tp4513
a(S'102'
g135
tp4514
a(S'102'
S'8410'
tp4515
a(S'102'
S'3615'
tp4516
a(S'103'
S'8735'
tp4517
a(S'103'
S'7894'
tp4518
a(S'103'
S'8735'
tp4519
a(S'103'
S'7894'
tp4520
a(S'103'
S'5765'
tp4521
a(S'103'
S'5286'
tp4522
a(S'103'
S'8413'
tp4523
a(S'103'
S'2534'
tp4524
a(S'103'
S'3567'
tp4525
a(S'103'
g761
tp4526
a(S'103'
S'7894'
tp4527
a(S'103'
S'5286'
tp4528
a(S'103'
S'171'
tp4529
a(S'103'
g141
tp4530
a(S'103'
S'407'
tp4531
a(S'103'
S'6944'
tp4532
a(S'103'
S'5444'
tp4533
a(S'103'
S'1801'
tp4534
a(S'103'
S'1802'
tp4535
a(S'103'
S'3723'
tp4536
a(S'103'
S'876'
tp4537
a(S'103'
S'4493'
tp4538
a(S'103'
S'1428'
tp4539
a(S'103'
S'5444'
tp4540
a(S'103'
S'1801'
tp4541
a(S'103'
S'1802'
tp4542
a(S'103'
S'876'
tp4543
a(S'103'
S'5444'
tp4544
a(S'103'
S'1801'
tp4545
a(S'103'
S'1802'
tp4546
a(S'103'
S'876'
tp4547
a(S'103'
S'6051'
tp4548
a(S'103'
S'5893'
tp4549
a(S'103'
S'6051'
tp4550
a(S'103'
S'5893'
tp4551
a(S'103'
S'5384'
tp4552
a(S'103'
S'451'
tp4553
a(S'103'
S'6259'
tp4554
a(S'103'
S'9373'
tp4555
a(S'103'
S'6990'
tp4556
a(S'103'
S'8719'
tp4557
a(S'103'
S'6259'
tp4558
a(S'103'
S'9373'
tp4559
a(S'103'
S'6990'
tp4560
a(S'103'
S'8719'
tp4561
a(S'103'
S'3586'
tp4562
a(S'103'
S'7894'
tp4563
a(S'103'
S'5286'
tp4564
a(S'103'
S'7894'
tp4565
a(S'103'
S'7894'
tp4566
a(S'103'
S'5893'
tp4567
a(S'103'
g616
tp4568
a(S'103'
S'7894'
tp4569
a(S'103'
g560
tp4570
a(S'103'
S'7894'
tp4571
a(g32
S'2798'
tp4572
a(S'104'
S'8850'
tp4573
a(S'104'
g369
tp4574
a(S'104'
S'2990'
tp4575
a(S'104'
S'3835'
tp4576
a(S'104'
g599
tp4577
a(S'104'
g1259
tp4578
a(S'104'
S'836'
tp4579
a(S'104'
g1281
tp4580
a(S'104'
g1323
tp4581
a(S'104'
g1395
tp4582
a(S'104'
S'434'
tp4583
a(S'104'
S'8282'
tp4584
a(S'104'
g260
tp4585
a(g28
S'5473'
tp4586
a(S'109'
S'2909'
tp4587
a(S'109'
g813
tp4588
a(S'109'
g215
tp4589
a(S'109'
g375
tp4590
a(S'109'
S'4454'
tp4591
a(S'109'
S'9220'
tp4592
a(S'109'
S'716'
tp4593
a(S'109'
S'9220'
tp4594
a(S'109'
S'716'
tp4595
a(S'109'
S'18'
tp4596
a(S'109'
S'3812'
tp4597
a(S'109'
S'7221'
tp4598
a(S'109'
S'7194'
tp4599
a(S'109'
S'5765'
tp4600
a(S'109'
S'7221'
tp4601
a(S'109'
S'7463'
tp4602
a(S'109'
g178
tp4603
a(S'109'
g153
tp4604
a(S'109'
S'8530'
tp4605
a(S'109'
S'7068'
tp4606
a(S'109'
S'3856'
tp4607
a(S'109'
S'4065'
tp4608
a(S'109'
S'5662'
tp4609
a(S'109'
S'5473'
tp4610
a(S'109'
S'9108'
tp4611
a(S'109'
S'2909'
tp4612
a(S'109'
g1077
tp4613
a(S'109'
g1068
tp4614
a(S'109'
g1272
tp4615
a(S'109'
S'8413'
tp4616
a(S'109'
S'5286'
tp4617
a(S'109'
g238
tp4618
a(S'109'
S'6707'
tp4619
a(S'109'
S'6843'
tp4620
a(S'109'
S'5436'
tp4621
a(S'110'
g514
tp4622
a(S'110'
S'12520'
tp4623
a(S'110'
g762
tp4624
a(S'110'
S'4221'
tp4625
a(S'110'
S'114'
tp4626
a(S'110'
S'2194'
tp4627
a(g1407
g1410
tp4628
a(S'111'
S'4221'
tp4629
a(S'112'
S'9264'
tp4630
a(S'112'
S'5301'
tp4631
a(S'112'
S'5893'
tp4632
a(S'112'
g670
tp4633
a(S'112'
g467
tp4634
a(S'112'
S'2411'
tp4635
a(S'112'
g359
tp4636
a(S'112'
S'2579'
tp4637
a(S'112'
S'8373'
tp4638
a(S'112'
g960
tp4639
a(S'112'
g913
tp4640
a(S'112'
S'5352'
tp4641
a(S'112'
S'8977'
tp4642
a(S'112'
S'5352'
tp4643
a(S'112'
S'8977'
tp4644
a(S'112'
S'12520'
tp4645
a(S'112'
S'8202'
tp4646
a(S'112'
S'5893'
tp4647
a(S'112'
S'8602'
tp4648
a(S'112'
S'1464'
tp4649
a(S'112'
S'8658'
tp4650
a(S'112'
S'4247'
tp4651
a(S'112'
S'8315'
tp4652
a(S'112'
S'3634'
tp4653
a(S'112'
S'7931'
tp4654
a(S'112'
S'8735'
tp4655
a(S'112'
g972
tp4656
a(S'112'
g1433
tp4657
a(S'112'
S'5495'
tp4658
a(S'112'
S'6990'
tp4659
a(S'112'
S'3655'
tp4660
a(S'112'
S'6990'
tp4661
a(S'112'
S'3655'
tp4662
a(S'112'
S'14824'
tp4663
a(S'112'
S'4430'
tp4664
a(S'112'
S'8202'
tp4665
a(S'112'
S'5893'
tp4666
a(S'112'
S'8202'
tp4667
a(S'112'
S'5893'
tp4668
a(S'112'
S'5931'
tp4669
a(S'112'
S'5893'
tp4670
a(S'112'
S'6051'
tp4671
a(S'112'
S'5893'
tp4672
a(S'112'
S'5893'
tp4673
a(S'112'
S'8373'
tp4674
a(S'112'
S'6944'
tp4675
a(S'112'
S'5444'
tp4676
a(S'112'
S'1801'
tp4677
a(S'112'
S'1802'
tp4678
a(S'112'
S'3723'
tp4679
a(S'112'
S'876'
tp4680
a(S'112'
S'4493'
tp4681
a(S'112'
S'1428'
tp4682
a(S'112'
S'5444'
tp4683
a(S'112'
S'1801'
tp4684
a(S'112'
S'1802'
tp4685
a(S'112'
S'876'
tp4686
a(S'112'
S'5444'
tp4687
a(S'112'
S'1801'
tp4688
a(S'112'
S'1802'
tp4689
a(S'112'
S'876'
tp4690
a(S'112'
S'5444'
tp4691
a(S'112'
S'1801'
tp4692
a(S'112'
S'1802'
tp4693
a(S'112'
S'876'
tp4694
a(S'112'
S'8948'
tp4695
a(S'112'
S'4221'
tp4696
a(S'112'
S'1315'
tp4697
a(S'112'
S'6051'
tp4698
a(S'112'
S'5174'
tp4699
a(S'112'
S'4247'
tp4700
a(S'112'
g358
tp4701
a(S'112'
S'4221'
tp4702
a(S'112'
S'3760'
tp4703
a(S'112'
S'2722'
tp4704
a(S'112'
S'6051'
tp4705
a(S'112'
S'3685'
tp4706
a(S'112'
S'7174'
tp4707
a(S'112'
S'7617'
tp4708
a(S'112'
S'4430'
tp4709
a(S'112'
S'9039'
tp4710
a(S'112'
S'2448'
tp4711
a(S'112'
S'7442'
tp4712
a(S'112'
S'6676'
tp4713
a(S'112'
S'2136'
tp4714
a(S'112'
S'4060'
tp4715
a(S'112'
S'8202'
tp4716
a(S'112'
S'3464'
tp4717
a(S'112'
g353
tp4718
a(S'112'
S'2722'
tp4719
a(S'112'
S'4221'
tp4720
a(S'112'
S'1296'
tp4721
a(S'112'
g1135
tp4722
a(S'112'
S'4221'
tp4723
a(S'112'
S'4221'
tp4724
a(S'112'
S'9039'
tp4725
a(S'112'
S'4221'
tp4726
a(S'112'
S'9039'
tp4727
a(S'112'
S'6259'
tp4728
a(S'112'
S'9373'
tp4729
a(S'112'
S'6990'
tp4730
a(S'112'
S'8719'
tp4731
a(S'112'
S'6259'
tp4732
a(S'112'
S'9373'
tp4733
a(S'112'
S'6990'
tp4734
a(S'112'
S'8719'
tp4735
a(S'112'
S'6259'
tp4736
a(S'112'
S'9373'
tp4737
a(S'112'
S'6990'
tp4738
a(S'112'
S'8719'
tp4739
a(S'112'
S'9264'
tp4740
a(S'112'
S'5893'
tp4741
a(S'112'
S'6051'
tp4742
a(S'112'
S'4657'
tp4743
a(S'112'
S'2122'
tp4744
a(S'112'
S'6259'
tp4745
a(S'112'
S'3157'
tp4746
a(S'112'
S'6990'
tp4747
a(S'112'
S'1296'
tp4748
a(S'112'
S'1464'
tp4749
a(S'112'
S'4402'
tp4750
a(S'112'
S'4247'
tp4751
a(S'112'
S'8202'
tp4752
a(S'112'
g517
tp4753
a(S'112'
S'9001'
tp4754
a(S'112'
S'4900'
tp4755
a(S'112'
S'4845'
tp4756
a(S'112'
S'6259'
tp4757
a(S'112'
S'4900'
tp4758
a(S'112'
S'4845'
tp4759
a(S'112'
S'4911'
tp4760
a(S'112'
S'4911'
tp4761
a(S'112'
S'4900'
tp4762
a(S'112'
S'4845'
tp4763
a(S'112'
g568
tp4764
a(S'112'
S'643'
tp4765
a(S'112'
S'11588'
tp4766
a(S'112'
S'5637'
tp4767
a(S'112'
S'1544'
tp4768
a(S'112'
S'587'
tp4769
a(S'112'
S'1486'
tp4770
a(S'112'
S'13039'
tp4771
a(S'112'
S'9264'
tp4772
a(S'112'
S'3345'
tp4773
a(S'112'
S'7444'
tp4774
a(S'112'
S'4247'
tp4775
a(S'112'
S'3256'
tp4776
a(S'112'
S'2265'
tp4777
a(S'112'
S'989'
tp4778
a(S'112'
S'8792'
tp4779
a(S'112'
g578
tp4780
a(S'112'
S'7442'
tp4781
a(S'112'
S'8792'
tp4782
a(S'112'
S'9008'
tp4783
a(S'112'
S'7442'
tp4784
a(S'112'
g1194
tp4785
a(S'112'
S'6811'
tp4786
a(S'112'
g792
tp4787
a(S'112'
S'9001'
tp4788
a(S'112'
g305
tp4789
a(S'112'
g247
tp4790
a(S'112'
S'2048'
tp4791
a(S'112'
S'7689'
tp4792
a(S'112'
S'8948'
tp4793
a(S'112'
S'2858'
tp4794
a(S'112'
S'4221'
tp4795
a(S'112'
S'8202'
tp4796
a(S'112'
S'5893'
tp4797
a(S'112'
S'8602'
tp4798
a(S'112'
S'9406'
tp4799
a(S'112'
S'4221'
tp4800
a(S'112'
S'2425'
tp4801
a(S'112'
S'8202'
tp4802
a(S'112'
S'5007'
tp4803
a(S'112'
g1346
tp4804
a(S'112'
g579
tp4805
a(S'112'
S'8202'
tp4806
a(S'112'
S'8202'
tp4807
a(S'112'
g288
tp4808
a(S'112'
g326
tp4809
a(S'112'
S'5037'
tp4810
a(S'112'
S'8751'
tp4811
a(S'112'
S'3005'
tp4812
a(S'112'
g110
tp4813
a(S'112'
S'2761'
tp4814
a(S'112'
S'4221'
tp4815
a(S'112'
S'2761'
tp4816
a(S'112'
S'4221'
tp4817
a(S'112'
S'8202'
tp4818
a(S'112'
S'6051'
tp4819
a(S'112'
S'5893'
tp4820
a(g1409
S'3329'
tp4821
a(S'113'
g1183
tp4822
a(g1406
S'1195'
tp4823
a(S'116'
S'846'
tp4824
a(S'116'
S'4831'
tp4825
a(S'116'
S'5169'
tp4826
a(S'116'
S'7161'
tp4827
a(S'116'
S'5175'
tp4828
a(S'116'
S'7894'
tp4829
a(S'116'
S'3567'
tp4830
a(g1405
S'6051'
tp4831
a(S'117'
S'11923'
tp4832
a(S'117'
S'6051'
tp4833
a(S'117'
S'11923'
tp4834
a(S'117'
S'6051'
tp4835
a(S'117'
S'11923'
tp4836
a(S'117'
S'4713'
tp4837
a(S'117'
S'5893'
tp4838
a(S'117'
S'8373'
tp4839
a(S'117'
S'6164'
tp4840
a(S'117'
S'989'
tp4841
a(S'117'
S'4247'
tp4842
a(S'117'
g872
tp4843
a(S'117'
S'4730'
tp4844
a(S'117'
S'6811'
tp4845
a(S'117'
S'2880'
tp4846
a(S'117'
S'5424'
tp4847
a(S'117'
S'8343'
tp4848
a(S'117'
S'451'
tp4849
a(S'117'
g1379
tp4850
a(S'117'
S'2722'
tp4851
a(S'117'
S'4883'
tp4852
a(S'117'
g858
tp4853
a(S'117'
S'853'
tp4854
a(S'117'
g1033
tp4855
a(S'117'
S'2573'
tp4856
a(S'117'
S'853'
tp4857
a(S'117'
S'1525'
tp4858
a(S'117'
S'6259'
tp4859
a(S'117'
S'9373'
tp4860
a(S'117'
S'6990'
tp4861
a(S'117'
S'8719'
tp4862
a(S'117'
S'6259'
tp4863
a(S'117'
S'9373'
tp4864
a(S'117'
S'6990'
tp4865
a(S'117'
S'8719'
tp4866
a(S'117'
S'6259'
tp4867
a(S'117'
S'9373'
tp4868
a(S'117'
S'6990'
tp4869
a(S'117'
S'8719'
tp4870
a(S'117'
S'6051'
tp4871
a(S'117'
S'6051'
tp4872
a(S'117'
S'11923'
tp4873
a(S'117'
S'6051'
tp4874
a(S'117'
S'11923'
tp4875
a(S'117'
g261
tp4876
a(S'117'
g163
tp4877
a(S'117'
S'4221'
tp4878
a(S'117'
S'2816'
tp4879
a(S'117'
S'13842'
tp4880
a(S'117'
g1197
tp4881
a(S'117'
g148
tp4882
a(S'117'
S'2722'
tp4883
a(S'117'
S'4883'
tp4884
a(S'117'
g236
tp4885
a(S'117'
S'3539'
tp4886
a(S'117'
S'643'
tp4887
a(S'117'
S'11588'
tp4888
a(S'117'
S'5637'
tp4889
a(S'117'
S'1544'
tp4890
a(S'117'
S'587'
tp4891
a(S'117'
S'1486'
tp4892
a(S'117'
S'13039'
tp4893
a(S'117'
S'9264'
tp4894
a(S'117'
S'3345'
tp4895
a(S'117'
S'7444'
tp4896
a(S'117'
S'4247'
tp4897
a(S'117'
S'3256'
tp4898
a(S'117'
S'2265'
tp4899
a(S'117'
S'989'
tp4900
a(S'117'
S'2411'
tp4901
a(S'117'
S'4549'
tp4902
a(S'117'
S'4543'
tp4903
a(S'117'
S'2579'
tp4904
a(S'117'
S'2411'
tp4905
a(S'117'
S'4247'
tp4906
a(S'117'
S'4247'
tp4907
a(S'117'
S'4873'
tp4908
a(S'117'
S'1020'
tp4909
a(S'117'
S'4873'
tp4910
a(S'117'
S'1020'
tp4911
a(S'117'
S'2722'
tp4912
a(S'117'
S'4883'
tp4913
a(S'117'
S'2722'
tp4914
a(S'117'
S'4883'
tp4915
a(S'117'
S'4584'
tp4916
a(S'117'
S'406'
tp4917
a(S'117'
S'4584'
tp4918
a(S'117'
S'406'
tp4919
a(S'117'
S'4584'
tp4920
a(S'117'
S'406'
tp4921
a(S'117'
S'5625'
tp4922
a(S'117'
S'2395'
tp4923
a(S'117'
S'7295'
tp4924
a(S'117'
S'989'
tp4925
a(S'117'
S'4247'
tp4926
a(g1412
S'2798'
tp4927
a(S'118'
S'5495'
tp4928
a(S'118'
S'3835'
tp4929
a(S'118'
S'7286'
tp4930
a(S'118'
S'434'
tp4931
a(S'118'
S'8282'
tp4932
a(S'118'
S'5277'
tp4933
a(g1411
S'2083'
tp4934
a(g1293
S'7168'
tp4935
a(S'121'
S'290'
tp4936
a(S'121'
S'67'
tp4937
a(S'121'
S'5191'
tp4938
a(S'121'
S'297'
tp4939
a(S'121'
S'2786'
tp4940
a(S'121'
S'14766'
tp4941
a(S'121'
S'8403'
tp4942
a(S'121'
S'58'
tp4943
a(S'121'
S'125'
tp4944
a(S'121'
S'287'
tp4945
a(S'121'
S'67'
tp4946
a(S'121'
S'7693'
tp4947
a(S'121'
S'4153'
tp4948
a(S'121'
S'2722'
tp4949
a(S'121'
S'15155'
tp4950
a(S'121'
S'1633'
tp4951
a(S'121'
g1110
tp4952
a(S'121'
g567
tp4953
a(S'121'
g404
tp4954
a(S'121'
g66
tp4955
a(S'121'
S'4593'
tp4956
a(S'121'
g542
tp4957
a(S'121'
g35
tp4958
a(S'121'
S'1402'
tp4959
a(S'121'
g233
tp4960
a(S'121'
S'5473'
tp4961
a(S'121'
S'5058'
tp4962
a(S'121'
g540
tp4963
a(S'121'
g306
tp4964
a(S'121'
g422
tp4965
a(S'121'
S'2909'
tp4966
a(S'121'
S'6016'
tp4967
a(S'121'
g1288
tp4968
a(S'121'
g1221
tp4969
a(g1294
g818
tp4970
a(S'122'
g896
tp4971
a(S'122'
S'729'
tp4972
a(S'122'
g475
tp4973
a(S'122'
S'1397'
tp4974
a(S'122'
S'846'
tp4975
a(S'122'
S'729'
tp4976
a(S'122'
S'389'
tp4977
a(g1295
g63
tp4978
a(S'123'
g174
tp4979
a(S'123'
g982
tp4980
a(S'123'
S'1365'
tp4981
a(g1296
S'3723'
tp4982
a(S'124'
S'4493'
tp4983
a(S'125'
g155
tp4984
a(S'125'
g925
tp4985
a(S'125'
g275
tp4986
a(S'125'
S'6060'
tp4987
a(S'125'
S'14832'
tp4988
a(S'125'
S'850'
tp4989
a(S'125'
g747
tp4990
a(S'125'
S'3988'
tp4991
a(S'125'
S'4454'
tp4992
a(S'125'
S'7174'
tp4993
a(S'125'
g1397
tp4994
a(S'125'
S'8282'
tp4995
a(S'125'
S'5473'
tp4996
a(S'125'
S'5058'
tp4997
a(S'125'
S'2909'
tp4998
a(S'125'
S'3944'
tp4999
a(S'125'
S'3944'
tp5000
a(S'125'
S'2018'
tp5001
a(S'125'
S'836'
tp5002
a(S'125'
S'5147'
tp5003
a(S'125'
S'6060'
tp5004
a(S'125'
S'14146'
tp5005
a(S'125'
S'4173'
tp5006
a(S'125'
g70
tp5007
a(S'125'
g308
tp5008
a(S'125'
S'14832'
tp5009
a(S'125'
S'850'
tp5010
a(S'125'
g1468
tp5011
a(g1298
S'6811'
tp5012
a(S'126'
S'846'
tp5013
a(S'126'
S'6731'
tp5014
a(S'126'
S'6820'
tp5015
a(S'126'
S'6990'
tp5016
a(S'126'
S'5169'
tp5017
a(S'126'
S'7161'
tp5018
a(S'126'
S'5175'
tp5019
a(S'126'
g1076
tp5020
a(S'126'
g1220
tp5021
a(S'126'
g932
tp5022
a(g1299
S'818'
tp5023
a(S'128'
S'409'
tp5024
a(S'128'
S'5634'
tp5025
a(S'128'
S'7405'
tp5026
a(S'128'
S'8885'
tp5027
a(S'128'
S'8616'
tp5028
a(S'128'
S'846'
tp5029
a(S'128'
S'8259'
tp5030
a(S'128'
S'5147'
tp5031
a(S'128'
S'7573'
tp5032
a(S'128'
S'4199'
tp5033
a(S'128'
S'14891'
tp5034
a(S'128'
S'3010'
tp5035
a(S'128'
S'3835'
tp5036
a(S'128'
S'14939'
tp5037
a(S'128'
S'2901'
tp5038
a(S'128'
g1423
tp5039
a(S'128'
S'846'
tp5040
a(S'128'
S'1464'
tp5041
a(S'128'
g1058
tp5042
a(S'128'
S'2359'
tp5043
a(S'128'
S'2009'
tp5044
a(S'128'
S'4165'
tp5045
a(S'128'
g1038
tp5046
a(S'128'
g719
tp5047
a(S'128'
g321
tp5048
a(S'128'
g1430
tp5049
a(S'128'
g728
tp5050
a(S'128'
g493
tp5051
a(S'128'
S'6731'
tp5052
a(g1305
S'818'
tp5053
a(S'130'
S'1610'
tp5054
a(S'130'
S'1404'
tp5055
a(S'130'
S'15162'
tp5056
a(S'130'
g269
tp5057
a(S'130'
S'5364'
tp5058
a(S'130'
S'4801'
tp5059
a(S'130'
S'4197'
tp5060
a(S'130'
S'14749'
tp5061
a(S'130'
g860
tp5062
a(S'130'
S'3593'
tp5063
a(S'130'
S'3723'
tp5064
a(S'130'
S'3308'
tp5065
a(S'130'
S'6990'
tp5066
a(S'130'
S'655'
tp5067
a(S'130'
S'7161'
tp5068
a(S'130'
S'3127'
tp5069
a(S'130'
g1082
tp5070
a(S'130'
S'5175'
tp5071
a(S'130'
S'2909'
tp5072
a(S'130'
g316
tp5073
a(S'130'
g1372
tp5074
a(S'130'
S'4550'
tp5075
a(S'130'
S'5169'
tp5076
a(S'130'
S'7161'
tp5077
a(S'130'
S'5175'
tp5078
a(S'130'
g954
tp5079
a(S'130'
g955
tp5080
a(S'130'
g557
tp5081
a(S'130'
S'1033'
tp5082
a(S'130'
g522
tp5083
a(S'130'
S'4339'
tp5084
a(S'130'
g202
tp5085
a(S'130'
S'6164'
tp5086
a(S'130'
S'9113'
tp5087
a(S'130'
S'5901'
tp5088
a(S'130'
S'5147'
tp5089
a(S'130'
S'4199'
tp5090
a(S'130'
g62
tp5091
a(S'130'
S'14832'
tp5092
a(S'130'
g1089
tp5093
a(S'130'
S'5527'
tp5094
a(S'130'
S'14832'
tp5095
a(S'130'
S'6337'
tp5096
a(S'130'
S'5527'
tp5097
a(S'130'
S'8215'
tp5098
a(S'130'
g1459
tp5099
a(S'130'
S'8215'
tp5100
a(S'130'
S'1610'
tp5101
a(S'130'
S'1404'
tp5102
a(S'130'
S'1610'
tp5103
a(S'130'
S'1404'
tp5104
a(S'130'
S'1610'
tp5105
a(S'130'
S'1404'
tp5106
a(S'130'
S'5904'
tp5107
a(S'130'
S'7609'
tp5108
a(S'130'
S'5147'
tp5109
a(S'130'
S'4199'
tp5110
a(S'130'
S'5904'
tp5111
a(S'130'
S'7609'
tp5112
a(S'130'
S'5147'
tp5113
a(S'130'
S'4199'
tp5114
a(S'130'
S'5904'
tp5115
a(S'130'
S'7609'
tp5116
a(S'130'
S'5147'
tp5117
a(S'130'
S'4199'
tp5118
a(S'130'
S'5194'
tp5119
a(S'130'
S'5963'
tp5120
a(S'130'
g975
tp5121
a(S'130'
g387
tp5122
a(S'130'
g180
tp5123
a(S'130'
g246
tp5124
a(S'130'
g157
tp5125
a(S'130'
g114
tp5126
a(S'130'
g413
tp5127
a(S'130'
g1247
tp5128
a(S'130'
g1149
tp5129
a(S'130'
g622
tp5130
a(S'130'
S'4801'
tp5131
a(S'130'
g669
tp5132
a(S'130'
g1316
tp5133
a(S'130'
g784
tp5134
a(S'130'
S'624'
tp5135
a(S'130'
g1333
tp5136
a(S'130'
S'15155'
tp5137
a(S'130'
S'5364'
tp5138
a(S'130'
g565
tp5139
a(S'130'
g885
tp5140
a(S'130'
g128
tp5141
a(S'130'
g223
tp5142
a(S'130'
g1236
tp5143
a(S'130'
g772
tp5144
a(S'130'
g1339
tp5145
a(S'130'
g232
tp5146
a(S'130'
S'2926'
tp5147
a(S'130'
g1326
tp5148
a(S'130'
g403
tp5149
a(S'130'
g463
tp5150
a(S'130'
S'2926'
tp5151
a(S'130'
S'5298'
tp5152
a(S'130'
S'3012'
tp5153
a(S'130'
g1007
tp5154
a(S'130'
S'1610'
tp5155
a(S'130'
S'3012'
tp5156
a(S'130'
S'6713'
tp5157
a(S'130'
S'5175'
tp5158
a(g1180
g855
tp5159
a(S'131'
S'2630'
tp5160
a(S'131'
g708
tp5161
a(S'131'
S'4584'
tp5162
a(S'131'
g768
tp5163
a(S'131'
g720
tp5164
a(S'131'
g629
tp5165
a(S'131'
S'4722'
tp5166
a(S'131'
S'8645'
tp5167
a(g1179
S'3186'
tp5168
a(S'132'
S'1020'
tp5169
a(S'132'
S'5384'
tp5170
a(g1178
S'6796'
tp5171
a(S'133'
S'5086'
tp5172
a(S'133'
S'6796'
tp5173
a(S'133'
S'5086'
tp5174
a(S'133'
g801
tp5175
a(S'133'
g34
tp5176
a(S'133'
g832
tp5177
a(S'133'
g1283
tp5178
a(S'133'
S'759'
tp5179
a(S'133'
g617
tp5180
a(S'133'
g607
tp5181
a(S'133'
S'2924'
tp5182
a(S'133'
S'7534'
tp5183
a(S'133'
g881
tp5184
a(S'133'
g582
tp5185
a(S'133'
g1367
tp5186
a(S'133'
S'2983'
tp5187
a(S'133'
S'5107'
tp5188
a(S'133'
S'9399'
tp5189
a(S'133'
S'6558'
tp5190
a(S'133'
S'2983'
tp5191
a(S'133'
S'14986'
tp5192
a(S'133'
S'14088'
tp5193
a(S'133'
S'5633'
tp5194
a(S'133'
g127
tp5195
a(S'133'
S'7544'
tp5196
a(S'133'
S'5500'
tp5197
a(S'133'
S'6870'
tp5198
a(S'133'
S'150'
tp5199
a(S'133'
S'7544'
tp5200
a(S'133'
S'5500'
tp5201
a(S'133'
S'6870'
tp5202
a(S'133'
S'150'
tp5203
a(S'133'
S'4969'
tp5204
a(S'133'
S'2331'
tp5205
a(S'133'
S'372'
tp5206
a(S'133'
g624
tp5207
a(S'133'
g482
tp5208
a(S'133'
S'500'
tp5209
a(S'133'
g1160
tp5210
a(S'133'
S'4082'
tp5211
a(S'133'
S'6531'
tp5212
a(S'133'
S'500'
tp5213
a(S'133'
S'2342'
tp5214
a(S'133'
S'8030'
tp5215
a(S'133'
S'9151'
tp5216
a(S'133'
g516
tp5217
a(S'133'
S'6531'
tp5218
a(S'133'
g550
tp5219
a(S'133'
g318
tp5220
a(S'133'
S'6558'
tp5221
a(S'133'
S'2983'
tp5222
a(S'133'
g385
tp5223
a(S'133'
S'2983'
tp5224
a(S'133'
g71
tp5225
a(S'133'
g1018
tp5226
a(S'133'
S'6558'
tp5227
a(S'133'
S'6531'
tp5228
a(S'133'
S'500'
tp5229
a(g1185
S'2009'
tp5230
a(S'134'
S'4165'
tp5231
a(S'134'
S'6164'
tp5232
a(S'134'
S'989'
tp5233
a(S'134'
S'4247'
tp5234
a(S'134'
g144
tp5235
a(S'134'
S'2639'
tp5236
a(S'134'
S'3025'
tp5237
a(S'134'
S'5147'
tp5238
a(S'134'
S'5895'
tp5239
a(S'134'
S'5490'
tp5240
a(S'134'
g204
tp5241
a(S'134'
S'6676'
tp5242
a(S'134'
g243
tp5243
a(S'134'
S'5444'
tp5244
a(S'134'
S'1802'
tp5245
a(S'134'
S'876'
tp5246
a(S'134'
S'4501'
tp5247
a(S'134'
S'1774'
tp5248
a(S'134'
g609
tp5249
a(S'134'
S'4165'
tp5250
a(S'134'
S'4165'
tp5251
a(S'134'
g423
tp5252
a(S'134'
g945
tp5253
a(S'134'
g173
tp5254
a(S'134'
S'5174'
tp5255
a(S'134'
S'6259'
tp5256
a(S'134'
S'9373'
tp5257
a(S'134'
S'6990'
tp5258
a(S'134'
S'8719'
tp5259
a(S'134'
S'6245'
tp5260
a(S'134'
S'4639'
tp5261
a(S'134'
g848
tp5262
a(S'134'
S'8024'
tp5263
a(S'134'
g1426
tp5264
a(S'134'
S'5968'
tp5265
a(S'134'
S'8024'
tp5266
a(S'134'
S'9791'
tp5267
a(S'134'
S'5968'
tp5268
a(S'134'
S'8024'
tp5269
a(S'134'
g987
tp5270
a(S'134'
S'9791'
tp5271
a(S'134'
g466
tp5272
a(S'134'
S'8373'
tp5273
a(S'134'
S'7174'
tp5274
a(S'134'
S'643'
tp5275
a(S'134'
S'11588'
tp5276
a(S'134'
S'5637'
tp5277
a(S'134'
S'1544'
tp5278
a(S'134'
S'587'
tp5279
a(S'134'
S'1486'
tp5280
a(S'134'
S'13039'
tp5281
a(S'134'
S'9264'
tp5282
a(S'134'
S'3345'
tp5283
a(S'134'
S'7444'
tp5284
a(S'134'
S'4247'
tp5285
a(S'134'
S'3256'
tp5286
a(S'134'
S'2265'
tp5287
a(S'134'
S'989'
tp5288
a(S'134'
S'5896'
tp5289
a(S'134'
g19
tp5290
a(S'134'
g572
tp5291
a(S'134'
g1165
tp5292
a(S'134'
S'3723'
tp5293
a(S'134'
S'1328'
tp5294
a(S'134'
S'4081'
tp5295
a(S'134'
S'5490'
tp5296
a(S'134'
g1429
tp5297
a(S'134'
S'5896'
tp5298
a(S'134'
S'4655'
tp5299
a(S'134'
g1479
tp5300
a(S'134'
g581
tp5301
a(S'134'
S'6350'
tp5302
a(S'134'
S'2746'
tp5303
a(S'134'
S'7820'
tp5304
a(S'134'
S'2759'
tp5305
a(S'134'
g544
tp5306
a(S'134'
g660
tp5307
a(S'134'
S'9376'
tp5308
a(S'134'
S'11675'
tp5309
a(S'134'
S'6731'
tp5310
a(g1184
S'1195'
tp5311
a(S'135'
S'5900'
tp5312
a(S'135'
S'1023'
tp5313
a(S'135'
S'15336'
tp5314
a(S'135'
S'5490'
tp5315
a(S'135'
g602
tp5316
a(S'135'
S'15336'
tp5317
a(S'135'
S'5490'
tp5318
a(S'135'
S'405'
tp5319
a(S'135'
g508
tp5320
a(S'135'
g804
tp5321
a(S'135'
g1231
tp5322
a(S'135'
g1245
tp5323
a(S'135'
S'15336'
tp5324
a(S'135'
S'8873'
tp5325
a(S'135'
S'3364'
tp5326
a(S'135'
S'1801'
tp5327
a(S'135'
S'1802'
tp5328
a(S'135'
g289
tp5329
a(S'135'
g1361
tp5330
a(S'135'
S'6516'
tp5331
a(S'135'
S'8567'
tp5332
a(S'135'
S'8128'
tp5333
a(S'135'
g596
tp5334
a(S'135'
g933
tp5335
a(S'135'
S'6516'
tp5336
a(S'135'
g361
tp5337
a(S'135'
S'7793'
tp5338
a(S'135'
S'12595'
tp5339
a(S'135'
S'6516'
tp5340
a(S'135'
S'3335'
tp5341
a(S'135'
S'5169'
tp5342
a(S'135'
S'7161'
tp5343
a(S'135'
S'5175'
tp5344
a(S'135'
g752
tp5345
a(S'135'
g988
tp5346
a(S'135'
S'6516'
tp5347
a(S'135'
S'8567'
tp5348
a(S'135'
S'15336'
tp5349
a(S'135'
S'5490'
tp5350
a(S'135'
S'405'
tp5351
a(S'135'
S'6051'
tp5352
a(S'135'
S'5174'
tp5353
a(S'135'
S'4247'
tp5354
a(S'135'
S'14986'
tp5355
a(S'135'
S'11923'
tp5356
a(S'135'
S'5900'
tp5357
a(S'135'
S'1023'
tp5358
a(S'135'
g626
tp5359
a(S'135'
S'15336'
tp5360
a(S'135'
S'5490'
tp5361
a(S'135'
S'405'
tp5362
a(S'135'
S'643'
tp5363
a(S'135'
S'11588'
tp5364
a(S'135'
S'5637'
tp5365
a(S'135'
S'1544'
tp5366
a(S'135'
S'587'
tp5367
a(S'135'
S'1486'
tp5368
a(S'135'
S'13039'
tp5369
a(S'135'
S'9264'
tp5370
a(S'135'
S'3345'
tp5371
a(S'135'
S'7444'
tp5372
a(S'135'
S'4247'
tp5373
a(S'135'
S'3256'
tp5374
a(S'135'
S'2265'
tp5375
a(S'135'
S'989'
tp5376
a(S'135'
S'5549'
tp5377
a(S'135'
S'5549'
tp5378
a(S'135'
g1385
tp5379
a(S'135'
S'6861'
tp5380
a(S'135'
S'3762'
tp5381
a(S'135'
S'6676'
tp5382
a(S'135'
g115
tp5383
a(S'135'
S'5633'
tp5384
a(S'135'
g64
tp5385
a(S'135'
S'1335'
tp5386
a(S'135'
S'15336'
tp5387
a(S'135'
S'6861'
tp5388
a(S'135'
S'6664'
tp5389
a(S'135'
S'853'
tp5390
a(S'135'
S'1933'
tp5391
a(S'135'
S'14986'
tp5392
a(S'135'
S'4125'
tp5393
a(S'135'
S'3012'
tp5394
a(S'135'
g254
tp5395
a(S'135'
g457
tp5396
a(S'135'
S'707'
tp5397
a(S'135'
S'2099'
tp5398
a(S'135'
S'451'
tp5399
a(S'135'
S'14986'
tp5400
a(S'135'
S'11923'
tp5401
a(S'135'
S'2552'
tp5402
a(S'135'
g1147
tp5403
a(S'135'
g1422
tp5404
a(g1311
g1020
tp5405
a(S'136'
S'14146'
tp5406
a(S'136'
S'4173'
tp5407
a(S'137'
g462
tp5408
a(S'137'
g742
tp5409
a(S'137'
g1042
tp5410
a(S'137'
g1403
tp5411
a(S'137'
g1262
tp5412
a(S'137'
S'6857'
tp5413
a(S'137'
g473
tp5414
a(S'137'
g146
tp5415
a(S'137'
g104
tp5416
a(S'137'
g878
tp5417
a(S'137'
g1384
tp5418
a(S'137'
g357
tp5419
a(S'137'
g709
tp5420
a(S'137'
S'2983'
tp5421
a(S'137'
g69
tp5422
a(S'137'
g1338
tp5423
a(S'137'
S'3204'
tp5424
a(S'137'
S'3204'
tp5425
a(S'137'
S'3204'
tp5426
a(S'137'
S'6700'
tp5427
a(S'137'
S'3495'
tp5428
a(S'137'
S'1595'
tp5429
a(S'137'
S'2329'
tp5430
a(S'137'
S'7833'
tp5431
a(S'137'
S'10738'
tp5432
a(S'137'
S'9790'
tp5433
a(S'137'
S'3025'
tp5434
a(S'137'
S'4199'
tp5435
a(S'137'
S'14603'
tp5436
a(S'137'
S'4550'
tp5437
a(S'137'
g733
tp5438
a(S'137'
g655
tp5439
a(S'137'
g224
tp5440
a(S'137'
g570
tp5441
a(S'137'
g489
tp5442
a(S'137'
g217
tp5443
a(S'137'
g23
tp5444
a(S'137'
S'3025'
tp5445
a(S'137'
g1436
tp5446
a(S'137'
g242
tp5447
a(S'137'
S'6849'
tp5448
a(S'137'
S'2185'
tp5449
a(S'137'
S'7647'
tp5450
a(S'137'
S'2207'
tp5451
a(S'137'
S'2185'
tp5452
a(S'137'
S'7647'
tp5453
a(S'137'
S'2207'
tp5454
a(S'137'
g706
tp5455
a(S'137'
g916
tp5456
a(S'137'
g1060
tp5457
a(S'137'
S'4221'
tp5458
a(S'137'
S'4247'
tp5459
a(S'137'
S'912'
tp5460
a(S'137'
S'15152'
tp5461
a(S'137'
S'858'
tp5462
a(S'137'
S'4550'
tp5463
a(S'137'
S'912'
tp5464
a(S'137'
S'5630'
tp5465
a(S'137'
S'1315'
tp5466
a(S'137'
S'7911'
tp5467
a(S'137'
g1334
tp5468
a(S'137'
g1096
tp5469
a(S'137'
g738
tp5470
a(S'137'
S'5384'
tp5471
a(S'137'
S'451'
tp5472
a(S'137'
S'3329'
tp5473
a(S'137'
S'9609'
tp5474
a(S'137'
S'5169'
tp5475
a(S'137'
S'7161'
tp5476
a(S'137'
S'5175'
tp5477
a(S'137'
S'1033'
tp5478
a(S'137'
S'9267'
tp5479
a(S'137'
g300
tp5480
a(S'137'
S'2983'
tp5481
a(S'137'
g200
tp5482
a(S'137'
S'13347'
tp5483
a(S'137'
S'15109'
tp5484
a(S'137'
g309
tp5485
a(S'137'
S'6307'
tp5486
a(S'137'
S'5384'
tp5487
a(S'137'
S'2564'
tp5488
a(S'137'
g968
tp5489
a(S'137'
S'2185'
tp5490
a(S'137'
g863
tp5491
a(S'137'
g297
tp5492
a(S'137'
S'409'
tp5493
a(S'137'
S'7647'
tp5494
a(S'137'
S'962'
tp5495
a(S'137'
S'2185'
tp5496
a(S'137'
S'9122'
tp5497
a(S'137'
S'852'
tp5498
a(S'137'
S'409'
tp5499
a(S'137'
S'7647'
tp5500
a(S'137'
S'3025'
tp5501
a(S'137'
S'8491'
tp5502
a(S'137'
S'3025'
tp5503
a(S'137'
S'8491'
tp5504
a(S'137'
S'3025'
tp5505
a(S'137'
S'8491'
tp5506
a(S'137'
g1078
tp5507
a(S'137'
S'5364'
tp5508
a(S'137'
S'2725'
tp5509
a(S'137'
g524
tp5510
a(S'137'
S'409'
tp5511
a(S'137'
S'5554'
tp5512
a(S'137'
S'1688'
tp5513
a(S'137'
S'15153'
tp5514
a(S'137'
S'6858'
tp5515
a(S'137'
S'14986'
tp5516
a(S'137'
S'6742'
tp5517
a(S'137'
S'14986'
tp5518
a(S'137'
S'6742'
tp5519
a(S'137'
S'14986'
tp5520
a(S'137'
S'6742'
tp5521
a(S'137'
S'2909'
tp5522
a(S'137'
g126
tp5523
a(S'137'
S'9113'
tp5524
a(S'137'
g411
tp5525
a(S'137'
S'9113'
tp5526
a(S'137'
S'5143'
tp5527
a(S'137'
S'13209'
tp5528
a(S'137'
S'5174'
tp5529
a(S'137'
S'8777'
tp5530
a(S'137'
S'4842'
tp5531
a(S'137'
S'1235'
tp5532
a(S'137'
S'6114'
tp5533
a(S'137'
g248
tp5534
a(S'137'
g585
tp5535
a(S'137'
S'7370'
tp5536
a(S'137'
S'7370'
tp5537
a(S'137'
S'15152'
tp5538
a(S'137'
g1354
tp5539
a(S'137'
S'3835'
tp5540
a(S'137'
S'1141'
tp5541
a(S'137'
g797
tp5542
a(S'137'
g961
tp5543
a(S'137'
S'3835'
tp5544
a(S'137'
S'7639'
tp5545
a(S'137'
S'11912'
tp5546
a(S'137'
g1303
tp5547
a(S'137'
g1118
tp5548
a(S'137'
g662
tp5549
a(S'137'
g416
tp5550
a(S'137'
S'14584'
tp5551
a(S'137'
g1327
tp5552
a(S'137'
g1250
tp5553
a(S'137'
S'14584'
tp5554
a(S'137'
g348
tp5555
a(S'137'
g485
tp5556
a(S'137'
S'14986'
tp5557
a(S'137'
g676
tp5558
a(S'137'
S'2725'
tp5559
a(S'137'
S'4199'
tp5560
a(S'137'
g664
tp5561
a(S'137'
g692
tp5562
a(S'137'
S'13528'
tp5563
a(S'137'
S'14584'
tp5564
a(S'137'
g1402
tp5565
a(S'137'
g780
tp5566
a(S'137'
S'14676'
tp5567
a(S'137'
g1023
tp5568
a(S'137'
S'8212'
tp5569
a(S'137'
S'4549'
tp5570
a(S'137'
g1330
tp5571
a(S'137'
S'8969'
tp5572
a(S'137'
S'15155'
tp5573
a(S'137'
S'9113'
tp5574
a(S'137'
S'4831'
tp5575
a(S'137'
g1446
tp5576
a(S'137'
S'1195'
tp5577
a(S'137'
S'569'
tp5578
a(S'137'
S'1195'
tp5579
a(S'137'
g478
tp5580
a(S'137'
S'9113'
tp5581
a(S'137'
S'5143'
tp5582
a(S'137'
S'9113'
tp5583
a(S'137'
S'5143'
tp5584
a(S'137'
S'9113'
tp5585
a(S'137'
S'5143'
tp5586
a(S'137'
g112
tp5587
a(S'137'
g439
tp5588
a(S'137'
S'7326'
tp5589
a(S'137'
S'11923'
tp5590
a(S'137'
S'1633'
tp5591
a(S'137'
S'8042'
tp5592
a(S'137'
S'1501'
tp5593
a(S'137'
S'7958'
tp5594
a(S'137'
S'6316'
tp5595
a(S'137'
S'6350'
tp5596
a(S'137'
S'67'
tp5597
a(S'137'
S'7693'
tp5598
a(S'137'
S'296'
tp5599
a(S'137'
S'2816'
tp5600
a(S'137'
S'7370'
tp5601
a(S'137'
S'1195'
tp5602
a(S'137'
g1448
tp5603
a(S'137'
g555
tp5604
a(S'137'
g196
tp5605
a(S'137'
g151
tp5606
a(S'137'
g241
tp5607
a(S'137'
S'3981'
tp5608
a(S'137'
g943
tp5609
a(S'137'
g871
tp5610
a(S'137'
g1268
tp5611
a(S'137'
g1085
tp5612
a(S'137'
S'989'
tp5613
a(S'137'
S'15398'
tp5614
a(S'137'
S'5865'
tp5615
a(S'137'
S'1666'
tp5616
a(S'137'
g447
tp5617
a(S'137'
S'6186'
tp5618
a(S'137'
S'7449'
tp5619
a(S'137'
S'6861'
tp5620
a(S'137'
S'6861'
tp5621
a(S'137'
g49
tp5622
a(S'137'
S'6861'
tp5623
a(S'137'
S'7262'
tp5624
a(g1315
S'4585'
tp5625
a(S'138'
S'6707'
tp5626
a(S'138'
S'5384'
tp5627
a(S'138'
S'4221'
tp5628
a(S'138'
S'3167'
tp5629
a(S'138'
g1312
tp5630
a(S'138'
S'5397'
tp5631
a(S'138'
S'1185'
tp5632
a(S'138'
S'5397'
tp5633
a(S'138'
g1309
tp5634
a(g409
S'3779'
tp5635
a(S'140'
S'1383'
tp5636
a(S'140'
S'12888'
tp5637
a(S'140'
g839
tp5638
a(S'140'
g549
tp5639
a(S'140'
S'1397'
tp5640
a(S'140'
S'4550'
tp5641
a(S'140'
S'855'
tp5642
a(S'140'
S'9268'
tp5643
a(S'140'
S'14939'
tp5644
a(S'140'
S'7764'
tp5645
a(S'140'
g1114
tp5646
a(S'140'
S'15329'
tp5647
a(S'140'
S'1404'
tp5648
a(S'140'
S'5444'
tp5649
a(S'140'
S'1802'
tp5650
a(S'140'
S'876'
tp5651
a(S'140'
S'4501'
tp5652
a(S'140'
S'1774'
tp5653
a(S'140'
S'5444'
tp5654
a(S'140'
S'1802'
tp5655
a(S'140'
S'876'
tp5656
a(S'140'
S'4501'
tp5657
a(S'140'
S'1774'
tp5658
a(S'140'
S'5444'
tp5659
a(S'140'
S'1801'
tp5660
a(S'140'
S'1802'
tp5661
a(S'140'
S'876'
tp5662
a(S'140'
S'4749'
tp5663
a(S'140'
S'15'
tp5664
a(S'140'
S'14939'
tp5665
a(S'140'
S'2901'
tp5666
a(S'140'
S'850'
tp5667
a(S'140'
S'1397'
tp5668
a(S'140'
S'1397'
tp5669
a(S'140'
S'1397'
tp5670
a(S'140'
g739
tp5671
a(S'140'
g946
tp5672
a(S'140'
S'7794'
tp5673
a(S'140'
g24
tp5674
a(S'140'
g1382
tp5675
a(S'140'
S'7794'
tp5676
a(S'140'
S'2261'
tp5677
a(S'140'
S'12774'
tp5678
a(S'140'
S'2412'
tp5679
a(S'140'
g918
tp5680
a(S'140'
S'13154'
tp5681
a(S'140'
S'14749'
tp5682
a(S'140'
g36
tp5683
a(g410
g292
tp5684
a(S'141'
g245
tp5685
a(S'141'
S'2722'
tp5686
a(S'141'
S'3835'
tp5687
a(S'141'
S'4153'
tp5688
a(S'141'
S'2722'
tp5689
a(S'141'
S'15155'
tp5690
a(S'141'
S'3561'
tp5691
a(S'141'
S'8551'
tp5692
a(S'141'
S'4969'
tp5693
a(S'141'
S'2331'
tp5694
a(S'141'
S'372'
tp5695
a(S'141'
S'15155'
tp5696
a(S'141'
S'9021'
tp5697
a(S'141'
S'7794'
tp5698
a(S'141'
S'7947'
tp5699
a(S'141'
S'1048'
tp5700
a(S'141'
S'13842'
tp5701
a(g407
S'1379'
tp5702
a(S'142'
S'2556'
tp5703
a(S'142'
S'4023'
tp5704
a(S'142'
S'6051'
tp5705
a(S'142'
S'5893'
tp5706
a(S'142'
S'5444'
tp5707
a(S'142'
S'1801'
tp5708
a(S'142'
S'1802'
tp5709
a(S'142'
S'876'
tp5710
a(S'142'
g378
tp5711
a(S'142'
S'818'
tp5712
a(S'142'
g525
tp5713
a(S'142'
S'3091'
tp5714
a(S'142'
S'1379'
tp5715
a(S'142'
g199
tp5716
a(S'142'
g203
tp5717
a(S'142'
S'3762'
tp5718
a(S'142'
S'6676'
tp5719
a(S'142'
S'7854'
tp5720
a(S'142'
S'3762'
tp5721
a(S'142'
S'6676'
tp5722
a(S'142'
S'7854'
tp5723
a(S'142'
g218
tp5724
a(S'142'
S'387'
tp5725
a(g408
S'5343'
tp5726
a(S'143'
g349
tp5727
a(S'143'
S'7794'
tp5728
a(S'143'
S'5451'
tp5729
a(S'143'
g100
tp5730
a(S'143'
S'9113'
tp5731
a(S'143'
S'5901'
tp5732
a(S'143'
g65
tp5733
a(S'143'
S'5384'
tp5734
a(S'143'
g198
tp5735
a(S'143'
S'7794'
tp5736
a(S'143'
S'5451'
tp5737
a(S'143'
S'3640'
tp5738
a(S'143'
S'1633'
tp5739
a(S'143'
S'846'
tp5740
a(S'143'
S'6861'
tp5741
a(S'143'
S'7262'
tp5742
a(S'143'
S'4550'
tp5743
a(S'143'
S'839'
tp5744
a(S'144'
g776
tp5745
a(S'144'
S'10301'
tp5746
a(S'144'
S'7263'
tp5747
a(S'144'
S'10301'
tp5748
a(S'144'
S'7263'
tp5749
a(S'144'
S'10301'
tp5750
a(S'144'
S'7263'
tp5751
a(S'144'
S'7328'
tp5752
a(S'144'
g231
tp5753
a(S'144'
g999
tp5754
a(S'144'
S'9264'
tp5755
a(S'144'
S'5893'
tp5756
a(S'144'
S'13494'
tp5757
a(S'144'
S'8315'
tp5758
a(S'144'
S'3634'
tp5759
a(S'144'
S'7931'
tp5760
a(S'144'
S'8735'
tp5761
a(S'144'
g201
tp5762
a(S'144'
S'9011'
tp5763
a(S'144'
S'818'
tp5764
a(S'144'
S'6051'
tp5765
a(S'144'
g1453
tp5766
a(S'144'
S'3345'
tp5767
a(S'144'
S'4247'
tp5768
a(S'144'
S'3345'
tp5769
a(S'144'
S'4247'
tp5770
a(S'144'
S'3345'
tp5771
a(S'144'
S'4247'
tp5772
a(S'144'
S'1296'
tp5773
a(S'144'
S'5896'
tp5774
a(S'144'
S'1770'
tp5775
a(S'144'
S'1158'
tp5776
a(S'144'
S'5050'
tp5777
a(S'144'
S'6051'
tp5778
a(S'144'
S'11125'
tp5779
a(S'144'
S'8139'
tp5780
a(S'144'
S'4713'
tp5781
a(S'144'
S'5301'
tp5782
a(S'144'
S'5893'
tp5783
a(S'144'
S'5893'
tp5784
a(S'144'
S'5310'
tp5785
a(S'144'
S'13494'
tp5786
a(S'144'
S'4221'
tp5787
a(S'144'
S'4247'
tp5788
a(S'144'
S'4221'
tp5789
a(S'144'
S'4247'
tp5790
a(S'144'
S'4221'
tp5791
a(S'144'
S'4247'
tp5792
a(S'144'
S'8373'
tp5793
a(S'144'
S'5301'
tp5794
a(S'144'
S'5893'
tp5795
a(S'144'
S'8373'
tp5796
a(S'144'
S'5301'
tp5797
a(S'144'
S'5893'
tp5798
a(S'144'
g1415
tp5799
a(S'144'
S'4954'
tp5800
a(S'144'
S'7853'
tp5801
a(S'144'
S'14824'
tp5802
a(S'144'
S'4430'
tp5803
a(S'144'
S'14939'
tp5804
a(S'144'
S'5349'
tp5805
a(S'144'
g158
tp5806
a(S'144'
g535
tp5807
a(S'144'
S'6990'
tp5808
a(S'144'
S'6963'
tp5809
a(S'144'
S'4572'
tp5810
a(S'144'
S'6990'
tp5811
a(S'144'
S'7328'
tp5812
a(S'144'
S'4247'
tp5813
a(S'144'
S'6051'
tp5814
a(S'144'
S'5893'
tp5815
a(S'144'
S'6051'
tp5816
a(S'144'
S'5893'
tp5817
a(S'144'
S'6051'
tp5818
a(S'144'
S'5893'
tp5819
a(S'144'
S'5931'
tp5820
a(S'144'
S'5893'
tp5821
a(S'144'
S'8564'
tp5822
a(S'144'
S'1068'
tp5823
a(S'144'
S'8564'
tp5824
a(S'144'
S'1068'
tp5825
a(S'144'
S'8564'
tp5826
a(S'144'
S'1068'
tp5827
a(S'144'
S'8564'
tp5828
a(S'144'
S'1068'
tp5829
a(S'144'
S'8564'
tp5830
a(S'144'
S'1068'
tp5831
a(S'144'
S'8564'
tp5832
a(S'144'
S'1068'
tp5833
a(S'144'
S'8564'
tp5834
a(S'144'
S'1068'
tp5835
a(S'144'
S'6051'
tp5836
a(S'144'
S'5893'
tp5837
a(S'144'
S'6051'
tp5838
a(S'144'
S'5893'
tp5839
a(S'144'
g395
tp5840
a(S'144'
g322
tp5841
a(S'144'
S'13330'
tp5842
a(S'144'
S'13175'
tp5843
a(S'144'
g534
tp5844
a(S'144'
S'1562'
tp5845
a(S'144'
g220
tp5846
as.